
build/AppDeck/AppDeck.a(AppDeck.o) (for architecture armv7):
000003d4 t +[AppDeck open:withLaunchingWithOptions:]
00000614 t +[AppDeck reloadFrom:]
000007c8 t +[AppDeck restart]
00000000 t +[AppDeck sharedInstance]
00001fc0 b +[AppDeck sharedInstance].appDeck
000010a8 t -[AppDeck .cxx_destruct]
00000940 t -[AppDeck apiCall:]
00001038 t -[AppDeck cache]
00000fc8 t -[AppDeck customWebViewFactory]
00000054 t -[AppDeck init]
00001070 t -[AppDeck loader]
00001048 t -[AppDeck setCache:]
00000fd8 t -[AppDeck setCustomWebViewFactory:]
00001080 t -[AppDeck setLoader:]
00001010 t -[AppDeck setUrl:]
00001000 t -[AppDeck url]
00001104 S _OBJC_CLASS_$_AppDeck
         U _OBJC_CLASS_$_AppURLCache
         U _OBJC_CLASS_$_CacheMonitoringURLProtocol
         U _OBJC_CLASS_$_CookieStorage
         U _OBJC_CLASS_$_CustomWebViewFactory
         U _OBJC_CLASS_$_LoaderURLProtocol
         U _OBJC_CLASS_$_LoaderViewController
         U _OBJC_CLASS_$_ManagedUIWebViewURLProtocol
         U _OBJC_CLASS_$_MobilizeUIWebViewURLProtocol
         U _OBJC_CLASS_$_NSArray
         U _OBJC_CLASS_$_NSDate
         U _OBJC_CLASS_$_NSNumber
         U _OBJC_CLASS_$_NSObject
         U _OBJC_CLASS_$_NSString
         U _OBJC_CLASS_$_NSURL
         U _OBJC_CLASS_$_NSURLCache
         U _OBJC_CLASS_$_NSURLProtocol
         U _OBJC_CLASS_$_UIApplication
         U _OBJC_CLASS_$_UIWebView
         U _OBJC_CLASS_$_WebViewHistory
00001b00 S _OBJC_IVAR_$_AppDeck._cache
00001af8 S _OBJC_IVAR_$_AppDeck._customWebViewFactory
00001b04 S _OBJC_IVAR_$_AppDeck._loader
00001afc S _OBJC_IVAR_$_AppDeck._url
00001118 S _OBJC_METACLASS_$_AppDeck
         U _OBJC_METACLASS_$_NSObject
         U __NSConcreteStackBlock
00000edc t ___19-[AppDeck apiCall:]_block_invoke
00000f38 t ___19-[AppDeck apiCall:]_block_invoke_2
         U ___CFConstantStringClassReference
00001ac0 s ___block_descriptor_tmp
00001ae0 s ___block_descriptor_tmp114
00000fa8 t ___copy_helper_block_
00000fb8 t ___copy_helper_block_111
00000fb0 t ___destroy_helper_block_
00000fc0 t ___destroy_helper_block_112
         U __dispatch_main_q
         U __objc_empty_cache
         U __objc_empty_vtable
         U _dispatch_async
         U _glLog
         U _objc_autoreleaseReturnValue
         U _objc_msgSend
         U _objc_release
         U _objc_retain
         U _objc_retainAutoreleaseReturnValue
         U _objc_retainAutoreleasedReturnValue
         U _objc_storeStrong
000018f0 s l_.str
0000190f s l_.str115
00001915 s l_.str119
00001918 s l_.str123
0000191d s l_.str127
00001925 s l_.str131
0000192b s l_.str135
000018f2 s l_.str93
000018f7 s l_.str97
00001904 s l_.str99
00001c30 s l_OBJC_$_CLASS_METHODS_AppDeck
00001e10 s l_OBJC_$_INSTANCE_METHODS_AppDeck
00001e9c s l_OBJC_$_INSTANCE_VARIABLES_AppDeck
00001ef8 s l_OBJC_$_PROP_LIST_AppDeck
00001c68 s l_OBJC_$_PROTOCOL_INSTANCE_METHODS_NSObject
00001dc4 s l_OBJC_$_PROTOCOL_INSTANCE_METHODS_OPT_AppDeckApiCallDelegate
00001d54 s l_OBJC_$_PROTOCOL_INSTANCE_METHODS_OPT_NSObject
00001dd8 s l_OBJC_$_PROTOCOL_METHOD_TYPES_AppDeckApiCallDelegate
00001d68 s l_OBJC_$_PROTOCOL_METHOD_TYPES_NSObject
00001db8 s l_OBJC_$_PROTOCOL_REFS_AppDeckApiCallDelegate
00001ddc s l_OBJC_CLASS_PROTOCOLS_$_AppDeck
00001f20 s l_OBJC_CLASS_RO_$_AppDeck
00001fa4 S l_OBJC_LABEL_PROTOCOL_$_AppDeckApiCallDelegate
00001fa0 S l_OBJC_LABEL_PROTOCOL_$_NSObject
00001de8 s l_OBJC_METACLASS_RO_$_AppDeck
00001f74 S l_OBJC_PROTOCOL_$_AppDeckApiCallDelegate
00001f48 S l_OBJC_PROTOCOL_$_NSObject

build/AppDeck/AppDeck.a(RNCachingURLProtocol.o) (for architecture armv7):
00000000 t +[RNCachingURLProtocol canInitWithRequest:]
00000148 t +[RNCachingURLProtocol canonicalRequestForRequest:]
000001ec t +[RNCachingURLProtocol propertyForKey:inRequest:]
00000194 t +[RNCachingURLProtocol registerClass:]
00000150 t +[RNCachingURLProtocol removePropertyForKey:inRequest:]
00000294 t +[RNCachingURLProtocol requestIsCacheEquivalent:toRequest:]
00000240 t +[RNCachingURLProtocol setProperty:forKey:inRequest:]
000001c0 t +[RNCachingURLProtocol unregisterClass:]
00000d68 t -[RNCachedData .cxx_destruct]
00000cf8 t -[RNCachedData data]
00000b98 t -[RNCachedData encodeWithCoder:]
00000c30 t -[RNCachedData initWithCoder:]
00000d30 t -[RNCachedData response]
00000d08 t -[RNCachedData setData:]
00000d40 t -[RNCachedData setResponse:]
00000b3c t -[RNCachingURLProtocol .cxx_destruct]
000009a0 t -[RNCachingURLProtocol appendData:]
000003b0 t -[RNCachingURLProtocol cachePathForRequest:]
00000768 t -[RNCachingURLProtocol connection:didFailWithError:]
00000704 t -[RNCachingURLProtocol connection:didReceiveData:]
000007e0 t -[RNCachingURLProtocol connection:didReceiveResponse:]
0000084c t -[RNCachingURLProtocol connectionDidFinishLoading:]
00000a94 t -[RNCachingURLProtocol connection]
00000acc t -[RNCachingURLProtocol data]
000002dc t -[RNCachingURLProtocol initWithRequest:cachedResponse:client:]
00000a5c t -[RNCachingURLProtocol request]
00000b04 t -[RNCachingURLProtocol response]
00000aa4 t -[RNCachingURLProtocol setConnection:]
00000adc t -[RNCachingURLProtocol setData:]
00000a6c t -[RNCachingURLProtocol setRequest:]
00000b14 t -[RNCachingURLProtocol setResponse:]
000004b8 t -[RNCachingURLProtocol startLoading]
000006cc t -[RNCachingURLProtocol stopLoading]
         U _NSLog
         U _NSSearchPathForDirectoriesInDomains
         U _OBJC_CLASS_$_NSKeyedArchiver
         U _OBJC_CLASS_$_NSKeyedUnarchiver
         U _OBJC_CLASS_$_NSMutableData
         U _OBJC_CLASS_$_NSObject
         U _OBJC_CLASS_$_NSString
         U _OBJC_CLASS_$_NSURLConnection
         U _OBJC_CLASS_$_NSURLProtocol
00001454 S _OBJC_CLASS_$_RNCachedData
00001440 S _OBJC_CLASS_$_RNCachingURLProtocol
000014b0 S _OBJC_IVAR_$_RNCachedData.data_
000014b4 S _OBJC_IVAR_$_RNCachedData.response_
000014a4 S _OBJC_IVAR_$_RNCachingURLProtocol.connection_
000014a8 S _OBJC_IVAR_$_RNCachingURLProtocol.data_
000014a0 S _OBJC_IVAR_$_RNCachingURLProtocol.request_
000014ac S _OBJC_IVAR_$_RNCachingURLProtocol.response_
         U _OBJC_METACLASS_$_NSObject
         U _OBJC_METACLASS_$_NSURLProtocol
00001468 S _OBJC_METACLASS_$_RNCachedData
0000142c S _OBJC_METACLASS_$_RNCachingURLProtocol
         U ___CFConstantStringClassReference
         U __objc_empty_cache
         U __objc_empty_vtable
         U _objc_autoreleaseReturnValue
         U _objc_msgSend
         U _objc_msgSendSuper2
         U _objc_release
         U _objc_retain
         U _objc_retainAutoreleaseReturnValue
         U _objc_retainAutoreleasedReturnValue
         U _objc_storeStrong
00000d9a s l_.str
00000dcf s l_.str11
00000e91 s l_.str151
00000e9a s l_.str153
00000e9f s l_.str155
00000dd4 s l_.str31
00000dd5 s l_.str42
00000db1 s l_.str5
000015e8 s l_OBJC_$_CLASS_METHODS_RNCachingURLProtocol
0000185c s l_OBJC_$_INSTANCE_METHODS_RNCachedData
00001678 s l_OBJC_$_INSTANCE_METHODS_RNCachingURLProtocol
000018b8 s l_OBJC_$_INSTANCE_VARIABLES_RNCachedData
00001758 s l_OBJC_$_INSTANCE_VARIABLES_RNCachingURLProtocol
000018e8 s l_OBJC_$_PROP_LIST_RNCachedData
000017b0 s l_OBJC_$_PROP_LIST_RNCachingURLProtocol
00001800 s l_OBJC_$_PROTOCOL_INSTANCE_METHODS_NSCoding
00001820 s l_OBJC_$_PROTOCOL_METHOD_TYPES_NSCoding
00001828 s l_OBJC_CLASS_PROTOCOLS_$_RNCachedData
00001900 s l_OBJC_CLASS_RO_$_RNCachedData
000017d8 s l_OBJC_CLASS_RO_$_RNCachingURLProtocol
00001954 S l_OBJC_LABEL_PROTOCOL_$_NSCoding
00001834 s l_OBJC_METACLASS_RO_$_RNCachedData
00001650 s l_OBJC_METACLASS_RO_$_RNCachingURLProtocol
00001928 S l_OBJC_PROTOCOL_$_NSCoding

build/AppDeck/AppDeck.a(AppURLCache.o) (for architecture armv7):
00002368 t -[AppURLCache .cxx_destruct]
00000b5c t -[AppURLCache addCacheRegularExpressionFromString:]
00002348 t -[AppURLCache alwaysCache]
00001e54 t -[AppURLCache cachedResponseForRequest:]
00000cc4 t -[AppURLCache checkBeacon]
00000914 t -[AppURLCache cleanall]
0000042c t -[AppURLCache cleanup]
00000b3c t -[AppURLCache didReceiveMemoryWarning]
00000e50 t -[AppURLCache getCachePathForEmbedResource:]
00001080 t -[AppURLCache getCachePathForRequest:]
0000116c t -[AppURLCache getCacheResponseForRequest:]
00001840 t -[AppURLCache hostIsCDN:]
00000204 t -[AppURLCache initWithMemoryCapacity:diskCapacity:diskPath:]
00000350 t -[AppURLCache memoryCapacity]
0000037c t -[AppURLCache removeAllCachedResponses]
00000bd8 t -[AppURLCache removeAllRegularExpression]
000003a8 t -[AppURLCache removeCachedResponseForRequest:]
00000c3c t -[AppURLCache requestIsInCache:date:]
00001028 t -[AppURLCache requestIsInEmbedCache:]
00002358 t -[AppURLCache setAlwaysCache:]
00001788 t -[AppURLCache setCacheResponse:forRequest:]
000003d4 t -[AppURLCache setDiskCapacity:]
00000400 t -[AppURLCache setMemoryCapacity:]
00001b20 t -[AppURLCache shouldServeRequestFromCache:]
00001b9c t -[AppURLCache shouldStoreCachedResponse:forRequest:]
000018dc t -[AppURLCache shouldStoreRequest:]
0000221c t -[AppURLCache storeCachedResponse:forRequest:]
00001548 t -[AppURLCache storeToDiskCacheResponse:forRequest:]
000001d0 t -[AppURLCachedData .cxx_destruct]
00000160 t -[AppURLCachedData data]
00000000 t -[AppURLCachedData encodeWithCoder:]
00000098 t -[AppURLCachedData initWithCoder:]
00000198 t -[AppURLCachedData response]
00000170 t -[AppURLCachedData setData:]
000001a8 t -[AppURLCachedData setResponse:]
         U _NSLog
         U _NSSearchPathForDirectoriesInDomains
00002db4 S _OBJC_CLASS_$_AppURLCache
00002d8c S _OBJC_CLASS_$_AppURLCachedData
         U _OBJC_CLASS_$_ManagedUIWebViewController
         U _OBJC_CLASS_$_NSArray
         U _OBJC_CLASS_$_NSBundle
         U _OBJC_CLASS_$_NSCachedURLResponse
         U _OBJC_CLASS_$_NSData
         U _OBJC_CLASS_$_NSDate
         U _OBJC_CLASS_$_NSFileManager
         U _OBJC_CLASS_$_NSHTTPURLResponse
         U _OBJC_CLASS_$_NSKeyedArchiver
         U _OBJC_CLASS_$_NSKeyedUnarchiver
         U _OBJC_CLASS_$_NSMutableArray
         U _OBJC_CLASS_$_NSMutableDictionary
         U _OBJC_CLASS_$_NSNumber
         U _OBJC_CLASS_$_NSObject
         U _OBJC_CLASS_$_NSString
         U _OBJC_CLASS_$_NSURL
         U _OBJC_CLASS_$_NSURLCache
         U _OBJC_CLASS_$_NSURLConnection
         U _OBJC_CLASS_$_NSURLRequest
         U _OBJC_CLASS_$_NSURLResponse
         U _OBJC_CLASS_$_RE2Regexp
00002dfc S _OBJC_IVAR_$_AppURLCache._alwaysCache
00002dec S _OBJC_IVAR_$_AppURLCache.backgroundQueue
00002df4 S _OBJC_IVAR_$_AppURLCache.cacheRegex
00002df8 S _OBJC_IVAR_$_AppURLCache.fileManager
00002df0 S _OBJC_IVAR_$_AppURLCache.memcache
00002de4 S _OBJC_IVAR_$_AppURLCachedData._data
00002de8 S _OBJC_IVAR_$_AppURLCachedData._response
00002dc8 S _OBJC_METACLASS_$_AppURLCache
00002da0 S _OBJC_METACLASS_$_AppURLCachedData
         U _OBJC_METACLASS_$_NSObject
         U _OBJC_METACLASS_$_NSURLCache
00003aa4 b __MergedGlobals
         U __NSConcreteGlobalBlock
         U __NSConcreteStackBlock
00000890 t ___22-[AppURLCache cleanup]_block_invoke
00002168 t ___40-[AppURLCache cachedResponseForRequest:]_block_invoke
000022c4 t ___46-[AppURLCache storeCachedResponse:forRequest:]_block_invoke
         U ___CFConstantStringClassReference
00003a00 s ___block_descriptor_tmp
00003a30 s ___block_descriptor_tmp246
00003a50 s ___block_descriptor_tmp261
00003a10 s ___block_literal_global
0000220c t ___copy_helper_block_
00002310 t ___copy_helper_block_258
00002214 t ___destroy_helper_block_
0000232c t ___destroy_helper_block_259
         U ___stack_chk_fail
         U ___stack_chk_guard
         U __objc_empty_cache
         U __objc_empty_vtable
         U _dispatch_async
         U _dispatch_queue_create
00003a68 d _gifData
         U _objc_autorelease
         U _objc_autoreleaseReturnValue
         U _objc_enumerationMutation
         U _objc_msgSend
         U _objc_msgSendSuper2
         U _objc_msgSend_stret
         U _objc_release
         U _objc_retain
         U _objc_retainAutorelease
         U _objc_retainAutoreleasedReturnValue
         U _objc_storeStrong
         U _stat
00003354 s l_.str110
0000336a s l_.str116
00003372 s l_.str128
0000337a s l_.str130
0000337b s l_.str140
0000337f s l_.str146
0000338f s l_.str177
000033a8 s l_.str188
000033d5 s l_.str194
00003404 s l_.str200
000037df s l_.str208
000037e3 s l_.str220
000037ea s l_.str222
000037f5 s l_.str224
000037fc s l_.str234
0000382c s l_.str252
00003855 s l_.str292
0000385e s l_.str294
00003330 s l_.str66
00003341 s l_.str90
000030a0 s l_OBJC_$_INSTANCE_METHODS_AppURLCache
00002fac s l_OBJC_$_INSTANCE_METHODS_AppURLCachedData
000031f8 s l_OBJC_$_INSTANCE_VARIABLES_AppURLCache
00003008 s l_OBJC_$_INSTANCE_VARIABLES_AppURLCachedData
00003268 s l_OBJC_$_PROP_LIST_AppURLCache
00003038 s l_OBJC_$_PROP_LIST_AppURLCachedData
00002f50 s l_OBJC_$_PROTOCOL_INSTANCE_METHODS_NSCoding
00002f70 s l_OBJC_$_PROTOCOL_METHOD_TYPES_NSCoding
00002f78 s l_OBJC_CLASS_PROTOCOLS_$_AppURLCachedData
00003278 s l_OBJC_CLASS_RO_$_AppURLCache
00003050 s l_OBJC_CLASS_RO_$_AppURLCachedData
000032cc S l_OBJC_LABEL_PROTOCOL_$_NSCoding
00003078 s l_OBJC_METACLASS_RO_$_AppURLCache
00002f84 s l_OBJC_METACLASS_RO_$_AppURLCachedData
000032a0 S l_OBJC_PROTOCOL_$_NSCoding

build/AppDeck/AppDeck.a(CustomUIWebView.o) (for architecture armv7):
00000000 t -[UIWebView(withProgress) altwebView:identifierForInitialRequest:fromDataSource:]
00000128 t -[UIWebView(withProgress) altwebView:resource:didFailLoadingWithError:fromDataSource:]
00000264 t -[UIWebView(withProgress) altwebView:resource:didFinishLoadingFromDataSource:]
00000384 t -[UIWebView(withProgress) altwebView:runJavaScriptTextInputPanelWithPrompt:defaultText:initiatedByFrame:]
0000064c t -[UIWebView(withProgress) touchesBegan:withEvent:]
         U _NSLog
         U _OBJC_CLASS_$_AppDeck
         U _OBJC_CLASS_$_AppDeckApiCall
         U _OBJC_CLASS_$_NSString
         U _OBJC_CLASS_$_UIWebView
         U ___CFConstantStringClassReference
         U _objc_autoreleaseReturnValue
         U _objc_msgSend
         U _objc_msgSendSuper2
         U _objc_release
         U _objc_retain
         U _objc_retainAutoreleasedReturnValue
00000990 s l_.str
0000099c s l_.str44
000009b7 s l_.str49
000009d7 s l_.str55
000009e9 s l_.str57
00000aac s l_OBJC_$_CATEGORY_INSTANCE_METHODS_UIWebView_$_withProgress
00000af0 s l_OBJC_$_CATEGORY_UIWebView_$_withProgress

build/AppDeck/AppDeck.a(ManagedUIWebViewURLProtocol.o) (for architecture armv7):
00000000 t +[ManagedUIWebViewURLProtocol canInitWithRequest:]
00000044 t +[ManagedUIWebViewURLProtocol canonicalRequestForRequest:]
0000004c t +[ManagedUIWebViewURLProtocol requestIsCacheEquivalent:toRequest:]
00000ecc t -[ManagedUIWebViewURLProtocol .cxx_destruct]
00000d90 t -[ManagedUIWebViewURLProtocol clean]
00000c78 t -[ManagedUIWebViewURLProtocol connection:didFailWithError:]
00000268 t -[ManagedUIWebViewURLProtocol connection:didReceiveData:]
00000438 t -[ManagedUIWebViewURLProtocol connection:didReceiveResponse:]
0000095c t -[ManagedUIWebViewURLProtocol connection:didSendBodyData:totalBytesWritten:totalBytesExpectedToWrite:]
00000960 t -[ManagedUIWebViewURLProtocol connection:willCacheResponse:]
00000a00 t -[ManagedUIWebViewURLProtocol connection:willSendRequest:redirectResponse:]
00000a70 t -[ManagedUIWebViewURLProtocol connectionDidFinishLoading:]
00000e5c t -[ManagedUIWebViewURLProtocol connection]
00000e94 t -[ManagedUIWebViewURLProtocol data]
00000050 t -[ManagedUIWebViewURLProtocol initWithRequest:cachedResponse:client:]
00000dec t -[ManagedUIWebViewURLProtocol request]
00000e24 t -[ManagedUIWebViewURLProtocol response]
00000e6c t -[ManagedUIWebViewURLProtocol setConnection:]
00000ea4 t -[ManagedUIWebViewURLProtocol setData:]
00000dfc t -[ManagedUIWebViewURLProtocol setRequest:]
00000e34 t -[ManagedUIWebViewURLProtocol setResponse:]
000001a8 t -[ManagedUIWebViewURLProtocol startLoading]
00000218 t -[ManagedUIWebViewURLProtocol stopLoading]
         U _NSLog
         U _NSURLErrorDomain
         U _OBJC_CLASS_$_AppDeck
         U _OBJC_CLASS_$_ManagedUIWebViewController
0000193c S _OBJC_CLASS_$_ManagedUIWebViewURLProtocol
         U _OBJC_CLASS_$_NSError
         U _OBJC_CLASS_$_NSHTTPURLResponse
         U _OBJC_CLASS_$_NSMutableData
         U _OBJC_CLASS_$_NSURLConnection
         U _OBJC_CLASS_$_NSURLProtocol
00001934 S _OBJC_IVAR_$_ManagedUIWebViewURLProtocol._connection
00001938 S _OBJC_IVAR_$_ManagedUIWebViewURLProtocol._data
0000192c S _OBJC_IVAR_$_ManagedUIWebViewURLProtocol._request
00001930 S _OBJC_IVAR_$_ManagedUIWebViewURLProtocol._response
0000191c S _OBJC_IVAR_$_ManagedUIWebViewURLProtocol.ctl
00001928 S _OBJC_IVAR_$_ManagedUIWebViewURLProtocol.expectedContentLength
00001924 S _OBJC_IVAR_$_ManagedUIWebViewURLProtocol.receivedContentLength
00001920 S _OBJC_IVAR_$_ManagedUIWebViewURLProtocol.tmp
00001950 S _OBJC_METACLASS_$_ManagedUIWebViewURLProtocol
         U _OBJC_METACLASS_$_NSObject
         U _OBJC_METACLASS_$_NSURLProtocol
         U __NSConcreteStackBlock
000003b4 t ___57-[ManagedUIWebViewURLProtocol connection:didReceiveData:]_block_invoke
00000c48 t ___58-[ManagedUIWebViewURLProtocol connectionDidFinishLoading:]_block_invoke
00000d3c t ___59-[ManagedUIWebViewURLProtocol connection:didFailWithError:]_block_invoke
00000884 t ___61-[ManagedUIWebViewURLProtocol connection:didReceiveResponse:]_block_invoke
00000908 t ___61-[ManagedUIWebViewURLProtocol connection:didReceiveResponse:]_block_invoke83
         U ___CFConstantStringClassReference
000019c0 s ___block_descriptor_tmp
00001a20 s ___block_descriptor_tmp114
00001a40 s ___block_descriptor_tmp118
000019e0 s ___block_descriptor_tmp61
00001a00 s ___block_descriptor_tmp89
00000408 t ___copy_helper_block_
00000c68 t ___copy_helper_block_111
00000d60 t ___copy_helper_block_115
000008f8 t ___copy_helper_block_58
0000092c t ___copy_helper_block_86
00000420 t ___destroy_helper_block_
00000c70 t ___destroy_helper_block_112
00000d78 t ___destroy_helper_block_116
00000900 t ___destroy_helper_block_59
00000944 t ___destroy_helper_block_87
         U __dispatch_main_q
         U __objc_empty_cache
         U __objc_empty_vtable
         U _dispatch_async
         U _objc_autoreleaseReturnValue
         U _objc_msgSend
         U _objc_msgSendSuper2
         U _objc_release
         U _objc_retain
         U _objc_retainAutoreleaseReturnValue
         U _objc_retainAutoreleasedReturnValue
         U _objc_storeStrong
         U _sizeofcode
00000f6c s l_.str
00000fef s l_.str105
00000f8d s l_.str47
00000fb0 s l_.str64
00000fbf s l_.str77
00001c80 s l_OBJC_$_CLASS_METHODS_ManagedUIWebViewURLProtocol
00001eac s l_OBJC_$_INSTANCE_METHODS_ManagedUIWebViewURLProtocol
00001fa4 s l_OBJC_$_INSTANCE_VARIABLES_ManagedUIWebViewURLProtocol
00002050 s l_OBJC_$_PROP_LIST_ManagedUIWebViewURLProtocol
00001cac s l_OBJC_$_PROTOCOL_INSTANCE_METHODS_NSObject
00001d98 s l_OBJC_$_PROTOCOL_INSTANCE_METHODS_OPT_NSObject
00001e0c s l_OBJC_$_PROTOCOL_INSTANCE_METHODS_OPT_NSURLConnectionDelegate
00001db0 s l_OBJC_$_PROTOCOL_METHOD_TYPES_NSObject
00001e60 s l_OBJC_$_PROTOCOL_METHOD_TYPES_NSURLConnectionDelegate
00001e00 s l_OBJC_$_PROTOCOL_REFS_NSURLConnectionDelegate
00001e78 s l_OBJC_CLASS_PROTOCOLS_$_ManagedUIWebViewURLProtocol
00002078 s l_OBJC_CLASS_RO_$_ManagedUIWebViewURLProtocol
000020f8 S l_OBJC_LABEL_PROTOCOL_$_NSObject
000020fc S l_OBJC_LABEL_PROTOCOL_$_NSURLConnectionDelegate
00001e84 s l_OBJC_METACLASS_RO_$_ManagedUIWebViewURLProtocol
000020a0 S l_OBJC_PROTOCOL_$_NSObject
000020cc S l_OBJC_PROTOCOL_$_NSURLConnectionDelegate

build/AppDeck/AppDeck.a(MobilizeUIWebViewURLProtocol.o) (for architecture armv7):
00000000 t +[MobilizeUIWebViewURLProtocol canInitWithRequest:]
000000a0 t +[MobilizeUIWebViewURLProtocol canonicalRequestForRequest:]
000000a8 t +[MobilizeUIWebViewURLProtocol requestIsCacheEquivalent:toRequest:]
00000660 t -[MobilizeUIWebViewURLProtocol .cxx_destruct]
00000538 t -[MobilizeUIWebViewURLProtocol clean]
000004d4 t -[MobilizeUIWebViewURLProtocol connection:didFailWithError:]
00000328 t -[MobilizeUIWebViewURLProtocol connection:didReceiveData:]
00000378 t -[MobilizeUIWebViewURLProtocol connection:didReceiveResponse:]
00000408 t -[MobilizeUIWebViewURLProtocol connection:didSendBodyData:totalBytesWritten:totalBytesExpectedToWrite:]
0000040c t -[MobilizeUIWebViewURLProtocol connection:willCacheResponse:]
00000414 t -[MobilizeUIWebViewURLProtocol connection:willSendRequest:redirectResponse:]
00000484 t -[MobilizeUIWebViewURLProtocol connectionDidFinishLoading:]
000005f0 t -[MobilizeUIWebViewURLProtocol connection]
000005b8 t -[MobilizeUIWebViewURLProtocol data]
000000ac t -[MobilizeUIWebViewURLProtocol initWithRequest:cachedResponse:client:]
00000628 t -[MobilizeUIWebViewURLProtocol request]
00000580 t -[MobilizeUIWebViewURLProtocol response]
00000600 t -[MobilizeUIWebViewURLProtocol setConnection:]
000005c8 t -[MobilizeUIWebViewURLProtocol setData:]
00000638 t -[MobilizeUIWebViewURLProtocol setRequest:]
00000590 t -[MobilizeUIWebViewURLProtocol setResponse:]
00000268 t -[MobilizeUIWebViewURLProtocol startLoading]
000002d8 t -[MobilizeUIWebViewURLProtocol stopLoading]
         U _NSLog
00000e54 S _OBJC_CLASS_$_MobilizeUIWebViewURLProtocol
         U _OBJC_CLASS_$_NSString
         U _OBJC_CLASS_$_NSURL
         U _OBJC_CLASS_$_NSURLConnection
         U _OBJC_CLASS_$_NSURLProtocol
00000e88 S _OBJC_IVAR_$_MobilizeUIWebViewURLProtocol._connection
00000e84 S _OBJC_IVAR_$_MobilizeUIWebViewURLProtocol._data
00000e8c S _OBJC_IVAR_$_MobilizeUIWebViewURLProtocol._request
00000e80 S _OBJC_IVAR_$_MobilizeUIWebViewURLProtocol._response
00000e90 S _OBJC_IVAR_$_MobilizeUIWebViewURLProtocol.expectedContentLength
00000e94 S _OBJC_IVAR_$_MobilizeUIWebViewURLProtocol.receivedContentLength
00000e68 S _OBJC_METACLASS_$_MobilizeUIWebViewURLProtocol
         U _OBJC_METACLASS_$_NSObject
         U _OBJC_METACLASS_$_NSURLProtocol
         U ___CFConstantStringClassReference
         U __objc_empty_cache
         U __objc_empty_vtable
         U _objc_autoreleaseReturnValue
         U _objc_msgSend
         U _objc_msgSendSuper2
         U _objc_release
         U _objc_retain
         U _objc_retainAutoreleaseReturnValue
         U _objc_retainAutoreleasedReturnValue
         U _objc_storeStrong
000006cc s l_.str
000006e9 s l_.str1
00000705 s l_.str10
000010e0 s l_OBJC_$_CLASS_METHODS_MobilizeUIWebViewURLProtocol
0000130c s l_OBJC_$_INSTANCE_METHODS_MobilizeUIWebViewURLProtocol
00001404 s l_OBJC_$_INSTANCE_VARIABLES_MobilizeUIWebViewURLProtocol
00001488 s l_OBJC_$_PROP_LIST_MobilizeUIWebViewURLProtocol
0000110c s l_OBJC_$_PROTOCOL_INSTANCE_METHODS_NSObject
000011f8 s l_OBJC_$_PROTOCOL_INSTANCE_METHODS_OPT_NSObject
0000126c s l_OBJC_$_PROTOCOL_INSTANCE_METHODS_OPT_NSURLConnectionDelegate
00001210 s l_OBJC_$_PROTOCOL_METHOD_TYPES_NSObject
000012c0 s l_OBJC_$_PROTOCOL_METHOD_TYPES_NSURLConnectionDelegate
00001260 s l_OBJC_$_PROTOCOL_REFS_NSURLConnectionDelegate
000012d8 s l_OBJC_CLASS_PROTOCOLS_$_MobilizeUIWebViewURLProtocol
000014b0 s l_OBJC_CLASS_RO_$_MobilizeUIWebViewURLProtocol
00001530 S l_OBJC_LABEL_PROTOCOL_$_NSObject
00001534 S l_OBJC_LABEL_PROTOCOL_$_NSURLConnectionDelegate
000012e4 s l_OBJC_METACLASS_RO_$_MobilizeUIWebViewURLProtocol
000014d8 S l_OBJC_PROTOCOL_$_NSObject
00001504 S l_OBJC_PROTOCOL_$_NSURLConnectionDelegate

build/AppDeck/AppDeck.a(CacheMonitoringURLProtocol.o) (for architecture armv7):
00000000 t +[CacheMonitoringURLProtocol canInitWithRequest:]
00000044 t +[CacheMonitoringURLProtocol canonicalRequestForRequest:]
00000050 t +[CacheMonitoringURLProtocol getUserId]
000020cc b +[CacheMonitoringURLProtocol getUserId].deviceUuid
0000004c t +[CacheMonitoringURLProtocol requestIsCacheEquivalent:toRequest:]
00000f1c t -[CacheMonitoringURLProtocol .cxx_destruct]
00000d98 t -[CacheMonitoringURLProtocol clean]
00000b88 t -[CacheMonitoringURLProtocol connection:didFailWithError:]
000008c0 t -[CacheMonitoringURLProtocol connection:didReceiveData:]
0000081c t -[CacheMonitoringURLProtocol connection:didReceiveResponse:]
000009a4 t -[CacheMonitoringURLProtocol connection:didSendBodyData:totalBytesWritten:totalBytesExpectedToWrite:]
000009a8 t -[CacheMonitoringURLProtocol connection:willCacheResponse:]
000009b0 t -[CacheMonitoringURLProtocol connection:willSendRequest:redirectResponse:]
00000a20 t -[CacheMonitoringURLProtocol connectionDidFinishLoading:]
00000ee4 t -[CacheMonitoringURLProtocol connection]
00000e3c t -[CacheMonitoringURLProtocol data]
00000118 t -[CacheMonitoringURLProtocol initWithRequest:cachedResponse:client:]
00000e74 t -[CacheMonitoringURLProtocol request]
00000eac t -[CacheMonitoringURLProtocol response]
00000ef4 t -[CacheMonitoringURLProtocol setConnection:]
00000e4c t -[CacheMonitoringURLProtocol setData:]
00000e84 t -[CacheMonitoringURLProtocol setRequest:]
00000ebc t -[CacheMonitoringURLProtocol setResponse:]
0000075c t -[CacheMonitoringURLProtocol startLoading]
000007cc t -[CacheMonitoringURLProtocol stopLoading]
         U _NSClassFromString
         U _NSLog
         U _OBJC_CLASS_$_AppDeck
000019a4 S _OBJC_CLASS_$_CacheMonitoringURLProtocol
         U _OBJC_CLASS_$_NSCachedURLResponse
         U _OBJC_CLASS_$_NSString
         U _OBJC_CLASS_$_NSURL
         U _OBJC_CLASS_$_NSURLConnection
         U _OBJC_CLASS_$_NSURLProtocol
         U _OBJC_CLASS_$_OpenUDID
         U _OBJC_CLASS_$_UIDevice
000019e0 S _OBJC_IVAR_$_CacheMonitoringURLProtocol._connection
000019d4 S _OBJC_IVAR_$_CacheMonitoringURLProtocol._data
000019d8 S _OBJC_IVAR_$_CacheMonitoringURLProtocol._request
000019dc S _OBJC_IVAR_$_CacheMonitoringURLProtocol._response
000019e4 S _OBJC_IVAR_$_CacheMonitoringURLProtocol.expectedContentLength
000019e8 S _OBJC_IVAR_$_CacheMonitoringURLProtocol.receivedContentLength
000019d0 S _OBJC_IVAR_$_CacheMonitoringURLProtocol.shouldCDN
000019cc S _OBJC_IVAR_$_CacheMonitoringURLProtocol.shouldCache
000019b8 S _OBJC_METACLASS_$_CacheMonitoringURLProtocol
         U _OBJC_METACLASS_$_NSObject
         U _OBJC_METACLASS_$_NSURLProtocol
         U ___CFConstantStringClassReference
         U __objc_empty_cache
         U __objc_empty_vtable
         U _objc_autoreleaseReturnValue
         U _objc_msgSend
         U _objc_msgSendSuper2
         U _objc_release
         U _objc_retain
         U _objc_retainAutoreleaseReturnValue
         U _objc_retainAutoreleasedReturnValue
         U _objc_storeStrong
00000f9c s l_.str
00000fb7 s l_.str1
00000fed s l_.str121
00000fcb s l_.str15
00000fcf s l_.str22
00000fdf s l_.str62
00001c38 s l_OBJC_$_CLASS_METHODS_CacheMonitoringURLProtocol
00001e6c s l_OBJC_$_INSTANCE_METHODS_CacheMonitoringURLProtocol
00001f64 s l_OBJC_$_INSTANCE_VARIABLES_CacheMonitoringURLProtocol
00002010 s l_OBJC_$_PROP_LIST_CacheMonitoringURLProtocol
00001c70 s l_OBJC_$_PROTOCOL_INSTANCE_METHODS_NSObject
00001d5c s l_OBJC_$_PROTOCOL_INSTANCE_METHODS_OPT_NSObject
00001dcc s l_OBJC_$_PROTOCOL_INSTANCE_METHODS_OPT_NSURLConnectionDelegate
00001d70 s l_OBJC_$_PROTOCOL_METHOD_TYPES_NSObject
00001e20 s l_OBJC_$_PROTOCOL_METHOD_TYPES_NSURLConnectionDelegate
00001dc0 s l_OBJC_$_PROTOCOL_REFS_NSURLConnectionDelegate
00001e38 s l_OBJC_CLASS_PROTOCOLS_$_CacheMonitoringURLProtocol
00002038 s l_OBJC_CLASS_RO_$_CacheMonitoringURLProtocol
000020b8 S l_OBJC_LABEL_PROTOCOL_$_NSObject
000020bc S l_OBJC_LABEL_PROTOCOL_$_NSURLConnectionDelegate
00001e44 s l_OBJC_METACLASS_RO_$_CacheMonitoringURLProtocol
00002060 S l_OBJC_PROTOCOL_$_NSObject
0000208c S l_OBJC_PROTOCOL_$_NSURLConnectionDelegate

build/AppDeck/AppDeck.a(RemoteAppCache.o) (for architecture armv7):
00000a60 t -[RemoteAppCache .cxx_destruct]
00000110 t -[RemoteAppCache dealloc]
00000168 t -[RemoteAppCache downloadAppCache:]
00000000 t -[RemoteAppCache initWithURL:andTTL:]
00001174 s EH_frame0
00000a94 s GCC_except_table3
         U _NSSearchPathForDirectoriesInDomains
         U _OBJC_CLASS_$_AppDeck
         U _OBJC_CLASS_$_LZMAExtractor
         U _OBJC_CLASS_$_ManagedUIWebViewController
         U _OBJC_CLASS_$_NSCachedURLResponse
         U _OBJC_CLASS_$_NSData
         U _OBJC_CLASS_$_NSFileManager
         U _OBJC_CLASS_$_NSNumber
         U _OBJC_CLASS_$_NSObject
         U _OBJC_CLASS_$_NSString
         U _OBJC_CLASS_$_NSTimer
         U _OBJC_CLASS_$_NSURL
         U _OBJC_CLASS_$_NSURLConnection
         U _OBJC_CLASS_$_NSURLRequest
         U _OBJC_CLASS_$_NSURLResponse
00000ab0 S _OBJC_CLASS_$_RemoteAppCache
         U _OBJC_EHTYPE_$_NSException
00000edc S _OBJC_IVAR_$_RemoteAppCache.backgroundQueue
00000ee0 S _OBJC_IVAR_$_RemoteAppCache.timer
00000ed8 S _OBJC_IVAR_$_RemoteAppCache.ttl
00000ed4 S _OBJC_IVAR_$_RemoteAppCache.url
         U _OBJC_METACLASS_$_NSObject
00000ac4 S _OBJC_METACLASS_$_RemoteAppCache
         U __NSConcreteStackBlock
         U __Unwind_SjLj_Register
         U __Unwind_SjLj_Resume
         U __Unwind_SjLj_Unregister
000001c4 t ___35-[RemoteAppCache downloadAppCache:]_block_invoke
00001190 s ___35-[RemoteAppCache downloadAppCache:]_block_invoke.eh
00000944 t ___35-[RemoteAppCache downloadAppCache:]_block_invoke_2
         U ___CFConstantStringClassReference
00000ff0 s ___block_descriptor_tmp
00001010 s ___block_descriptor_tmp100
00000a20 t ___copy_helper_block_
00000a50 t ___copy_helper_block_97
00000a38 t ___destroy_helper_block_
00000a58 t ___destroy_helper_block_98
         U ___objc_personality_v0
         U ___stack_chk_fail
         U ___stack_chk_guard
         U __dispatch_main_q
         U __objc_empty_cache
         U __objc_empty_vtable
         U _dispatch_async
         U _dispatch_queue_create
         U _objc_begin_catch
         U _objc_end_catch
         U _objc_enumerationMutation
         U _objc_exception_rethrow
         U _objc_msgSend
         U _objc_msgSendSuper2
         U _objc_release
         U _objc_retain
         U _objc_retainAutoreleasedReturnValue
         U _objc_storeStrong
         U _objc_terminate
00000eff s l_.str19
00000f08 s l_.str30
00000f0b s l_.str45
00000f15 s l_.str60
00000f1f s l_.str85
00000f28 s l_.str87
00001050 s l_OBJC_$_INSTANCE_METHODS_RemoteAppCache
00001088 s l_OBJC_$_INSTANCE_VARIABLES_RemoteAppCache
000010e0 s l_OBJC_CLASS_RO_$_RemoteAppCache
00001028 s l_OBJC_METACLASS_RO_$_RemoteAppCache

build/AppDeck/AppDeck.a(EmbedResources.o) (for architecture armv7):
000008d8 t -[EmbedResources .cxx_destruct]
00000880 t -[EmbedResources async]
00000210 t -[EmbedResources cancel]
00000848 t -[EmbedResources connection:didFailWithError:]
00000770 t -[EmbedResources connection:didReceiveData:]
00000750 t -[EmbedResources connection:didReceiveResponse:]
00000790 t -[EmbedResources connectionDidFinishLoading:]
00000254 t -[EmbedResources dealloc]
00000000 t -[EmbedResources initWithURL:shouldOverrideEmbedResource:downloadInBackground:]
00000860 t -[EmbedResources override]
00000890 t -[EmbedResources setAsync:]
00000870 t -[EmbedResources setOverride:]
000008b0 t -[EmbedResources setUrl:]
00000294 t -[EmbedResources syncFromData:]
00000058 t -[EmbedResources sync]
000008a0 t -[EmbedResources url]
         U _NSLog
         U _OBJC_CLASS_$_AppDeck
00000f40 S _OBJC_CLASS_$_EmbedResources
         U _OBJC_CLASS_$_ManagedUIWebViewController
         U _OBJC_CLASS_$_NSCachedURLResponse
         U _OBJC_CLASS_$_NSCharacterSet
         U _OBJC_CLASS_$_NSMutableData
         U _OBJC_CLASS_$_NSMutableURLRequest
         U _OBJC_CLASS_$_NSObject
         U _OBJC_CLASS_$_NSString
         U _OBJC_CLASS_$_NSURL
         U _OBJC_CLASS_$_NSURLConnection
         U _OBJC_CLASS_$_NSURLProtocol
00000934 S _OBJC_IVAR_$_EmbedResources._async
00000930 S _OBJC_IVAR_$_EmbedResources._override
00000938 S _OBJC_IVAR_$_EmbedResources._url
0000092c S _OBJC_IVAR_$_EmbedResources.backgroundQueue
00000920 S _OBJC_IVAR_$_EmbedResources.cancel
00000924 S _OBJC_IVAR_$_EmbedResources.conn
00000928 S _OBJC_IVAR_$_EmbedResources.receivedData
00000f54 S _OBJC_METACLASS_$_EmbedResources
         U _OBJC_METACLASS_$_NSObject
         U __NSConcreteStackBlock
00000818 t ___45-[EmbedResources connectionDidFinishLoading:]_block_invoke
         U ___CFConstantStringClassReference
00001090 s ___block_descriptor_tmp
00000838 t ___copy_helper_block_
00000840 t ___destroy_helper_block_
         U ___stack_chk_fail
         U ___stack_chk_guard
         U __objc_empty_cache
         U __objc_empty_vtable
         U _dispatch_async
         U _dispatch_queue_create
         U _objc_enumerationMutation
         U _objc_msgSend
         U _objc_msgSendSuper2
         U _objc_release
         U _objc_retain
         U _objc_retainAutorelease
         U _objc_retainAutoreleasedReturnValue
         U _objc_storeStrong
00000f6c s l_.str
00000f70 s l_.str56
00000f8b s l_.str70
00001484 s l_OBJC_$_INSTANCE_METHODS_EmbedResources
0000154c s l_OBJC_$_INSTANCE_VARIABLES_EmbedResources
000015e0 s l_OBJC_$_PROP_LIST_EmbedResources
00001288 s l_OBJC_$_PROTOCOL_INSTANCE_METHODS_NSObject
00001374 s l_OBJC_$_PROTOCOL_INSTANCE_METHODS_OPT_NSObject
000013e4 s l_OBJC_$_PROTOCOL_INSTANCE_METHODS_OPT_NSURLConnectionDelegate
00001388 s l_OBJC_$_PROTOCOL_METHOD_TYPES_NSObject
00001438 s l_OBJC_$_PROTOCOL_METHOD_TYPES_NSURLConnectionDelegate
000013d8 s l_OBJC_$_PROTOCOL_REFS_NSURLConnectionDelegate
00001450 s l_OBJC_CLASS_PROTOCOLS_$_EmbedResources
00001600 s l_OBJC_CLASS_RO_$_EmbedResources
00001680 S l_OBJC_LABEL_PROTOCOL_$_NSObject
00001684 S l_OBJC_LABEL_PROTOCOL_$_NSURLConnectionDelegate
0000145c s l_OBJC_METACLASS_RO_$_EmbedResources
00001628 S l_OBJC_PROTOCOL_$_NSObject
00001654 S l_OBJC_PROTOCOL_$_NSURLConnectionDelegate

build/AppDeck/AppDeck.a(LoaderURLProtocol.o) (for architecture armv7):
00000000 t +[LoaderURLProtocol canInitWithRequest:]
0000006c t +[LoaderURLProtocol canonicalRequestForRequest:]
00000074 t +[LoaderURLProtocol requestIsCacheEquivalent:toRequest:]
000004a0 t -[LoaderURLProtocol .cxx_destruct]
00000078 t -[LoaderURLProtocol initWithRequest:cachedResponse:client:]
00000468 t -[LoaderURLProtocol request]
00000478 t -[LoaderURLProtocol setRequest:]
000000f0 t -[LoaderURLProtocol startLoading]
00000464 t -[LoaderURLProtocol stopLoading]
         U _OBJC_CLASS_$_AppDeck
000007a8 S _OBJC_CLASS_$_LoaderURLProtocol
         U _OBJC_CLASS_$_NSData
         U _OBJC_CLASS_$_NSString
         U _OBJC_CLASS_$_NSURLProtocol
         U _OBJC_CLASS_$_NSURLResponse
00000818 S _OBJC_IVAR_$_LoaderURLProtocol._request
000007bc S _OBJC_METACLASS_$_LoaderURLProtocol
         U _OBJC_METACLASS_$_NSObject
         U _OBJC_METACLASS_$_NSURLProtocol
         U __NSConcreteStackBlock
000002bc t ___33-[LoaderURLProtocol startLoading]_block_invoke
         U ___CFConstantStringClassReference
00000800 s ___block_descriptor_tmp
00000454 t ___copy_helper_block_
0000045c t ___destroy_helper_block_
         U __dispatch_main_q
         U __objc_empty_cache
         U __objc_empty_vtable
         U _dispatch_async
         U _objc_msgSend
         U _objc_msgSendSuper2
         U _objc_release
         U _objc_retain
         U _objc_retainAutoreleaseReturnValue
         U _objc_retainAutoreleasedReturnValue
         U _objc_storeStrong
00000708 s l_.str
00000710 s l_.str13
0000071b s l_.str35
0000071f s l_.str39
00000725 s l_.str41
00000878 s l_OBJC_$_CLASS_METHODS_LoaderURLProtocol
000008cc s l_OBJC_$_INSTANCE_METHODS_LoaderURLProtocol
0000091c s l_OBJC_$_INSTANCE_VARIABLES_LoaderURLProtocol
00000938 s l_OBJC_$_PROP_LIST_LoaderURLProtocol
00000948 s l_OBJC_CLASS_RO_$_LoaderURLProtocol
000008a4 s l_OBJC_METACLASS_RO_$_LoaderURLProtocol

build/AppDeck/AppDeck.a(ECSlidingViewController.o) (for architecture armv7):
00001d50 t -[ECSlidingViewController addTopViewSnapshot]
00000b04 t -[ECSlidingViewController adjustLayout]
00002a90 t -[ECSlidingViewController anchorLeftPeekAmount]
00002ad0 t -[ECSlidingViewController anchorLeftRevealAmount]
00002018 t -[ECSlidingViewController anchorLeftTopViewCenter]
00002ab0 t -[ECSlidingViewController anchorRightPeekAmount]
00002af0 t -[ECSlidingViewController anchorRightRevealAmount]
00001f28 t -[ECSlidingViewController anchorRightTopViewCenter]
000013b8 t -[ECSlidingViewController anchorTopViewOffScreenTo:]
000013d8 t -[ECSlidingViewController anchorTopViewOffScreenTo:animations:onComplete:]
0000108c t -[ECSlidingViewController anchorTopViewTo:]
000010ac t -[ECSlidingViewController anchorTopViewTo:animations:onComplete:]
00001984 t -[ECSlidingViewController autoResizeToFillScreen]
000009a8 t -[ECSlidingViewController didRotateFromInterfaceOrientation:]
00002bf4 t -[ECSlidingViewController initialHoizontalCenter]
00002bd4 t -[ECSlidingViewController initialTouchPositionX]
0000107c t -[ECSlidingViewController panGesture]
00001edc t -[ECSlidingViewController removeTopViewSnapshot]
00002b90 t -[ECSlidingViewController resetStrategy]
00002c38 t -[ECSlidingViewController resetTapGesture]
000017c0 t -[ECSlidingViewController resetTopViewWithAnimations:onComplete:]
000016fc t -[ECSlidingViewController resetTopView]
00002118 t -[ECSlidingViewController resettedCenter]
00002aa0 t -[ECSlidingViewController setAnchorLeftPeekAmount:]
00002ae0 t -[ECSlidingViewController setAnchorLeftRevealAmount:]
00002ac0 t -[ECSlidingViewController setAnchorRightPeekAmount:]
00002b00 t -[ECSlidingViewController setAnchorRightRevealAmount:]
00002c04 t -[ECSlidingViewController setInitialHoizontalCenter:]
00002be4 t -[ECSlidingViewController setInitialTouchPositionX:]
00002c14 t -[ECSlidingViewController setPanGesture:]
00000ab8 t -[ECSlidingViewController setResetStrategy:]
00002c48 t -[ECSlidingViewController setResetTapGesture:]
00002b80 t -[ECSlidingViewController setShouldAddPanGestureRecognizerToTopViewSnapshot:]
00002b40 t -[ECSlidingViewController setShouldAllowPanningPastAnchor:]
00002b60 t -[ECSlidingViewController setShouldAllowUserInteractionsWhenAnchored:]
00000078 t -[ECSlidingViewController setTopViewController:]
00002cbc t -[ECSlidingViewController setTopViewIsOffScreen:]
00002bb0 t -[ECSlidingViewController setTopViewSnapshot:]
00002cdc t -[ECSlidingViewController setTopViewSnapshotPanGesture:]
00002c7c t -[ECSlidingViewController setUnderLeftShowing:]
000002d8 t -[ECSlidingViewController setUnderLeftViewController:]
00000458 t -[ECSlidingViewController setUnderLeftWidthLayout:]
00002c9c t -[ECSlidingViewController setUnderRightShowing:]
00000398 t -[ECSlidingViewController setUnderRightViewController:]
00000518 t -[ECSlidingViewController setUnderRightWidthLayout:]
00002b70 t -[ECSlidingViewController shouldAddPanGestureRecognizerToTopViewSnapshot]
00002b30 t -[ECSlidingViewController shouldAllowPanningPastAnchor]
00002b50 t -[ECSlidingViewController shouldAllowUserInteractionsWhenAnchored]
00002420 t -[ECSlidingViewController topDidReset]
00002a80 t -[ECSlidingViewController topViewController]
000025a4 t -[ECSlidingViewController topViewHasFocus]
00001d0c t -[ECSlidingViewController topViewHorizontalCenterDidChange:]
00001a80 t -[ECSlidingViewController topViewHorizontalCenterWillChange:]
00002cac t -[ECSlidingViewController topViewIsOffScreen]
00002ccc t -[ECSlidingViewController topViewSnapshotPanGesture]
00002ba0 t -[ECSlidingViewController topViewSnapshot]
00001988 t -[ECSlidingViewController topView]
00002c6c t -[ECSlidingViewController underLeftShowing]
00002a60 t -[ECSlidingViewController underLeftViewController]
000019b0 t -[ECSlidingViewController underLeftView]
00002b20 t -[ECSlidingViewController underLeftWidthLayout]
00002168 t -[ECSlidingViewController underLeftWillAppear]
00002c8c t -[ECSlidingViewController underRightShowing]
00002a70 t -[ECSlidingViewController underRightViewController]
000019d8 t -[ECSlidingViewController underRightView]
00002b10 t -[ECSlidingViewController underRightWidthLayout]
000022c4 t -[ECSlidingViewController underRightWillAppear]
00001a00 t -[ECSlidingViewController updateTopViewHorizontalCenter:]
00000d34 t -[ECSlidingViewController updateTopViewHorizontalCenterWithRecognizer:]
000025e0 t -[ECSlidingViewController updateUnderLeftLayout]
000027f4 t -[ECSlidingViewController updateUnderRightLayout]
000005d8 t -[ECSlidingViewController viewDidLoad]
000007e4 t -[ECSlidingViewController viewWillAppear:]
00000908 t -[ECSlidingViewController willAnimateRotationToInterfaceOrientation:duration:]
00000000 t -[UIViewController(SlidingViewExtension) slidingViewController]
         U _CGSizeZero
00003520 S _ECSlidingViewTopDidAnchorLeft
00003524 S _ECSlidingViewTopDidAnchorRight
0000352c S _ECSlidingViewTopDidReset
00003528 S _ECSlidingViewTopWillReset
00003514 S _ECSlidingViewUnderLeftWillAppear
00003518 S _ECSlidingViewUnderLeftWillDisappear
00003510 S _ECSlidingViewUnderRightWillAppear
0000351c S _ECSlidingViewUnderRightWillDisappear
0000432c S _OBJC_CLASS_$_ECSlidingViewController
         U _OBJC_CLASS_$_NSException
         U _OBJC_CLASS_$_NSNotificationCenter
         U _OBJC_CLASS_$_UIBezierPath
         U _OBJC_CLASS_$_UIImage
         U _OBJC_CLASS_$_UIPanGestureRecognizer
         U _OBJC_CLASS_$_UITapGestureRecognizer
         U _OBJC_CLASS_$_UIView
         U _OBJC_CLASS_$_UIViewController
00004b44 S _OBJC_IVAR_$_ECSlidingViewController._panGesture
00004b48 S _OBJC_IVAR_$_ECSlidingViewController._resetStrategy
00004b30 S _OBJC_IVAR_$_ECSlidingViewController._topViewController
00004b4c S _OBJC_IVAR_$_ECSlidingViewController._topViewIsOffScreen
00004b54 S _OBJC_IVAR_$_ECSlidingViewController._topViewSnapshotPanGesture
00004b58 S _OBJC_IVAR_$_ECSlidingViewController._underLeftShowing
00004b34 S _OBJC_IVAR_$_ECSlidingViewController._underLeftViewController
00004b3c S _OBJC_IVAR_$_ECSlidingViewController._underLeftWidthLayout
00004b5c S _OBJC_IVAR_$_ECSlidingViewController._underRightShowing
00004b38 S _OBJC_IVAR_$_ECSlidingViewController._underRightViewController
00004b40 S _OBJC_IVAR_$_ECSlidingViewController._underRightWidthLayout
00004b60 S _OBJC_IVAR_$_ECSlidingViewController.anchorLeftPeekAmount
00004b68 S _OBJC_IVAR_$_ECSlidingViewController.anchorLeftRevealAmount
00004b64 S _OBJC_IVAR_$_ECSlidingViewController.anchorRightPeekAmount
00004b6c S _OBJC_IVAR_$_ECSlidingViewController.anchorRightRevealAmount
00004b80 S _OBJC_IVAR_$_ECSlidingViewController.initialHoizontalCenter
00004b7c S _OBJC_IVAR_$_ECSlidingViewController.initialTouchPositionX
00004b84 S _OBJC_IVAR_$_ECSlidingViewController.resetTapGesture
00004b78 S _OBJC_IVAR_$_ECSlidingViewController.shouldAddPanGestureRecognizerToTopViewSnapshot
00004b70 S _OBJC_IVAR_$_ECSlidingViewController.shouldAllowPanningPastAnchor
00004b74 S _OBJC_IVAR_$_ECSlidingViewController.shouldAllowUserInteractionsWhenAnchored
00004b88 S _OBJC_IVAR_$_ECSlidingViewController.startTouchPosition
00004b8c S _OBJC_IVAR_$_ECSlidingViewController.topViewHasFocus
00004b50 S _OBJC_IVAR_$_ECSlidingViewController.topViewSnapshot
00004340 S _OBJC_METACLASS_$_ECSlidingViewController
         U _OBJC_METACLASS_$_NSObject
         U _OBJC_METACLASS_$_UIViewController
         U __Block_object_assign
         U __Block_object_dispose
         U __NSConcreteStackBlock
00002548 t ___38-[ECSlidingViewController topDidReset]_block_invoke
00001764 t ___39-[ECSlidingViewController resetTopView]_block_invoke
00002268 t ___46-[ECSlidingViewController underLeftWillAppear]_block_invoke
000023c4 t ___47-[ECSlidingViewController underRightWillAppear]_block_invoke
00001c54 t ___61-[ECSlidingViewController topViewHorizontalCenterWillChange:]_block_invoke
00001cb0 t ___61-[ECSlidingViewController topViewHorizontalCenterWillChange:]_block_invoke222
000011e0 t ___65-[ECSlidingViewController anchorTopViewTo:animations:onComplete:]_block_invoke
0000124c t ___65-[ECSlidingViewController anchorTopViewTo:animations:onComplete:]_block_invoke176
00001308 t ___65-[ECSlidingViewController anchorTopViewTo:animations:onComplete:]_block_invoke_2
0000188c t ___65-[ECSlidingViewController resetTopViewWithAnimations:onComplete:]_block_invoke
00001908 t ___65-[ECSlidingViewController resetTopViewWithAnimations:onComplete:]_block_invoke213
0000155c t ___74-[ECSlidingViewController anchorTopViewOffScreenTo:animations:onComplete:]_block_invoke
000015c8 t ___74-[ECSlidingViewController anchorTopViewOffScreenTo:animations:onComplete:]_block_invoke198
0000164c t ___74-[ECSlidingViewController anchorTopViewOffScreenTo:animations:onComplete:]_block_invoke_2
         U ___CFConstantStringClassReference
00003530 s ___block_descriptor_tmp
00003550 s ___block_descriptor_tmp186
00003570 s ___block_descriptor_tmp190
00003590 s ___block_descriptor_tmp197
000035b0 s ___block_descriptor_tmp201
000035d0 s ___block_descriptor_tmp204
000035f0 s ___block_descriptor_tmp207
00003610 s ___block_descriptor_tmp212
00003630 s ___block_descriptor_tmp216
00003650 s ___block_descriptor_tmp221
00003670 s ___block_descriptor_tmp225
00003690 s ___block_descriptor_tmp247
000036b0 s ___block_descriptor_tmp256
000036d0 s ___block_descriptor_tmp259
0000120c t ___copy_helper_block_
00001364 t ___copy_helper_block_184
00001378 t ___copy_helper_block_187
00001588 t ___copy_helper_block_195
000016a8 t ___copy_helper_block_199
000016bc t ___copy_helper_block_202
000017ac t ___copy_helper_block_205
000018c8 t ___copy_helper_block_210
00001944 t ___copy_helper_block_214
00001c9c t ___copy_helper_block_219
00001cf8 t ___copy_helper_block_223
000022b0 t ___copy_helper_block_245
0000240c t ___copy_helper_block_254
00002590 t ___copy_helper_block_257
00001230 t ___destroy_helper_block_
00001370 t ___destroy_helper_block_185
0000139c t ___destroy_helper_block_188
000015ac t ___destroy_helper_block_196
000016b4 t ___destroy_helper_block_200
000016e0 t ___destroy_helper_block_203
000017b8 t ___destroy_helper_block_206
000018ec t ___destroy_helper_block_211
00001968 t ___destroy_helper_block_215
00001ca8 t ___destroy_helper_block_220
00001d04 t ___destroy_helper_block_224
000022bc t ___destroy_helper_block_246
00002418 t ___destroy_helper_block_255
0000259c t ___destroy_helper_block_258
         U __dispatch_main_q
         U __objc_empty_cache
         U __objc_empty_vtable
         U _dispatch_async
         U _objc_msgSend
         U _objc_msgSendSuper2
         U _objc_msgSend_stret
         U _objc_setProperty
00002d00 s l_.str
00002d22 s l_.str1
00002dc9 s l_.str11
00002de3 s l_.str13
00002ea9 s l_.str264
00002ee0 s l_.str268
00002d43 s l_.str3
00002d67 s l_.str5
00002d8c s l_.str7
00002dfc s l_.str70
00002e11 s l_.str72
00002e33 s l_.str78
00002e57 s l_.str82
00002e78 s l_.str86
00002daa s l_.str9
00004490 s l_OBJC_$_CATEGORY_INSTANCE_METHODS_UIViewController_$_SlidingViewExtension
000044a4 s l_OBJC_$_CATEGORY_UIViewController_$_SlidingViewExtension
000044e4 s l_OBJC_$_INSTANCE_METHODS_ECSlidingViewController
00004864 s l_OBJC_$_INSTANCE_VARIABLES_ECSlidingViewController
00004a50 s l_OBJC_$_PROP_LIST_ECSlidingViewController
00004b08 s l_OBJC_CLASS_RO_$_ECSlidingViewController
000044bc s l_OBJC_METACLASS_RO_$_ECSlidingViewController

build/AppDeck/AppDeck.a(UIImage+ImageWithUIView.o) (for architecture armv7):
00000000 t +[UIImage(ImageWithUIView) imageWithUIView:]
         U _OBJC_CLASS_$_UIImage
         U _UIGraphicsBeginImageContext
         U _UIGraphicsEndImageContext
         U _UIGraphicsGetCurrentContext
         U _UIGraphicsGetImageFromCurrentImageContext
         U _objc_msgSend
         U _objc_msgSend_stret
000000d0 s l_OBJC_$_CATEGORY_CLASS_METHODS_UIImage_$_ImageWithUIView
000000e4 s l_OBJC_$_CATEGORY_UIImage_$_ImageWithUIView

build/AppDeck/AppDeck.a(arena.o) (for architecture armv7):
000007a8 s EH_frame0
000005d8 s GCC_except_table3
         U __Unwind_SjLj_Register
         U __Unwind_SjLj_Resume
         U __Unwind_SjLj_Unregister
000001e0 T __ZN3re211UnsafeArena10FreeBlocksEv
00000254 T __ZN3re211UnsafeArena13AllocNewBlockEm
000002b4 T __ZN3re211UnsafeArena17GetMemoryFallbackEmi
00000074 T __ZN3re211UnsafeArena5ResetEv
00000000 T __ZN3re211UnsafeArenaC1Em
00000010 T __ZN3re211UnsafeArenaC2Em
000000cc T __ZN3re211UnsafeArenaD0Ev
000007c4 S __ZN3re211UnsafeArenaD0Ev.eh
0000016c T __ZN3re211UnsafeArenaD1Ev
0000017c T __ZN3re211UnsafeArenaD2Ev
0000057c S __ZNSt12_Vector_baseIN3re211UnsafeArena14AllocatedBlockESaIS2_EE11_M_allocateEm
00000594 S __ZNSt15__copy_backwardILb0ESt26random_access_iterator_tagE8__copy_bIPN3re211UnsafeArena14AllocatedBlockES6_EET0_T_S8_S7_
000003c0 S __ZNSt6vectorIN3re211UnsafeArena14AllocatedBlockESaIS2_EE14_M_fill_insertEN9__gnu_cxx17__normal_iteratorIPS2_S4_EEmRKS2_
00000398 S __ZNSt6vectorIN3re211UnsafeArena14AllocatedBlockESaIS2_EE6resizeEmS2_
         U __ZSt17__throw_bad_allocv
         U __ZSt20__throw_length_errorPKc
000005f0 S __ZTIN3re211UnsafeArenaE
00000790 S __ZTSN3re211UnsafeArenaE
         U __ZTVN10__cxxabiv117__class_type_infoE
000005e0 S __ZTVN3re211UnsafeArenaE
         U __ZdlPv
         U __Znwm
         U ___assert_rtn
         U ___gxx_personality_sj0
         U _free
         U _malloc

build/AppDeck/AppDeck.a(hash.o) (for architecture armv7):
00000000 T __ZN3re28hashwordEPKjmj
000000c8 T __ZN3re29hashword2EPKjmPjS2_

build/AppDeck/AppDeck.a(pcre.o) (for architecture armv7):
00002cf4 s EH_frame0
000028b8 s GCC_except_table1
00002960 s GCC_except_table10
00002970 s GCC_except_table12
00002980 s GCC_except_table14
00002990 s GCC_except_table16
000028d0 s GCC_except_table2
000029a0 s GCC_except_table22
000029ac s GCC_except_table23
000029c0 s GCC_except_table24
000029e0 s GCC_except_table25
000029f8 s GCC_except_table28
000028f0 s GCC_except_table3
00002900 s GCC_except_table4
00002910 s GCC_except_table5
00002920 s GCC_except_table6
00002930 s GCC_except_table7
00002940 s GCC_except_table8
00002a10 s GCC_except_table83
00002a18 s GCC_except_table84
00002a28 s GCC_except_table89
00002950 s GCC_except_table9
         U __DefaultRuneLocale
00002860 s __GLOBAL__I_a
         U __Unwind_SjLj_Register
         U __Unwind_SjLj_Resume
         U __Unwind_SjLj_Unregister
000024bc S __ZN10LogMessage5FlushEv
00002ec0 S __ZN10LogMessage5FlushEv.eh
00002738 S __ZN10LogMessageC2EPKci
00002ef0 S __ZN10LogMessageC2EPKci.eh
00002604 S __ZN10LogMessageD2Ev
00002ed8 S __ZN10LogMessageD2Ev.eh
         U __ZN3re213SStringPrintfEPSsPKcz
00002a44 D __ZN3re224FLAGS_regexp_match_limitE
00002a40 D __ZN3re224FLAGS_regexp_stack_limitE
00002a48 S __ZN3re24PCRE12PartialMatchE
00002f08 S __ZN3re24PCRE12no_more_argsE
00001c84 T __ZN3re24PCRE13ClearHitLimitEv
000017b4 T __ZN3re24PCRE13GlobalReplaceEPSsRKS0_RKNS_11StringPieceE
00002e90 S __ZN3re24PCRE13GlobalReplaceEPSsRKS0_RKNS_11StringPieceE.eh
00002a4b S __ZN3re24PCRE14FindAndConsumeE
00001e0c T __ZN3re24PCRE3Arg10parse_charEPKciPv
000023fc T __ZN3re24PCRE3Arg10parse_longEPKciPv
00001ddc T __ZN3re24PCRE3Arg10parse_nullEPKciPv
0000235c T __ZN3re24PCRE3Arg10parse_uintEPKciPv
00002224 T __ZN3re24PCRE3Arg11parse_floatEPKciPv
0000225c T __ZN3re24PCRE3Arg11parse_shortEPKciPv
00001e24 T __ZN3re24PCRE3Arg11parse_ucharEPKciPv
0000242c T __ZN3re24PCRE3Arg11parse_ulongEPKciPv
0000219c T __ZN3re24PCRE3Arg12parse_doubleEPKciPv
00001de8 T __ZN3re24PCRE3Arg12parse_stringEPKciPv
0000228c T __ZN3re24PCRE3Arg12parse_ushortEPKciPv
000022e4 T __ZN3re24PCRE3Arg13parse_int_hexEPKciPv
00002408 T __ZN3re24PCRE3Arg14parse_long_hexEPKciPv
0000245c T __ZN3re24PCRE3Arg14parse_longlongEPKciPv
00002384 T __ZN3re24PCRE3Arg14parse_uint_hexEPKciPv
0000230c T __ZN3re24PCRE3Arg15parse_int_octalEPKciPv
00002044 T __ZN3re24PCRE3Arg15parse_int_radixEPKciPvi
00002268 T __ZN3re24PCRE3Arg15parse_short_hexEPKciPv
00002438 T __ZN3re24PCRE3Arg15parse_ulong_hexEPKciPv
0000248c T __ZN3re24PCRE3Arg15parse_ulonglongEPKciPv
00002334 T __ZN3re24PCRE3Arg16parse_int_cradixEPKciPv
00002414 T __ZN3re24PCRE3Arg16parse_long_octalEPKciPv
00001e3c T __ZN3re24PCRE3Arg16parse_long_radixEPKciPvi
000023ac T __ZN3re24PCRE3Arg16parse_uint_octalEPKciPv
0000206c T __ZN3re24PCRE3Arg16parse_uint_radixEPKciPvi
00002298 T __ZN3re24PCRE3Arg16parse_ushort_hexEPKciPv
00002420 T __ZN3re24PCRE3Arg17parse_long_cradixEPKciPv
00002274 T __ZN3re24PCRE3Arg17parse_short_octalEPKciPv
00001fe4 T __ZN3re24PCRE3Arg17parse_short_radixEPKciPvi
00001e00 T __ZN3re24PCRE3Arg17parse_stringpieceEPKciPv
000023d4 T __ZN3re24PCRE3Arg17parse_uint_cradixEPKciPv
00002444 T __ZN3re24PCRE3Arg17parse_ulong_octalEPKciPv
00001f5c T __ZN3re24PCRE3Arg17parse_ulong_radixEPKciPvi
00002468 T __ZN3re24PCRE3Arg18parse_longlong_hexEPKciPv
00002280 T __ZN3re24PCRE3Arg18parse_short_cradixEPKciPv
00002450 T __ZN3re24PCRE3Arg18parse_ulong_cradixEPKciPv
000022a4 T __ZN3re24PCRE3Arg18parse_ushort_octalEPKciPv
00002014 T __ZN3re24PCRE3Arg18parse_ushort_radixEPKciPvi
00002498 T __ZN3re24PCRE3Arg19parse_ulonglong_hexEPKciPv
000022b0 T __ZN3re24PCRE3Arg19parse_ushort_cradixEPKciPv
00002474 T __ZN3re24PCRE3Arg20parse_longlong_octalEPKciPv
00002094 T __ZN3re24PCRE3Arg20parse_longlong_radixEPKciPvi
00002480 T __ZN3re24PCRE3Arg21parse_longlong_cradixEPKciPv
000024a4 T __ZN3re24PCRE3Arg21parse_ulonglong_octalEPKciPv
00002114 T __ZN3re24PCRE3Arg21parse_ulonglong_radixEPKciPvi
000024b0 T __ZN3re24PCRE3Arg22parse_ulonglong_cradixEPKciPv
000022bc T __ZN3re24PCRE3Arg9parse_intEPKciPv
00000000 T __ZN3re24PCRE4InitEPKcNS0_6OptionEiib
00002d10 S __ZN3re24PCRE4InitEPKcNS0_6OptionEiib.eh
000001c0 T __ZN3re24PCRE7CompileENS0_6AnchorE
00002d28 S __ZN3re24PCRE7CompileENS0_6AnchorE.eh
00002a4a S __ZN3re24PCRE7ConsumeE
00001aa8 T __ZN3re24PCRE7ExtractERKNS_11StringPieceERKS0_S3_PSs
000011f4 T __ZN3re24PCRE7ReplaceEPSsRKS0_RKNS_11StringPieceE
00002e48 S __ZN3re24PCRE7ReplaceEPSsRKS0_RKNS_11StringPieceE.eh
00001c78 T __ZN3re24PCRE8HitLimitEv
00002a49 S __ZN3re24PCRE9FullMatchE
00001b28 T __ZN3re24PCRE9QuoteMetaERKNS_11StringPieceE
00002ea8 S __ZN3re24PCRE9QuoteMetaERKNS_11StringPieceE.eh
00000408 T __ZN3re24PCREC1EPKc
00002d40 S __ZN3re24PCREC1EPKc.eh
000005a0 T __ZN3re24PCREC1EPKcNS0_6OptionE
00002d70 S __ZN3re24PCREC1EPKcNS0_6OptionE.eh
00000b5c T __ZN3re24PCREC1EPKcRKNS_12PCRE_OptionsE
00000740 T __ZN3re24PCREC1ERKSs
00002da0 S __ZN3re24PCREC1ERKSs.eh
000008d8 T __ZN3re24PCREC1ERKSsNS0_6OptionE
00002dd0 S __ZN3re24PCREC1ERKSsNS0_6OptionE.eh
00000a78 T __ZN3re24PCREC1ERKSsRKNS_12PCRE_OptionsE
000004d4 T __ZN3re24PCREC2EPKc
00002d58 S __ZN3re24PCREC2EPKc.eh
00000670 T __ZN3re24PCREC2EPKcNS0_6OptionE
00002d88 S __ZN3re24PCREC2EPKcNS0_6OptionE.eh
00000b6c T __ZN3re24PCREC2EPKcRKNS_12PCRE_OptionsE
00002e18 S __ZN3re24PCREC2EPKcRKNS_12PCRE_OptionsE.eh
0000080c T __ZN3re24PCREC2ERKSs
00002db8 S __ZN3re24PCREC2ERKSs.eh
000009a8 T __ZN3re24PCREC2ERKSsNS0_6OptionE
00002de8 S __ZN3re24PCREC2ERKSsNS0_6OptionE.eh
00000a88 T __ZN3re24PCREC2ERKSsRKNS_12PCRE_OptionsE
00002e00 S __ZN3re24PCREC2ERKSsRKNS_12PCRE_OptionsE.eh
00000c40 T __ZN3re24PCRED1Ev
00000c50 T __ZN3re24PCRED2Ev
00002e30 S __ZN3re24PCRED2Ev.eh
00002f10 b __ZN3re2L12empty_stringE
00001ebc t __ZN3re2L15TerminateNumberEPcPKci
00000e18 T __ZNK3re24PCRE11DoMatchImplERKNS_11StringPieceENS0_6AnchorEPiPKPKNS0_3ArgEiS5_i
00000fec T __ZNK3re24PCRE14ConsumeFunctorclEPNS_11StringPieceERKS0_RKNS0_3ArgES8_S8_S8_S8_S8_S8_S8_S8_S8_S8_S8_S8_S8_S8_S8_
00000d30 T __ZNK3re24PCRE16FullMatchFunctorclERKNS_11StringPieceERKS0_RKNS0_3ArgES9_S9_S9_S9_S9_S9_S9_S9_S9_S9_S9_S9_S9_S9_S9_
00001d2c T __ZNK3re24PCRE18CheckRewriteStringERKNS_11StringPieceEPSs
00000f04 T __ZNK3re24PCRE19PartialMatchFunctorclERKNS_11StringPieceERKS0_RKNS0_3ArgES9_S9_S9_S9_S9_S9_S9_S9_S9_S9_S9_S9_S9_S9_S9_
000010f0 T __ZNK3re24PCRE21FindAndConsumeFunctorclEPNS_11StringPieceERKS0_RKNS0_3ArgES8_S8_S8_S8_S8_S8_S8_S8_S8_S8_S8_S8_S8_S8_S8_
00001c8c T __ZNK3re24PCRE23NumberOfCapturingGroupsEv
00001c9c T __ZNK3re24PCRE7DoMatchERKNS_11StringPieceENS0_6AnchorEPiPKPKNS0_3ArgEi
00001530 T __ZNK3re24PCRE7RewriteEPSsRKNS_11StringPieceES4_Pii
00002e78 S __ZNK3re24PCRE7RewriteEPSsRKNS_11StringPieceES4_Pii.eh
00001418 T __ZNK3re24PCRE8TryMatchERKNS_11StringPieceEiNS0_6AnchorEbPii
00002e60 S __ZNK3re24PCRE8TryMatchERKNS_11StringPieceEiNS0_6AnchorEbPii.eh
         U __ZNKSt15basic_stringbufIcSt11char_traitsIcESaIcEE3strEv
         U __ZNSolsEi
         U __ZNSs12_M_leak_hardEv
000026c4 S __ZNSs12_S_constructIPcEES0_T_S1_RKSaIcESt20forward_iterator_tag
         U __ZNSs4_Rep10_M_destroyERKSaIcE
         U __ZNSs4_Rep11_S_terminalE
         U __ZNSs4_Rep20_S_empty_rep_storageE
         U __ZNSs4_Rep9_S_createEmmRKSaIcE
         U __ZNSs4swapERSs
         U __ZNSs6appendEPKcm
         U __ZNSs6appendERKSs
         U __ZNSs6appendERKSsmm
         U __ZNSs6assignEPKcm
         U __ZNSs7replaceEmmPKcm
         U __ZNSs7reserveEm
         U __ZNSs9_M_mutateEmmm
         U __ZNSs9push_backEc
         U __ZNSsC1EPKcRKSaIcE
         U __ZNSsD1Ev
         U __ZNSsD2Ev
         U __ZNSt19basic_ostringstreamIcSt11char_traitsIcESaIcEEC1ESt13_Ios_Openmode
         U __ZNSt19basic_ostringstreamIcSt11char_traitsIcESaIcEED1Ev
         U __ZNSt9basic_iosIcSt11char_traitsIcEE5clearESt12_Ios_Iostate
         U __ZSt16__ostream_insertIcSt11char_traitsIcEERSt13basic_ostreamIT_T0_ES6_PKS3_i
         U __ZSt19__throw_logic_errorPKc
         U __ZSt9terminatev
         U __ZdaPv
         U __ZdlPv
         U __Znam
         U __Znwm
         U ___assert_rtn
         U ___cxa_atexit
         U ___dso_handle
         U ___error
         U ___gxx_personality_sj0
         U ___maskrune
         U ___stack_chk_fail
         U ___stack_chk_guard
         U _memcpy
         U _strlen
         U _strtod
         U _strtol
         U _strtoll
         U _strtoul
         U _strtoull
         U _write

build/AppDeck/AppDeck.a(random.o) (for architecture armv7):
00000000 T __ZN3re29ACMRandom4NextEv
00000048 T __ZN3re29ACMRandom7UniformEi
         U ___modsi3

build/AppDeck/AppDeck.a(rune.o) (for architecture armv7):
00000000 T __ZN3re210chartoruneEPiPKc
000000a4 T __ZN3re210runetocharEPcPKi
00000180 T __ZN3re26utflenEPKc
0000011c T __ZN3re27runelenEi
000001b4 T __ZN3re27utfruneEPKci
0000014c T __ZN3re28fullruneEPKci
         U ___stack_chk_fail
         U ___stack_chk_guard
         U _strchr

build/AppDeck/AppDeck.a(stringpiece.o) (for architecture armv7):
000004a4 S __ZN3re211StringPiece4nposE
00000018 T __ZN3re211StringPiece6_equalERKS0_S2_
00000060 T __ZNK3re211StringPiece12CopyToStringEPSs
00000070 T __ZNK3re211StringPiece4copyEPcmm
00000094 T __ZNK3re211StringPiece4findERKS0_m
000000d4 T __ZNK3re211StringPiece4findEcm
0000010c T __ZNK3re211StringPiece5rfindERKS0_m
00000164 T __ZNK3re211StringPiece5rfindEcm
0000019c T __ZNK3re211StringPiece6substrEmm
         U __ZNSo5writeEPKci
         U __ZNSs6assignEPKcm
00000228 S __ZSt10__find_endIPKcS1_ET_S2_S2_T0_S3_St26bidirectional_iterator_tagS4_
0000040c S __ZSt6__findIPKccET_S2_S2_RKT0_St26random_access_iterator_tag
00000320 S __ZSt6__findISt16reverse_iteratorIPKcEcET_S4_S4_RKT0_St26random_access_iterator_tag
000001c0 S __ZSt6searchIPKcS1_ET_S2_S2_T0_S3_
0000026c S __ZSt6searchISt16reverse_iteratorIPKcES3_ET_S4_S4_T0_S5_
00000000 T __ZlsRSoRKN3re211StringPieceE
         U _memcpy

build/AppDeck/AppDeck.a(stringprintf.o) (for architecture armv7):
00000210 s EH_frame0
000001f4 s GCC_except_table0
         U __Unwind_SjLj_Register
         U __Unwind_SjLj_Resume
         U __Unwind_SjLj_Unregister
00000000 T __ZN3re212StringPrintfEPKcz
0000022c S __ZN3re212StringPrintfEPKcz.eh
00000198 T __ZN3re213SStringPrintfEPSsPKcz
000001d4 T __ZN3re213StringAppendFEPSsPKcz
000000d4 t __ZN3re2L13StringAppendVEPSsPKcPv
         U __ZNSs4_Rep20_S_empty_rep_storageE
         U __ZNSs6appendEPKcm
         U __ZNSs9_M_mutateEmmm
         U __ZNSsD2Ev
         U __ZSt9terminatev
         U __ZdaPv
         U __Znam
         U ___gxx_personality_sj0
         U ___stack_chk_fail
         U ___stack_chk_guard
         U _vsnprintf

build/AppDeck/AppDeck.a(strutil.o) (for architecture armv7):
00000324 s EH_frame0
000002f0 s GCC_except_table2
         U __Unwind_SjLj_Register
         U __Unwind_SjLj_Resume
         U __Unwind_SjLj_Unregister
00000000 T __ZN3re213CEscapeStringEPKciPci
0000012c T __ZN3re215PrefixSuccessorERKNS_11StringPieceE
00000340 S __ZN3re215PrefixSuccessorERKNS_11StringPieceE.eh
000000d8 T __ZN3re27CEscapeERKNS_11StringPieceE
         U __ZNSs12_M_leak_hardEv
         U __ZNSs4_Rep10_M_destroyERKSaIcE
         U __ZNSs4_Rep20_S_empty_rep_storageE
         U __ZNSs5eraseEmm
         U __ZNSsC1EPKcRKSaIcE
         U __ZNSsC1EPKcmRKSaIcE
         U __ZNSsC1ERKSs
         U __ZdaPv
         U __Znam
         U ___gxx_personality_sj0
         U _sprintf

build/AppDeck/AppDeck.a(thread.o) (for architecture armv7):
00000908 s EH_frame0
000007e0 s GCC_except_table10
000007e8 s GCC_except_table11
000007f8 s GCC_except_table17
00000798 s GCC_except_table5
000007a8 s GCC_except_table7
000007bc s GCC_except_table8
000007cc s GCC_except_table9
         U __Unwind_SjLj_Register
         U __Unwind_SjLj_Resume
         U __Unwind_SjLj_Unregister
00000028 T __Z11startThreadPv
000003f4 S __ZN10LogMessage5FlushEv
00000984 S __ZN10LogMessage5FlushEv.eh
00000670 S __ZN10LogMessageC2EPKci
000009b4 S __ZN10LogMessageC2EPKci.eh
0000053c S __ZN10LogMessageD2Ev
0000099c S __ZN10LogMessageD2Ev.eh
00000354 S __ZN15LogMessageFatalD1Ev
0000035c S __ZN15LogMessageFatalD2Ev
0000096c S __ZN15LogMessageFatalD2Ev.eh
00000278 T __ZN6Thread11SetJoinableEb
00000954 S __ZN6Thread11SetJoinableEb.eh
0000013c T __ZN6Thread4JoinEv
0000093c S __ZN6Thread4JoinEv.eh
00000038 T __ZN6Thread5StartEv
00000924 S __ZN6Thread5StartEv.eh
00000000 T __ZN6ThreadC2Ev
0000001c T __ZN6ThreadD0Ev
00000020 T __ZN6ThreadD1Ev
00000024 T __ZN6ThreadD2Ev
         U __ZNKSt15basic_stringbufIcSt11char_traitsIcESaIcEE3strEv
         U __ZNSolsEi
000005fc S __ZNSs12_S_constructIPcEES0_T_S1_RKSaIcESt20forward_iterator_tag
         U __ZNSs4_Rep10_M_destroyERKSaIcE
         U __ZNSs4_Rep11_S_terminalE
         U __ZNSs4_Rep20_S_empty_rep_storageE
         U __ZNSs4_Rep9_S_createEmmRKSaIcE
         U __ZNSt19basic_ostringstreamIcSt11char_traitsIcESaIcEEC1ESt13_Ios_Openmode
         U __ZNSt19basic_ostringstreamIcSt11char_traitsIcESaIcEED1Ev
         U __ZNSt9basic_iosIcSt11char_traitsIcEE5clearESt12_Ios_Iostate
         U __ZSt16__ostream_insertIcSt11char_traitsIcEERSt13basic_ostreamIT_T0_ES6_PKS3_i
         U __ZSt19__throw_logic_errorPKc
         U __ZSt9terminatev
00000824 S __ZTI6Thread
000008f4 S __ZTS6Thread
00000810 S __ZTV6Thread
         U __ZTVN10__cxxabiv117__class_type_infoE
         U __ZdlPv
         U ___cxa_pure_virtual
         U ___gxx_personality_sj0
         U _abort
         U _memcpy
         U _pthread_create
         U _pthread_detach
         U _pthread_join
         U _strlen
         U _write

build/AppDeck/AppDeck.a(valgrind.o) (for architecture armv7):
00000000 T __ZN3re217RunningOnValgrindEv

build/AppDeck/AppDeck.a(bitstate.o) (for architecture armv7):
000010a8 s EH_frame0
00000ea4 s GCC_except_table13
00000eac s GCC_except_table14
00000ec0 s GCC_except_table15
00000ec8 s GCC_except_table16
00000ed8 s GCC_except_table22
00000e70 s GCC_except_table4
00000e80 s GCC_except_table7
         U __Unwind_SjLj_Register
         U __Unwind_SjLj_Resume
         U __Unwind_SjLj_Unregister
00000acc S __ZN10LogMessage5FlushEv
00001124 S __ZN10LogMessage5FlushEv.eh
00000d48 S __ZN10LogMessageC2EPKci
00001154 S __ZN10LogMessageC2EPKci.eh
00000c14 S __ZN10LogMessageD2Ev
0000113c S __ZN10LogMessageD2Ev.eh
0000093c S __ZN15LogMessageFatalD1Ev
00000a34 S __ZN15LogMessageFatalD2Ev
0000110c S __ZN15LogMessageFatalD2Ev.eh
         U __ZN3re24Prog10EmptyFlagsERKNS_11StringPieceEPKc
00000804 T __ZN3re24Prog14SearchBitStateERKNS_11StringPieceES3_NS0_6AnchorENS0_9MatchKindEPS1_i
000010f4 S __ZN3re24Prog14SearchBitStateERKNS_11StringPieceES3_NS0_6AnchorENS0_9MatchKindEPS1_i.eh
000009c4 S __ZN3re24Prog4Inst3capEv
00000944 S __ZN3re24Prog4Inst4out1Ev
000009fc S __ZN3re24Prog4Inst5emptyEv
0000097c S __ZN3re24Prog4Inst6greedyEPS0_
000001a4 T __ZN3re28BitState4PushEiPKci
00000680 T __ZN3re28BitState6SearchERKNS_11StringPieceES3_bbPS1_i
00000088 T __ZN3re28BitState9GrowStackEv
000010c4 S __ZN3re28BitState9GrowStackEv.eh
00000228 T __ZN3re28BitState9TrySearchEiPKc
000010dc S __ZN3re28BitState9TrySearchEiPKc.eh
00000000 T __ZN3re28BitStateC1EPNS_4ProgE
00000028 T __ZN3re28BitStateC2EPNS_4ProgE
00000050 T __ZN3re28BitStateD1Ev
00000060 T __ZN3re28BitStateD2Ev
         U __ZNKSt15basic_stringbufIcSt11char_traitsIcESaIcEE3strEv
         U __ZNSolsEi
00000cd4 S __ZNSs12_S_constructIPcEES0_T_S1_RKSaIcESt20forward_iterator_tag
         U __ZNSs4_Rep10_M_destroyERKSaIcE
         U __ZNSs4_Rep11_S_terminalE
         U __ZNSs4_Rep20_S_empty_rep_storageE
         U __ZNSs4_Rep9_S_createEmmRKSaIcE
         U __ZNSt19basic_ostringstreamIcSt11char_traitsIcESaIcEEC1ESt13_Ios_Openmode
         U __ZNSt19basic_ostringstreamIcSt11char_traitsIcESaIcEED1Ev
         U __ZNSt9basic_iosIcSt11char_traitsIcEE5clearESt12_Ios_Iostate
         U __ZSt16__ostream_insertIcSt11char_traitsIcEERSt13basic_ostreamIT_T0_ES6_PKS3_i
         U __ZSt19__throw_logic_errorPKc
         U __ZSt9terminatev
         U __ZdaPv
         U __Znam
         U ___assert_rtn
         U ___gxx_personality_sj0
         U _abort
         U _memcpy
         U _memmove
         U _memset
         U _strlen
         U _write

build/AppDeck/AppDeck.a(compile.o) (for architecture armv7):
00003644 s EH_frame0
00003150 s GCC_except_table10
00003158 s GCC_except_table12
00003168 s GCC_except_table35
00003178 s GCC_except_table40
00003190 s GCC_except_table43
000031b4 s GCC_except_table49
000031d4 s GCC_except_table51
000031e4 s GCC_except_table52
00003130 s GCC_except_table6
000031f4 s GCC_except_table64
000031fc s GCC_except_table69
00003148 s GCC_except_table7
00003210 s GCC_except_table70
00003224 s GCC_except_table72
00003238 s GCC_except_table73
00003240 s GCC_except_table74
00003250 s GCC_except_table80
         U __Unwind_SjLj_Register
         U __Unwind_SjLj_Resume
         U __Unwind_SjLj_Unregister
00002d68 S __ZN10LogMessage5FlushEv
000037b0 S __ZN10LogMessage5FlushEv.eh
00002fe4 S __ZN10LogMessageC2EPKci
000037e0 S __ZN10LogMessageC2EPKci.eh
00002eb0 S __ZN10LogMessageD2Ev
000037c8 S __ZN10LogMessageD2Ev.eh
00001f6c S __ZN15LogMessageFatalD1Ev
00002cd0 S __ZN15LogMessageFatalD2Ev
00003798 S __ZN15LogMessageFatalD2Ev.eh
         U __ZN3re210runetocharEPcPKi
00001d48 T __ZN3re24Prog10CompileSetERKNS_3RE27OptionsENS1_6AnchorEPNS_6RegexpE
         U __ZN3re24Prog13MarkByteRangeEii
         U __ZN3re24Prog14ComputeByteMapEv
         U __ZN3re24Prog4Inst11InitCaptureEij
         U __ZN3re24Prog4Inst13InitByteRangeEiiij
         U __ZN3re24Prog4Inst14InitEmptyWidthENS_7EmptyOpEj
00001d4c S __ZN3re24Prog4Inst4out1Ev
         U __ZN3re24Prog4Inst7InitAltEjj
         U __ZN3re24Prog4Inst7InitNopEj
         U __ZN3re24Prog4Inst8InitFailEv
         U __ZN3re24Prog4Inst9InitMatchEi
         U __ZN3re24Prog8OptimizeEv
         U __ZN3re24Prog9SearchDFAERKNS_11StringPieceES3_NS0_6AnchorENS0_9MatchKindEPS1_PbPSt6vectorIiSaIiEE
         U __ZN3re24ProgC1Ev
         U __ZN3re24ProgD1Ev
00001b58 T __ZN3re26Regexp13CompileToProgEx
         U __ZN3re26Regexp13LiteralStringEPiiNS0_10ParseFlagsE
00001b64 T __ZN3re26Regexp20CompileToReverseProgEx
         U __ZN3re26Regexp6ConcatEPPS0_iNS0_10ParseFlagsE
         U __ZN3re26Regexp6DecrefEv
         U __ZN3re26Regexp6IncrefEv
00001f74 S __ZN3re26Regexp6WalkerINS_4FragEE12WalkInternalEPS0_S2_b
00003720 S __ZN3re26Regexp6WalkerINS_4FragEE12WalkInternalEPS0_S2_b.eh
00002970 S __ZN3re26Regexp6WalkerINS_4FragEE4CopyES2_
00002304 S __ZN3re26Regexp6WalkerINS_4FragEE5ResetEv
00003738 S __ZN3re26Regexp6WalkerINS_4FragEE5ResetEv.eh
00002958 S __ZN3re26Regexp6WalkerINS_4FragEE8PreVisitEPS0_S2_Pb
00002964 S __ZN3re26Regexp6WalkerINS_4FragEE9PostVisitEPS0_S2_S2_PS2_i
00001d84 S __ZN3re26Regexp6WalkerINS_4FragEEC2Ev
00003678 S __ZN3re26Regexp6WalkerINS_4FragEEC2Ev.eh
000028b8 S __ZN3re26Regexp6WalkerINS_4FragEED0Ev
00003750 S __ZN3re26Regexp6WalkerINS_4FragEED0Ev.eh
000028a8 S __ZN3re26Regexp6WalkerINS_4FragEED1Ev
00001e98 S __ZN3re26Regexp6WalkerINS_4FragEED2Ev
         U __ZN3re26Regexp7CaptureEPS0_NS0_10ParseFlagsEi
         U __ZN3re26Regexp8SimplifyEv
00000974 T __ZN3re28Compiler10BeginRangeEv
00001b70 T __ZN3re28Compiler10CompileSetERKNS_3RE27OptionsENS1_6AnchorEPNS_6RegexpE
00003708 S __ZN3re28Compiler10CompileSetERKNS_3RE27OptionsENS1_6AnchorEPNS_6RegexpE.eh
000007f8 T __ZN3re28Compiler10EmptyWidthENS_7EmptyOpE
00000e3c T __ZN3re28Compiler10ShortVisitEPNS_6RegexpENS_4FragE
00000b04 T __ZN3re28Compiler12AddRuneRangeEiib
00000ce4 T __ZN3re28Compiler13Add_80_10ffffEv
000009d0 T __ZN3re28Compiler14RuneByteSuffixEhhbi
00000b18 T __ZN3re28Compiler16AddRuneRangeUTF8Eiib
00000cac T __ZN3re28Compiler18AddRuneRangeLatin1Eiib
00000998 T __ZN3re28Compiler22UncachedRuneByteSuffixEhhbi
0000057c T __ZN3re28Compiler3AltENS_4FragES1_
00000508 T __ZN3re28Compiler3CatENS_4FragES1_
00000784 T __ZN3re28Compiler3NopEv
00000d90 T __ZN3re28Compiler4CopyENS_4FragE
000036c0 S __ZN3re28Compiler4CopyENS_4FragE.eh
00000664 T __ZN3re28Compiler4PlusENS_4FragEb
000005ec T __ZN3re28Compiler4StarENS_4FragEb
0000049c T __ZN3re28Compiler4TrimEv
000007b8 T __ZN3re28Compiler5MatchEi
00000688 T __ZN3re28Compiler5QuestENS_4FragEb
00001578 T __ZN3re28Compiler5SetupENS_6Regexp10ParseFlagsExNS_3RE26AnchorE
00001ac4 T __ZN3re28Compiler6FinishEv
0000090c T __ZN3re28Compiler7CaptureENS_4FragEi
00001658 T __ZN3re28Compiler7CompileEPNS_6RegexpEbx
000036f0 S __ZN3re28Compiler7CompileEPNS_6RegexpEbx.eh
0000154c T __ZN3re28Compiler7DotStarEv
00000e5c T __ZN3re28Compiler7LiteralEib
00000500 T __ZN3re28Compiler7NoMatchEv
00000af8 T __ZN3re28Compiler8EndRangeEv
00000e48 T __ZN3re28Compiler8PreVisitEPNS_6RegexpENS_4FragEPb
00000ac0 T __ZN3re28Compiler9AddSuffixEi
00000230 T __ZN3re28Compiler9AllocInstEi
000006f0 T __ZN3re28Compiler9ByteRangeEiib
00000f0c T __ZN3re28Compiler9PostVisitEPNS_6RegexpENS_4FragES3_PS3_i
000036d8 S __ZN3re28Compiler9PostVisitEPNS_6RegexpENS_4FragES3_PS3_i.eh
000000b8 T __ZN3re28CompilerC1Ev
000000c8 T __ZN3re28CompilerC2Ev
00003660 S __ZN3re28CompilerC2Ev.eh
000002ec T __ZN3re28CompilerD0Ev
00003690 S __ZN3re28CompilerD0Ev.eh
0000038c T __ZN3re28CompilerD1Ev
0000039c T __ZN3re28CompilerD2Ev
000036a8 S __ZN3re28CompilerD2Ev.eh
00000000 T __ZN3re29PatchList2MkEj
00000004 T __ZN3re29PatchList5DerefEPNS_4Prog4InstES0_
00000020 T __ZN3re29PatchList5PatchEPNS_4Prog4InstES0_j
00000064 T __ZN3re29PatchList6AppendEPNS_4Prog4InstES0_S0_
0000197c t __ZN3re2L11IsAnchorEndEPPNS_6RegexpEi
0000183c t __ZN3re2L13IsAnchorStartEPPNS_6RegexpEi
0000329c s __ZN3re2L14prog_80_10ffffE
         U __ZNK3re23RE27Options10ParseFlagsEv
         U __ZNKSt15basic_stringbufIcSt11char_traitsIcESaIcEE3strEv
         U __ZNSolsEi
00002f70 S __ZNSs12_S_constructIPcEES0_T_S1_RKSaIcESt20forward_iterator_tag
         U __ZNSs4_Rep10_M_destroyERKSaIcE
         U __ZNSs4_Rep11_S_terminalE
         U __ZNSs4_Rep20_S_empty_rep_storageE
         U __ZNSs4_Rep9_S_createEmmRKSaIcE
00002600 S __ZNSt11_Deque_baseIN3re29WalkStateINS0_4FragEEESaIS3_EE15_M_allocate_mapEm
00002b10 S __ZNSt11_Deque_baseIN3re29WalkStateINS0_4FragEEESaIS3_EE15_M_create_nodesEPPS3_S7_
00003780 S __ZNSt11_Deque_baseIN3re29WalkStateINS0_4FragEEESaIS3_EE15_M_create_nodesEPPS3_S7_.eh
000029a4 S __ZNSt11_Deque_baseIN3re29WalkStateINS0_4FragEEESaIS3_EE17_M_initialize_mapEm
00003768 S __ZNSt11_Deque_baseIN3re29WalkStateINS0_4FragEEESaIS3_EE17_M_initialize_mapEm.eh
00002978 S __ZNSt11_Deque_baseIN3re29WalkStateINS0_4FragEEESaIS3_EED2Ev
         U __ZNSt19basic_ostringstreamIcSt11char_traitsIcESaIcEEC1ESt13_Ios_Openmode
         U __ZNSt19basic_ostringstreamIcSt11char_traitsIcESaIcEED1Ev
00001ed4 S __ZNSt3mapIyiSt4lessIyESaISt4pairIKyiEEEixERS3_
00002490 S __ZNSt5dequeIN3re29WalkStateINS0_4FragEEESaIS3_EE16_M_push_back_auxERKS3_
00002524 S __ZNSt5dequeIN3re29WalkStateINS0_4FragEEESaIS3_EE17_M_reallocate_mapEmb
00002504 S __ZNSt5dequeIN3re29WalkStateINS0_4FragEEESaIS3_EE22_M_reserve_map_at_backEm
0000241c S __ZNSt5dequeIN3re29WalkStateINS0_4FragEEESaIS3_EE8pop_backEv
0000244c S __ZNSt5dequeIN3re29WalkStateINS0_4FragEEESaIS3_EE9push_backERKS3_
00002c04 S __ZNSt5dequeIN3re29WalkStateINS0_4FragEEESaIS3_EEC2ERKS5_
000027c0 S __ZNSt8_Rb_treeIySt4pairIKyiESt10_Select1stIS2_ESt4lessIyESaIS2_EE16_M_insert_uniqueERKS2_
00002618 S __ZNSt8_Rb_treeIySt4pairIKyiESt10_Select1stIS2_ESt4lessIyESaIS2_EE16_M_insert_uniqueESt17_Rb_tree_iteratorIS2_ERKS2_
00002880 S __ZNSt8_Rb_treeIySt4pairIKyiESt10_Select1stIS2_ESt4lessIyESaIS2_EE8_M_eraseEPSt13_Rb_tree_nodeIS2_E
00002750 S __ZNSt8_Rb_treeIySt4pairIKyiESt10_Select1stIS2_ESt4lessIyESaIS2_EE9_M_insertEPSt18_Rb_tree_node_baseSA_RKS2_
         U __ZNSt9basic_iosIcSt11char_traitsIcEE5clearESt12_Ios_Iostate
         U __ZSt16__ostream_insertIcSt11char_traitsIcEERSt13basic_ostreamIT_T0_ES6_PKS3_i
         U __ZSt17__throw_bad_allocv
         U __ZSt18_Rb_tree_decrementPSt18_Rb_tree_node_base
         U __ZSt18_Rb_tree_incrementPSt18_Rb_tree_node_base
         U __ZSt19__throw_logic_errorPKc
         U __ZSt29_Rb_tree_insert_and_rebalancebPSt18_Rb_tree_node_baseS0_RS_
         U __ZSt9terminatev
00003600 S __ZTIN3re26Regexp6WalkerINS_4FragEEE
00003290 S __ZTIN3re28CompilerE
00003110 S __ZTSN3re26Regexp6WalkerINS_4FragEEE
0000332c S __ZTSN3re28CompilerE
         U __ZTVN10__cxxabiv117__class_type_infoE
         U __ZTVN10__cxxabiv120__si_class_type_infoE
00003610 S __ZTVN3re26Regexp6WalkerINS_4FragEEE
00003270 S __ZTVN3re28CompilerE
         U __ZdaPv
         U __ZdlPv
         U __Znam
         U __Znwm
         U ___assert_rtn
         U ___cxa_begin_catch
         U ___cxa_end_catch
         U ___cxa_pure_virtual
         U ___cxa_rethrow
         U ___gxx_personality_sj0
         U ___stack_chk_fail
         U ___stack_chk_guard
         U _abort
         U _memcpy
         U _memmove
         U _memset
         U _strlen
         U _write

build/AppDeck/AppDeck.a(dfa.o) (for architecture armv7):
000051dc s EH_frame0
00004ae0 s GCC_except_table1
00004b64 s GCC_except_table21
00004b74 s GCC_except_table22
00004b94 s GCC_except_table29
00004b18 s GCC_except_table3
00004bac s GCC_except_table34
00004bc4 s GCC_except_table36
00004b34 s GCC_except_table4
00004bf0 s GCC_except_table46
00004c04 s GCC_except_table47
00004c58 s GCC_except_table48
00004c6c s GCC_except_table49
00004b3c s GCC_except_table5
00004c90 s GCC_except_table50
00004c98 s GCC_except_table52
00004cb8 s GCC_except_table54
00004cec s GCC_except_table56
00004b50 s GCC_except_table6
00004d00 s GCC_except_table65
00004d14 s GCC_except_table66
00004d28 s GCC_except_table83
00004d3c s GCC_except_table84
00004d44 s GCC_except_table85
00004d54 s GCC_except_table90
         U __Unwind_SjLj_Register
         U __Unwind_SjLj_Resume
         U __Unwind_SjLj_Unregister
00004144 S __ZN10LogMessage5FlushEv
000053f0 S __ZN10LogMessage5FlushEv.eh
000043c0 S __ZN10LogMessageC2EPKci
00005420 S __ZN10LogMessageC2EPKci.eh
0000428c S __ZN10LogMessageD2Ev
00005408 S __ZN10LogMessageD2Ev.eh
00002fa8 S __ZN15LogMessageFatalD1Ev
000040ac S __ZN15LogMessageFatalD2Ev
000053d8 S __ZN15LogMessageFatalD2Ev.eh
         U __ZN3re212StringPrintfEPKcz
         U __ZN3re213StringAppendFEPSsPKcz
         U __ZN3re215PrefixSuccessorERKNS_11StringPieceE
         U __ZN3re217RunningOnValgrindEv
00004d6c D __ZN3re228FLAGS_re2_dfa_bail_when_slowE
00000f40 T __ZN3re23DFA10AddToQueueEPNS0_5WorkqEij
00000710 T __ZN3re23DFA10ClearCacheEv
00005228 S __ZN3re23DFA10ClearCacheEv.eh
0000165c T __ZN3re23DFA10ResetCacheEPNS0_8RWLockerE
000052a0 S __ZN3re23DFA10ResetCacheEPNS0_8RWLockerE.eh
00001854 T __ZN3re23DFA10StateSaver7RestoreEv
000052b8 S __ZN3re23DFA10StateSaver7RestoreEv.eh
000017c4 T __ZN3re23DFA10StateSaverC1EPS0_PNS0_5StateE
000017d4 T __ZN3re23DFA10StateSaverC2EPS0_PNS0_5StateE
00001824 T __ZN3re23DFA10StateSaverD1Ev
0000183c T __ZN3re23DFA10StateSaverD2Ev
00000e14 T __ZN3re23DFA11CachedStateEPiij
00000ef4 T __ZN3re23DFA12StateToWorkqEPNS0_5StateEPNS0_5WorkqE
00001aa4 T __ZN3re23DFA13AnalyzeSearchEPNS0_12SearchParamsE
000052e8 S __ZN3re23DFA13AnalyzeSearchEPNS0_12SearchParamsE.eh
00002608 T __ZN3re23DFA14BuildAllStatesEv
00005360 S __ZN3re23DFA14BuildAllStatesEv.eh
00001a60 T __ZN3re23DFA14FastSearchLoopEPNS0_12SearchParamsE
00001220 T __ZN3re23DFA14RunStateOnByteEPNS0_5StateEi
00005288 S __ZN3re23DFA14RunStateOnByteEPNS0_5StateEi.eh
0000109c T __ZN3re23DFA14RunWorkqOnByteEPNS0_5WorkqES2_ijPbNS_4Prog9MatchKindEi
00001a3c T __ZN3re23DFA14SlowSearchLoopEPNS0_12SearchParamsE
00002fb0 S __ZN3re23DFA17InlinedSearchLoopEPNS0_12SearchParamsEbbb
000052d0 S __ZN3re23DFA17InlinedSearchLoopEPNS0_12SearchParamsEbbb.eh
00002848 T __ZN3re23DFA18PossibleMatchRangeEPSsS1_i
00005378 S __ZN3re23DFA18PossibleMatchRangeEPSsS1_i.eh
00000b9c T __ZN3re23DFA18WorkqToCachedStateEPNS0_5WorkqEj
00001cbc T __ZN3re23DFA19AnalyzeSearchHelperEPNS0_12SearchParamsEPNS0_9StartInfoEj
00005300 S __ZN3re23DFA19AnalyzeSearchHelperEPNS0_12SearchParamsEPNS0_9StartInfoEj.eh
0000104c T __ZN3re23DFA21RunWorkqOnEmptyStringEPNS0_5WorkqES2_j
00001158 T __ZN3re23DFA22RunStateOnByteUnlockedEPNS0_5StateEi
00005270 S __ZN3re23DFA22RunStateOnByteUnlockedEPNS0_5StateEi.eh
00002ed4 S __ZN3re23DFA5Workq4markEv
0000206c T __ZN3re23DFA6SearchERKNS_11StringPieceES3_bbbPbPPKcPSt6vectorIiSaIiEE
00005318 S __ZN3re23DFA6SearchERKNS_11StringPieceES3_bbbPbPPKcPSt6vectorIiSaIiEE.eh
00001604 T __ZN3re23DFA8RWLocker14LockForWritingEv
000015d4 T __ZN3re23DFA8RWLockerC1EPNS_5MutexE
000015e4 T __ZN3re23DFA8RWLockerC2EPNS_5MutexE
0000162c T __ZN3re23DFA8RWLockerD1Ev
0000163c T __ZN3re23DFA8RWLockerD2Ev
00000970 T __ZN3re23DFA9DumpStateEPNS0_5StateE
00005258 S __ZN3re23DFA9DumpStateEPNS0_5StateE.eh
00000850 T __ZN3re23DFA9DumpWorkqEPNS0_5WorkqE
00005240 S __ZN3re23DFA9DumpWorkqEPNS0_5WorkqE.eh
0000197c T __ZN3re23DFA9SearchFFFEPNS0_12SearchParamsE
00001994 T __ZN3re23DFA9SearchFFTEPNS0_12SearchParamsE
000019ac T __ZN3re23DFA9SearchFTFEPNS0_12SearchParamsE
000019c4 T __ZN3re23DFA9SearchFTTEPNS0_12SearchParamsE
000019dc T __ZN3re23DFA9SearchTFFEPNS0_12SearchParamsE
000019f4 T __ZN3re23DFA9SearchTFTEPNS0_12SearchParamsE
00001a0c T __ZN3re23DFA9SearchTTFEPNS0_12SearchParamsE
00001a24 T __ZN3re23DFA9SearchTTTEPNS0_12SearchParamsE
00000000 T __ZN3re23DFAC1EPNS_4ProgENS1_9MatchKindEx
0000001c T __ZN3re23DFAC2EPNS_4ProgENS1_9MatchKindEx
000051f8 S __ZN3re23DFAC2EPNS_4ProgENS1_9MatchKindEx.eh
00000570 T __ZN3re23DFAD1Ev
00000580 T __ZN3re23DFAD2Ev
00005210 S __ZN3re23DFAD2Ev.eh
00002838 T __ZN3re24Prog14BuildEntireDFAENS0_9MatchKindE
00002c30 T __ZN3re24Prog18PossibleMatchRangeEPSsS1_i
00005390 S __ZN3re24Prog18PossibleMatchRangeEPSsS1_i.eh
00002f70 S __ZN3re24Prog4Inst4out1Ev
00002db0 S __ZN3re24Prog4Inst5emptyEv
00002d68 S __ZN3re24Prog4Inst6greedyEPS0_
00003f80 S __ZN3re24Prog4Inst8match_idEv
000021e4 T __ZN3re24Prog6GetDFAENS0_9MatchKindE
00005330 S __ZN3re24Prog6GetDFAENS0_9MatchKindE.eh
000024a0 T __ZN3re24Prog9SearchDFAERKNS_11StringPieceES3_NS0_6AnchorENS0_9MatchKindEPS1_PbPSt6vectorIiSaIiEE
         U __ZN3re28hashwordEPKjmj
00004500 S __ZN3re29MutexLockC2EPNS_5MutexE
000044e8 S __ZN3re29MutexLockD2Ev
0000451c S __ZN3re29SparseSet10insert_newEi
000045c0 S __ZN3re29SparseSetC2Ei
000045a0 S __ZN3re29SparseSetD2Ev
000023fc t __ZN3re2L9DeleteDFAEPNS_3DFAE
00005348 s __ZN3re2L9DeleteDFAEPNS_3DFAE.eh
00003c3c S __ZNK3re23DFA10StateEqualclEPKNS0_5StateES4_
00003c24 S __ZNK3re23DFA9StateHashclEPKNS0_5StateE
00002ef0 S __ZNK3re29SparseSet8containsEi
         U __ZNKSt15basic_stringbufIcSt11char_traitsIcESaIcEE3strEv
         U __ZNSo9_M_insertImEERSoT_
         U __ZNSolsEi
0000434c S __ZNSs12_S_constructIPcEES0_T_S1_RKSaIcESt20forward_iterator_tag
         U __ZNSs14_M_replace_auxEmmmc
         U __ZNSs4_Rep10_M_destroyERKSaIcE
         U __ZNSs4_Rep11_S_terminalE
         U __ZNSs4_Rep20_S_empty_rep_storageE
         U __ZNSs4_Rep9_S_createEmmRKSaIcE
         U __ZNSs6assignEPKcm
         U __ZNSs6assignERKSs
         U __ZNSs9_M_mutateEmmm
         U __ZNSsC1EPKcRKSaIcE
         U __ZNSsC1ERKSs
         U __ZNSsD2Ev
000037f0 S __ZNSt12_Vector_baseIPN3re23DFA5StateESaIS3_EE11_M_allocateEm
00004094 S __ZNSt12_Vector_baseIiSaIiEE11_M_allocateEm
         U __ZNSt19basic_ostringstreamIcSt11char_traitsIcESaIcEEC1ESt13_Ios_Openmode
         U __ZNSt19basic_ostringstreamIcSt11char_traitsIcESaIcEED1Ev
000034dc S __ZNSt3mapIPN3re23DFA5StateEiSt4lessIS3_ESaISt4pairIKS3_iEEEixERS7_
00003894 S __ZNSt3tr110_HashtableIPN3re23DFA5StateES4_SaIS4_ESt9_IdentityIS4_ENS2_10StateEqualENS2_9StateHashENS_8__detail18_Mod_range_hashingENSA_20_Default_ranged_hashENSA_20_Prime_rehash_policyELb0ELb1ELb1EE16_M_insert_bucketERKS4_mm
000053a8 S __ZNSt3tr110_HashtableIPN3re23DFA5StateES4_SaIS4_ESt9_IdentityIS4_ENS2_10StateEqualENS2_9StateHashENS_8__detail18_Mod_range_hashingENSA_20_Default_ranged_hashENSA_20_Prime_rehash_policyELb0ELb1ELb1EE16_M_insert_bucketERKS4_mm.eh
00003be8 S __ZNSt3tr110_HashtableIPN3re23DFA5StateES4_SaIS4_ESt9_IdentityIS4_ENS2_10StateEqualENS2_9StateHashENS_8__detail18_Mod_range_hashingENSA_20_Default_ranged_hashENSA_20_Prime_rehash_policyELb0ELb1ELb1EE19_M_allocate_bucketsEm
000036d4 S __ZNSt3tr110_HashtableIPN3re23DFA5StateES4_SaIS4_ESt9_IdentityIS4_ENS2_10StateEqualENS2_9StateHashENS_8__detail18_Mod_range_hashingENSA_20_Default_ranged_hashENSA_20_Prime_rehash_policyELb0ELb1ELb1EE19_M_deallocate_nodesEPPNSA_10_Hash_nodeIS4_Lb0EEEm
00002de8 S __ZNSt3tr110_HashtableIPN3re23DFA5StateES4_SaIS4_ESt9_IdentityIS4_ENS2_10StateEqualENS2_9StateHashENS_8__detail18_Mod_range_hashingENSA_20_Default_ranged_hashENSA_20_Prime_rehash_policyELb0ELb1ELb1EE4findERKS4_
00003808 S __ZNSt3tr110_HashtableIPN3re23DFA5StateES4_SaIS4_ESt9_IdentityIS4_ENS2_10StateEqualENS2_9StateHashENS_8__detail18_Mod_range_hashingENSA_20_Default_ranged_hashENSA_20_Prime_rehash_policyELb0ELb1ELb1EE9_M_insertERKS4_NS_17integral_constantIbLb1EEE
00003a94 S __ZNSt3tr110_HashtableIPN3re23DFA5StateES4_SaIS4_ESt9_IdentityIS4_ENS2_10StateEqualENS2_9StateHashENS_8__detail18_Mod_range_hashingENSA_20_Default_ranged_hashENSA_20_Prime_rehash_policyELb0ELb1ELb1EE9_M_rehashEm
000053c0 S __ZNSt3tr110_HashtableIPN3re23DFA5StateES4_SaIS4_ESt9_IdentityIS4_ENS2_10StateEqualENS2_9StateHashENS_8__detail18_Mod_range_hashingENSA_20_Default_ranged_hashENSA_20_Prime_rehash_policyELb0ELb1ELb1EE9_M_rehashEm.eh
00003edc S __ZNSt3tr110_HashtableIPN3re23DFA5StateES4_SaIS4_ESt9_IdentityIS4_ENS2_10StateEqualENS2_9StateHashENS_8__detail18_Mod_range_hashingENSA_20_Default_ranged_hashENSA_20_Prime_rehash_policyELb0ELb1ELb1EEC2EmRKS9_RKSB_RKSC_RKS8_RKS7_RKS5_
0000461c S __ZNSt3tr18__detail7_PrimesILi4EE8__primesE
00003710 S __ZNSt6vectorIPN3re23DFA5StateESaIS3_EE13_M_insert_auxEN9__gnu_cxx17__normal_iteratorIPS3_S5_EERKS3_
00002e40 S __ZNSt6vectorIPN3re23DFA5StateESaIS3_EE7reserveEm
00002ea8 S __ZNSt6vectorIPN3re23DFA5StateESaIS3_EE9push_backERKS3_
00003fb8 S __ZNSt6vectorIiSaIiEE13_M_insert_auxEN9__gnu_cxx17__normal_iteratorIPiS1_EERKi
00003f58 S __ZNSt6vectorIiSaIiEE9push_backERKi
0000366c S __ZNSt8_Rb_treeIPN3re23DFA5StateESt4pairIKS3_iESt10_Select1stIS6_ESt4lessIS3_ESaIS6_EE16_M_insert_uniqueERKS6_
0000355c S __ZNSt8_Rb_treeIPN3re23DFA5StateESt4pairIKS3_iESt10_Select1stIS6_ESt4lessIS3_ESaIS6_EE16_M_insert_uniqueESt17_Rb_tree_iteratorIS6_ERKS6_
00003534 S __ZNSt8_Rb_treeIPN3re23DFA5StateESt4pairIKS3_iESt10_Select1stIS6_ESt4lessIS3_ESaIS6_EE8_M_eraseEPSt13_Rb_tree_nodeIS6_E
00003610 S __ZNSt8_Rb_treeIPN3re23DFA5StateESt4pairIKS3_iESt10_Select1stIS6_ESt4lessIS3_ESaIS6_EE9_M_insertEPSt18_Rb_tree_node_baseSE_RKS6_
         U __ZNSt9basic_iosIcSt11char_traitsIcEE5clearESt12_Ios_Iostate
00003e20 S __ZSt13__adjust_heapIPiiiEvT_T0_S2_T1_
00003d88 S __ZSt16__insertion_sortIPiEvT_S1_
00003c90 S __ZSt16__introsort_loopIPiiEvT_S1_T0_
         U __ZSt16__ostream_insertIcSt11char_traitsIcEERSt13basic_ostreamIT_T0_ES6_PKS3_i
         U __ZSt17__throw_bad_allocv
         U __ZSt18_Rb_tree_decrementPSt18_Rb_tree_node_base
         U __ZSt18_Rb_tree_incrementPSt18_Rb_tree_node_base
         U __ZSt19__throw_logic_errorPKc
         U __ZSt20__throw_length_errorPKc
00003d40 S __ZSt22__final_insertion_sortIPiEvT_S1_
         U __ZSt29_Rb_tree_insert_and_rebalancebPSt18_Rb_tree_node_baseS0_RS_
00003e0c S __ZSt8pop_heapIPiEvT_S1_
00003eac S __ZSt9make_heapIPiEvT_S1_
00003de8 S __ZSt9sort_heapIPiEvT_S1_
         U __ZSt9terminatev
00005188 s __ZZN3re23DFA14FastSearchLoopEPNS0_12SearchParamsEE8Searches
         U __ZdaPv
         U __ZdlPv
         U __Znam
         U __Znwm
         U ___assert_rtn
         U ___cxa_begin_catch
         U ___cxa_end_catch
         U ___cxa_rethrow
         U ___gxx_personality_sj0
         U ___stack_chk_fail
         U ___stack_chk_guard
         U ___umodsi3
         U _abort
         U _ceilf
         U _memchr
         U _memcpy
         U _memmove
         U _memset
         U _pthread_rwlock_destroy
         U _pthread_rwlock_init
         U _pthread_rwlock_rdlock
         U _pthread_rwlock_unlock
         U _pthread_rwlock_wrlock
         U _strlen
         U _write

build/AppDeck/AppDeck.a(filtered_re2.o) (for architecture armv7):
0000103c s EH_frame0
00000e88 s GCC_except_table1
00000ee0 s GCC_except_table10
00000eec s GCC_except_table19
00000f00 s GCC_except_table20
00000f08 s GCC_except_table21
00000f18 s GCC_except_table26
00000e90 s GCC_except_table3
00000e98 s GCC_except_table4
00000eb4 s GCC_except_table6
00000ecc s GCC_except_table8
         U __Unwind_SjLj_Register
         U __Unwind_SjLj_Resume
         U __Unwind_SjLj_Unregister
00000ae4 S __ZN10LogMessage5FlushEv
00001100 S __ZN10LogMessage5FlushEv.eh
00000d60 S __ZN10LogMessageC2EPKci
00001130 S __ZN10LogMessageC2EPKci.eh
00000c2c S __ZN10LogMessageD2Ev
00001118 S __ZN10LogMessageD2Ev.eh
00000830 S __ZN15LogMessageFatalD1Ev
00000a4c S __ZN15LogMessageFatalD2Ev
000010e8 S __ZN15LogMessageFatalD2Ev.eh
000007fc T __ZN3re211FilteredRE214PrintPrefilterEi
000007f4 T __ZN3re211FilteredRE219RegexpsGivenStringsERKSt6vectorIiSaIiEEPS3_
00000200 T __ZN3re211FilteredRE23AddERKNS_11StringPieceERKNS_3RE27OptionsEPi
00001088 S __ZN3re211FilteredRE23AddERKNS_11StringPieceERKNS_3RE27OptionsEPi.eh
00000394 T __ZN3re211FilteredRE27CompileEPSt6vectorISsSaISsEE
000010a0 S __ZN3re211FilteredRE27CompileEPSt6vectorISsSaISsEE.eh
00000000 T __ZN3re211FilteredRE2C1Ev
00000010 T __ZN3re211FilteredRE2C2Ev
00001058 S __ZN3re211FilteredRE2C2Ev.eh
000000e0 T __ZN3re211FilteredRE2D1Ev
000000f0 T __ZN3re211FilteredRE2D2Ev
00001070 S __ZN3re211FilteredRE2D2Ev.eh
         U __ZN3re213PrefilterTree14PrintPrefilterEi
         U __ZN3re213PrefilterTree3AddEPNS_9PrefilterE
         U __ZN3re213PrefilterTree7CompileEPSt6vectorISsSaISsEE
         U __ZN3re213PrefilterTreeC1Ev
         U __ZN3re213PrefilterTreeD1Ev
         U __ZN3re23RE213PartialMatchNERKNS_11StringPieceERKS0_PKPKNS0_3ArgEi
         U __ZN3re23RE2C1ERKNS_11StringPieceERKNS0_7OptionsE
         U __ZN3re23RE2D1Ev
         U __ZN3re29Prefilter7FromRE2EPKNS_3RE2E
000006bc T __ZNK3re211FilteredRE210AllMatchesERKNS_11StringPieceERKSt6vectorIiSaIiEEPS6_
000010d0 S __ZNK3re211FilteredRE210AllMatchesERKNS_11StringPieceERKSt6vectorIiSaIiEEPS6_.eh
00000554 T __ZNK3re211FilteredRE210FirstMatchERKNS_11StringPieceERKSt6vectorIiSaIiEE
000010b8 S __ZNK3re211FilteredRE210FirstMatchERKNS_11StringPieceERKSt6vectorIiSaIiEE.eh
00000520 T __ZNK3re211FilteredRE214SlowFirstMatchERKNS_11StringPieceE
         U __ZNK3re213PrefilterTree19RegexpsGivenStringsERKSt6vectorIiSaIiEEPS3_
         U __ZNKSt15basic_stringbufIcSt11char_traitsIcESaIcEE3strEv
         U __ZNSo9_M_insertIPKvEERSoT_
         U __ZNSo9_M_insertIbEERSoT_
         U __ZNSo9_M_insertImEERSoT_
         U __ZNSolsEi
00000cec S __ZNSs12_S_constructIPcEES0_T_S1_RKSaIcESt20forward_iterator_tag
         U __ZNSs4_Rep10_M_destroyERKSaIcE
         U __ZNSs4_Rep11_S_terminalE
         U __ZNSs4_Rep20_S_empty_rep_storageE
         U __ZNSs4_Rep9_S_createEmmRKSaIcE
         U __ZNSsD2Ev
00000a34 S __ZNSt12_Vector_baseIPN3re23RE2ESaIS2_EE11_M_allocateEm
0000093c S __ZNSt12_Vector_baseIiSaIiEE11_M_allocateEm
         U __ZNSt19basic_ostringstreamIcSt11char_traitsIcESaIcEEC1ESt13_Ios_Openmode
         U __ZNSt19basic_ostringstreamIcSt11char_traitsIcESaIcEED1Ev
00000954 S __ZNSt6vectorIPN3re23RE2ESaIS2_EE13_M_insert_auxEN9__gnu_cxx17__normal_iteratorIPS2_S4_EERKS2_
00000804 S __ZNSt6vectorIPN3re23RE2ESaIS2_EE9push_backERKS2_
00000860 S __ZNSt6vectorIiSaIiEE13_M_insert_auxEN9__gnu_cxx17__normal_iteratorIPiS1_EERKi
00000838 S __ZNSt6vectorIiSaIiEE9push_backERKi
         U __ZNSt9basic_iosIcSt11char_traitsIcEE5clearESt12_Ios_Iostate
         U __ZSt16__ostream_insertIcSt11char_traitsIcEERSt13basic_ostreamIT_T0_ES6_PKS3_i
         U __ZSt17__throw_bad_allocv
         U __ZSt19__throw_logic_errorPKc
         U __ZSt20__throw_length_errorPKc
         U __ZSt9terminatev
         U __ZdlPv
         U __Znwm
         U ___gxx_personality_sj0
         U _abort
         U _memcpy
         U _memmove
         U _strlen
         U _write

build/AppDeck/AppDeck.a(mimics_pcre.o) (for architecture armv7):
00001870 s EH_frame0
00001508 s GCC_except_table1
00001540 s GCC_except_table10
00001548 s GCC_except_table11
00001558 s GCC_except_table12
00001568 s GCC_except_table13
00001518 s GCC_except_table2
00001578 s GCC_except_table21
0000158c s GCC_except_table22
00001594 s GCC_except_table23
000015a4 s GCC_except_table29
000015bc s GCC_except_table33
000015c4 s GCC_except_table36
000015cc s GCC_except_table37
000015e0 s GCC_except_table38
00001528 s GCC_except_table5
00001530 s GCC_except_table8
         U __Unwind_SjLj_Register
         U __Unwind_SjLj_Resume
         U __Unwind_SjLj_Unregister
00000c1c S __ZN10LogMessage5FlushEv
00001964 S __ZN10LogMessage5FlushEv.eh
00000e98 S __ZN10LogMessageC2EPKci
00001994 S __ZN10LogMessageC2EPKci.eh
00000d64 S __ZN10LogMessageD2Ev
0000197c S __ZN10LogMessageD2Ev.eh
000009c4 S __ZN15LogMessageFatalD1Ev
00000b84 S __ZN15LogMessageFatalD2Ev
0000194c S __ZN15LogMessageFatalD2Ev.eh
00000400 S __ZN3re210PCREWalker10ShortVisitEPNS_6RegexpEb
000018d4 S __ZN3re210PCREWalker10ShortVisitEPNS_6RegexpEb.eh
00000000 T __ZN3re210PCREWalker9PostVisitEPNS_6RegexpEbbPbi
00000358 S __ZN3re210PCREWalkerD0Ev
000018bc S __ZN3re210PCREWalkerD0Ev.eh
00000348 S __ZN3re210PCREWalkerD1Ev
0000055c S __ZN3re217EmptyStringWalker10ShortVisitEPNS_6RegexpEb
00001904 S __ZN3re217EmptyStringWalker10ShortVisitEPNS_6RegexpEb.eh
000002a0 T __ZN3re217EmptyStringWalker9PostVisitEPNS_6RegexpEbbPbi
000004bc S __ZN3re217EmptyStringWalkerD0Ev
000018ec S __ZN3re217EmptyStringWalkerD0Ev.eh
000004ac S __ZN3re217EmptyStringWalkerD1Ev
000001c0 T __ZN3re26Regexp10MimicsPCREEv
000018a4 S __ZN3re26Regexp10MimicsPCREEv.eh
00000608 S __ZN3re26Regexp6WalkerIbE12WalkInternalEPS0_bb
0000191c S __ZN3re26Regexp6WalkerIbE12WalkInternalEPS0_bb.eh
000003fc S __ZN3re26Regexp6WalkerIbE4CopyEb
000008cc S __ZN3re26Regexp6WalkerIbE5ResetEv
00001934 S __ZN3re26Regexp6WalkerIbE5ResetEv.eh
000003f8 S __ZN3re26Regexp6WalkerIbE8PreVisitEPS0_bPb
000010ac S __ZN3re26Regexp6WalkerIbE9PostVisitEPS0_bbPbi
000010dc S __ZN3re26Regexp6WalkerIbEC2Ev
000019c4 S __ZN3re26Regexp6WalkerIbEC2Ev.eh
0000100c S __ZN3re26Regexp6WalkerIbED0Ev
000019ac S __ZN3re26Regexp6WalkerIbED0Ev.eh
00000ffc S __ZN3re26Regexp6WalkerIbED1Ev
00000fc0 S __ZN3re26Regexp6WalkerIbED2Ev
000000e0 t __ZN3re2L16CanBeEmptyStringEPNS_6RegexpE
0000188c s __ZN3re2L16CanBeEmptyStringEPNS_6RegexpE.eh
         U __ZNKSt15basic_stringbufIcSt11char_traitsIcESaIcEE3strEv
         U __ZNSolsEi
00000e24 S __ZNSs12_S_constructIPcEES0_T_S1_RKSaIcESt20forward_iterator_tag
         U __ZNSs4_Rep10_M_destroyERKSaIcE
         U __ZNSs4_Rep11_S_terminalE
         U __ZNSs4_Rep20_S_empty_rep_storageE
         U __ZNSs4_Rep9_S_createEmmRKSaIcE
00000b6c S __ZNSt11_Deque_baseIN3re29WalkStateIbEESaIS2_EE15_M_allocate_mapEm
00001344 S __ZNSt11_Deque_baseIN3re29WalkStateIbEESaIS2_EE15_M_create_nodesEPPS2_S6_
000019f4 S __ZNSt11_Deque_baseIN3re29WalkStateIbEESaIS2_EE15_M_create_nodesEPPS2_S6_.eh
000011f0 S __ZNSt11_Deque_baseIN3re29WalkStateIbEESaIS2_EE17_M_initialize_mapEm
000019dc S __ZNSt11_Deque_baseIN3re29WalkStateIbEESaIS2_EE17_M_initialize_mapEm.eh
000010b0 S __ZNSt11_Deque_baseIN3re29WalkStateIbEESaIS2_EED2Ev
         U __ZNSt19basic_ostringstreamIcSt11char_traitsIcESaIcEEC1ESt13_Ios_Openmode
         U __ZNSt19basic_ostringstreamIcSt11char_traitsIcESaIcEED1Ev
00000a24 S __ZNSt5dequeIN3re29WalkStateIbEESaIS2_EE16_M_push_back_auxERKS2_
00000a90 S __ZNSt5dequeIN3re29WalkStateIbEESaIS2_EE17_M_reallocate_mapEmb
00000a70 S __ZNSt5dequeIN3re29WalkStateIbEESaIS2_EE22_M_reserve_map_at_backEm
000009cc S __ZNSt5dequeIN3re29WalkStateIbEESaIS2_EE8pop_backEv
000009fc S __ZNSt5dequeIN3re29WalkStateIbEESaIS2_EE9push_backERKS2_
00001438 S __ZNSt5dequeIN3re29WalkStateIbEESaIS2_EEC2ERKS4_
         U __ZNSt9basic_iosIcSt11char_traitsIcEE5clearESt12_Ios_Iostate
         U __ZSt16__ostream_insertIcSt11char_traitsIcEERSt13basic_ostreamIT_T0_ES6_PKS3_i
         U __ZSt17__throw_bad_allocv
         U __ZSt19__throw_logic_errorPKc
         U __ZSt9terminatev
00001620 S __ZTIN3re210PCREWalkerE
00001650 S __ZTIN3re217EmptyStringWalkerE
000016a0 S __ZTIN3re26Regexp6WalkerIbEE
00001660 S __ZTSN3re210PCREWalkerE
00001680 S __ZTSN3re217EmptyStringWalkerE
000014f0 S __ZTSN3re26Regexp6WalkerIbEE
         U __ZTVN10__cxxabiv117__class_type_infoE
         U __ZTVN10__cxxabiv120__si_class_type_infoE
00001600 S __ZTVN3re210PCREWalkerE
00001630 S __ZTVN3re217EmptyStringWalkerE
000016b0 S __ZTVN3re26Regexp6WalkerIbEE
         U __ZdaPv
         U __ZdlPv
         U __Znam
         U __Znwm
         U ___assert_rtn
         U ___cxa_begin_catch
         U ___cxa_end_catch
         U ___cxa_pure_virtual
         U ___cxa_rethrow
         U ___gxx_personality_sj0
         U _abort
         U _memcpy
         U _memmove
         U _memset
         U _strlen
         U _write

build/AppDeck/AppDeck.a(nfa.o) (for architecture armv7):
00002bc4 s EH_frame0
0000260c s GCC_except_table1
00002680 s GCC_except_table13
00002694 s GCC_except_table14
000026c8 s GCC_except_table15
000026dc s GCC_except_table20
000026ec s GCC_except_table27
000026f8 s GCC_except_table28
00002628 s GCC_except_table3
00002700 s GCC_except_table35
00002714 s GCC_except_table36
0000271c s GCC_except_table37
0000272c s GCC_except_table42
0000265c s GCC_except_table5
0000266c s GCC_except_table6
         U __Unwind_SjLj_Register
         U __Unwind_SjLj_Resume
         U __Unwind_SjLj_Unregister
00002268 S __ZN10LogMessage5FlushEv
00002ce8 S __ZN10LogMessage5FlushEv.eh
000024e4 S __ZN10LogMessageC2EPKci
00002d18 S __ZN10LogMessageC2EPKci.eh
000023b0 S __ZN10LogMessageD2Ev
00002d00 S __ZN10LogMessageD2Ev.eh
0000148c S __ZN15LogMessageFatalD1Ev
000021d0 S __ZN15LogMessageFatalD2Ev
00002cd0 S __ZN15LogMessageFatalD2Ev.eh
00001978 S __ZN3re211SparseArrayIPNS_3NFA6ThreadEE12create_indexEi
00001a64 S __ZN3re211SparseArrayIPNS_3NFA6ThreadEE12set_existingEiS3_
00001404 S __ZN3re211SparseArrayIPNS_3NFA6ThreadEE4findEi
000011a8 S __ZN3re211SparseArrayIPNS_3NFA6ThreadEE6resizeEi
000012c0 S __ZN3re211SparseArrayIPNS_3NFA6ThreadEE7set_newEiS3_
00001f4c S __ZN3re211SparseArrayIPNS_3NFA6ThreadEEC2Ev
00002cb8 S __ZN3re211SparseArrayIPNS_3NFA6ThreadEEC2Ev.eh
00001df4 S __ZN3re211SparseArrayIPNS_3NFA6ThreadEED2Ev
00002ca0 S __ZN3re211SparseArrayIPNS_3NFA6ThreadEED2Ev.eh
         U __ZN3re213StringAppendFEPSsPKcz
         U __ZN3re217RunningOnValgrindEv
00000504 T __ZN3re23NFA12AddToThreadqEPNS_11SparseArrayIPNS0_6ThreadEEEiiPKcPS7_
00002c28 S __ZN3re23NFA12AddToThreadqEPNS_11SparseArrayIPNS0_6ThreadEEEiiPKcPS7_.eh
00000908 T __ZN3re23NFA13FormatCaptureEPPKc
00002c40 S __ZN3re23NFA13FormatCaptureEPPKc.eh
00000188 T __ZN3re23NFA16ComputeFirstByteEv
00002bf8 S __ZN3re23NFA16ComputeFirstByteEv.eh
0000153c S __ZN3re23NFA4StepEPNS_11SparseArrayIPNS0_6ThreadEEES5_iiPKc
00002c70 S __ZN3re23NFA4StepEPNS_11SparseArrayIPNS0_6ThreadEEES5_iiPKc.eh
00000a34 T __ZN3re23NFA6SearchERKNS_11StringPieceES3_bbPS1_i
00002c58 S __ZN3re23NFA6SearchERKNS_11StringPieceES3_bbPS1_i.eh
00000000 T __ZN3re23NFAC1EPNS_4ProgE
00000010 T __ZN3re23NFAC2EPNS_4ProgE
00002be0 S __ZN3re23NFAC2EPNS_4ProgE.eh
000003f8 T __ZN3re23NFAD1Ev
00000408 T __ZN3re23NFAD2Ev
00002c10 S __ZN3re23NFAD2Ev.eh
         U __ZN3re24Prog10EmptyFlagsERKNS_11StringPieceEPKc
00001908 S __ZN3re24Prog4Inst2hiEv
000018d0 S __ZN3re24Prog4Inst2loEv
000014cc S __ZN3re24Prog4Inst3capEv
00001494 S __ZN3re24Prog4Inst4out1Ev
00001504 S __ZN3re24Prog4Inst5emptyEv
00002188 S __ZN3re24Prog4Inst6greedyEPS0_
00001940 S __ZN3re24Prog4Inst8foldcaseEv
00001080 T __ZN3re24Prog9SearchNFAERKNS_11StringPieceES3_NS0_6AnchorENS0_9MatchKindEPS1_i
00002c88 S __ZN3re24Prog9SearchNFAERKNS_11StringPieceES3_NS0_6AnchorENS0_9MatchKindEPS1_i.eh
000020a8 S __ZN3re29SparseSet10insert_newEi
000018b0 S __ZN3re29SparseSet6insertEi
0000212c S __ZN3re29SparseSetC2Ei
00002008 S __ZN3re29SparseSetD2Ev
00002028 S __ZNK3re29SparseSet8containsEi
         U __ZNKSt15basic_stringbufIcSt11char_traitsIcESaIcEE3strEv
         U __ZNSo9_M_insertIPKvEERSoT_
         U __ZNSolsEi
00002470 S __ZNSs12_S_constructIPcEES0_T_S1_RKSaIcESt20forward_iterator_tag
         U __ZNSs4_Rep10_M_destroyERKSaIcE
         U __ZNSs4_Rep11_S_terminalE
         U __ZNSs4_Rep20_S_empty_rep_storageE
         U __ZNSs4_Rep9_S_createEmmRKSaIcE
         U __ZNSsD2Ev
00001d98 S __ZNSt12_Vector_baseIN3re211SparseArrayIPNS0_3NFA6ThreadEE10IndexValueESaIS6_EE11_M_allocateEm
00001db0 S __ZNSt15__copy_backwardILb0ESt26random_access_iterator_tagE8__copy_bIPN3re211SparseArrayIPNS3_3NFA6ThreadEE10IndexValueESA_EET0_T_SC_SB_
         U __ZNSt19basic_ostringstreamIcSt11char_traitsIcESaIcEEC1ESt13_Ios_Openmode
         U __ZNSt19basic_ostringstreamIcSt11char_traitsIcESaIcEED1Ev
00001bdc S __ZNSt6vectorIN3re211SparseArrayIPNS0_3NFA6ThreadEE10IndexValueESaIS6_EE14_M_fill_insertEN9__gnu_cxx17__normal_iteratorIPS6_S8_EEmRKS6_
00001bb4 S __ZNSt6vectorIN3re211SparseArrayIPNS0_3NFA6ThreadEE10IndexValueESaIS6_EE6resizeEmS6_
         U __ZNSt9basic_iosIcSt11char_traitsIcEE5clearESt12_Ios_Iostate
         U __ZSt16__ostream_insertIcSt11char_traitsIcEERSt13basic_ostreamIT_T0_ES6_PKS3_i
         U __ZSt17__throw_bad_allocv
         U __ZSt19__throw_logic_errorPKc
         U __ZSt20__throw_length_errorPKc
         U __ZSt9terminatev
         U __ZdaPv
         U __ZdlPv
         U __Znam
         U __Znwm
         U ___assert_rtn
         U ___gxx_personality_sj0
         U _abort
         U _memchr
         U _memcpy
         U _memmove
         U _memset
         U _strlen
         U _write

build/AppDeck/AppDeck.a(onepass.o) (for architecture armv7):
00001370 s EH_frame0
00001088 s GCC_except_table1
000010c0 s GCC_except_table16
000010d4 s GCC_except_table17
000010dc s GCC_except_table18
000010ec s GCC_except_table24
00001098 s GCC_except_table3
00001350 s _.memset_pattern
         U __Unwind_SjLj_Register
         U __Unwind_SjLj_Resume
         U __Unwind_SjLj_Unregister
00000ce4 S __ZN10LogMessage5FlushEv
000013d4 S __ZN10LogMessage5FlushEv.eh
00000f60 S __ZN10LogMessageC2EPKci
00001404 S __ZN10LogMessageC2EPKci.eh
00000e2c S __ZN10LogMessageD2Ev
000013ec S __ZN10LogMessageD2Ev.eh
00000954 S __ZN15LogMessageFatalD1Ev
00000c4c S __ZN15LogMessageFatalD2Ev
000013bc S __ZN15LogMessageFatalD2Ev.eh
00000000 T __ZN3re214OnePass_ChecksEv
         U __ZN3re217RunningOnValgrindEv
         U __ZN3re24Prog10EmptyFlagsERKNS_11StringPieceEPKc
00000004 T __ZN3re24Prog13SearchOnePassERKNS_11StringPieceES3_NS0_6AnchorENS0_9MatchKindEPS1_i
0000138c S __ZN3re24Prog13SearchOnePassERKNS_11StringPieceES3_NS0_6AnchorENS0_9MatchKindEPS1_i.eh
000009cc S __ZN3re24Prog4Inst2hiEv
00000994 S __ZN3re24Prog4Inst2loEv
00000a3c S __ZN3re24Prog4Inst3capEv
0000095c S __ZN3re24Prog4Inst4out1Ev
00000a74 S __ZN3re24Prog4Inst5emptyEv
00000a04 S __ZN3re24Prog4Inst8foldcaseEv
000003e0 T __ZN3re24Prog9IsOnePassEv
000013a4 S __ZN3re24Prog9IsOnePassEv.eh
00000b6c S __ZN3re29SparseSet10insert_newEi
00000b4c S __ZN3re29SparseSet6insertEi
00000bf0 S __ZN3re29SparseSetC2Ei
00000aac S __ZN3re29SparseSetD2Ev
00000928 t __ZN3re2L4AddQEPNS_9SparseSetEi
00000acc S __ZNK3re29SparseSet8containsEi
         U __ZNKSt15basic_stringbufIcSt11char_traitsIcESaIcEE3strEv
         U __ZNSolsEi
00000eec S __ZNSs12_S_constructIPcEES0_T_S1_RKSaIcESt20forward_iterator_tag
         U __ZNSs4_Rep10_M_destroyERKSaIcE
         U __ZNSs4_Rep11_S_terminalE
         U __ZNSs4_Rep20_S_empty_rep_storageE
         U __ZNSs4_Rep9_S_createEmmRKSaIcE
         U __ZNSt19basic_ostringstreamIcSt11char_traitsIcESaIcEEC1ESt13_Ios_Openmode
         U __ZNSt19basic_ostringstreamIcSt11char_traitsIcESaIcEED1Ev
         U __ZNSt9basic_iosIcSt11char_traitsIcEE5clearESt12_Ios_Iostate
         U __ZSt16__ostream_insertIcSt11char_traitsIcEERSt13basic_ostreamIT_T0_ES6_PKS3_i
         U __ZSt19__throw_logic_errorPKc
         U __ZSt9terminatev
         U __ZdaPv
         U __Znam
         U ___assert_rtn
         U ___divdi3
         U ___gxx_personality_sj0
         U ___stack_chk_fail
         U ___stack_chk_guard
         U _abort
         U _memcpy
         U _memset
         U _memset_pattern16
         U _strlen
         U _write

build/AppDeck/AppDeck.a(parse.o) (for architecture armv7):
00003e9c s EH_frame0
00003b28 s GCC_except_table11
00003b34 s GCC_except_table13
00003b3c s GCC_except_table16
00003b44 s GCC_except_table17
00003b4c s GCC_except_table18
00003b54 s GCC_except_table19
00003b5c s GCC_except_table20
00003b64 s GCC_except_table21
00003b6c s GCC_except_table22
00003b74 s GCC_except_table28
00003b18 s GCC_except_table3
00003b7c s GCC_except_table30
00003b90 s GCC_except_table33
00003bbc s GCC_except_table36
00003bcc s GCC_except_table41
00003bd8 s GCC_except_table45
00003be0 s GCC_except_table46
00003bf0 s GCC_except_table48
00003c5c s GCC_except_table49
00003b20 s GCC_except_table5
00003c64 s GCC_except_table51
00003c6c s GCC_except_table54
00003c80 s GCC_except_table55
00003c94 s GCC_except_table56
00003c9c s GCC_except_table57
00003cac s GCC_except_table62
         U __DefaultRuneLocale
00003e40 d __MergedGlobals
         U __Unwind_SjLj_Register
         U __Unwind_SjLj_Resume
         U __Unwind_SjLj_Unregister
0000374c S __ZN10LogMessage5FlushEv
000040e0 S __ZN10LogMessage5FlushEv.eh
000039c8 S __ZN10LogMessageC2EPKci
00004110 S __ZN10LogMessageC2EPKci.eh
00003894 S __ZN10LogMessageD2Ev
000040f8 S __ZN10LogMessageD2Ev.eh
00003554 S __ZN15LogMessageFatalD1Ev
000036b4 S __ZN15LogMessageFatalD2Ev
000040c8 S __ZN15LogMessageFatalD2Ev.eh
         U __ZN3re210chartoruneEPiPKc
         U __ZN3re210runetocharEPcPKi
         U __ZN3re211StringPiece4nposE
         U __ZN3re211StringPiece6_equalERKS0_S2_
         U __ZN3re211perl_groupsE
0000355c S __ZN3re212RegexpStatus7set_tmpEPSs
00004080 S __ZN3re212RegexpStatus7set_tmpEPSs.eh
0000360c S __ZN3re212RegexpStatusD2Ev
00004098 S __ZN3re212RegexpStatusD2Ev.eh
         U __ZN3re212posix_groupsE
00000468 T __ZN3re213CycleFoldRuneEi
000003b8 T __ZN3re214LookupCaseFoldEPNS_8CaseFoldEii
         U __ZN3re214unicode_groupsE
         U __ZN3re215num_perl_groupsE
         U __ZN3re216CharClassBuilder11RemoveAboveEi
         U __ZN3re216CharClassBuilder12AddCharClassEPS0_
         U __ZN3re216CharClassBuilder12GetCharClassEv
00001a78 T __ZN3re216CharClassBuilder13AddRangeFlagsEiiNS_6Regexp10ParseFlagsE
         U __ZN3re216CharClassBuilder6NegateEv
         U __ZN3re216CharClassBuilder8AddRangeEii
         U __ZN3re216CharClassBuilder8ContainsEi
         U __ZN3re216CharClassBuilderC1Ev
         U __ZN3re216num_posix_groupsE
         U __ZN3re216unicode_casefoldE
00001e10 T __ZN3re217ParseUnicodeGroupEPNS_11StringPieceENS_6Regexp10ParseFlagsEPNS_16CharClassBuilderEPNS_12RegexpStatusE
         U __ZN3re218num_unicode_groupsE
00002c14 T __ZN3re219ConvertLatin1ToUTF8ERKNS_11StringPieceEPSs
         U __ZN3re220num_unicode_casefoldE
00001dac T __ZN3re222MaybeParsePerlCCEscapeEPNS_11StringPieceENS_6Regexp10ParseFlagsE
00001ae4 T __ZN3re26Regexp10ParseState10DoCollapseENS_8RegexpOpE
00000760 T __ZN3re26Regexp10ParseState10PushDollarEv
00000188 T __ZN3re26Regexp10ParseState10PushRegexpEPS0_
00003ed0 S __ZN3re26Regexp10ParseState10PushRegexpEPS0_.eh
00000b24 T __ZN3re26Regexp10ParseState11DoLeftParenERKNS_11StringPieceE
00003f60 S __ZN3re26Regexp10ParseState11DoLeftParenERKNS_11StringPieceE.eh
000004a4 T __ZN3re26Regexp10ParseState11PushLiteralEi
00003ee8 S __ZN3re26Regexp10ParseState11PushLiteralEi.eh
00000fb8 T __ZN3re26Regexp10ParseState12DoRightParenEv
0000014c T __ZN3re26Regexp10ParseState12FinishRegexpEPS0_
000024dc T __ZN3re26Regexp10ParseState12ParseCCRangeEPNS_11StringPieceEPNS_9RuneRangeERKS2_PNS_12RegexpStatusE
000008ac T __ZN3re26Regexp10ParseState12PushRepeatOpENS_8RegexpOpERKNS_11StringPieceEb
00003f30 S __ZN3re26Regexp10ParseState12PushRepeatOpENS_8RegexpOpERKNS_11StringPieceEb.eh
0000068c T __ZN3re26Regexp10ParseState12PushSimpleOpENS_8RegexpOpE
00003f00 S __ZN3re26Regexp10ParseState12PushSimpleOpENS_8RegexpOpE.eh
00001030 T __ZN3re26Regexp10ParseState13DoAlternationEv
00000ce4 T __ZN3re26Regexp10ParseState13DoVerticalBarEv
00003f90 S __ZN3re26Regexp10ParseState13DoVerticalBarEv.eh
0000256c T __ZN3re26Regexp10ParseState14ParseCharClassEPNS_11StringPieceEPPS0_PNS_12RegexpStatusE
00004038 S __ZN3re26Regexp10ParseState14ParseCharClassEPNS_11StringPieceEPPS0_PNS_12RegexpStatusE.eh
0000291c T __ZN3re26Regexp10ParseState14ParsePerlFlagsEPNS_11StringPieceE
00004050 S __ZN3re26Regexp10ParseState14ParsePerlFlagsEPNS_11StringPieceE.eh
000009cc T __ZN3re26Regexp10ParseState14PushRepetitionEiiRKNS_11StringPieceEb
00003f48 S __ZN3re26Regexp10ParseState14PushRepetitionEiiRKNS_11StringPieceEb.eh
00000eb4 T __ZN3re26Regexp10ParseState15DoConcatenationEv
00003fa8 S __ZN3re26Regexp10ParseState15DoConcatenationEv.eh
000021fc T __ZN3re26Regexp10ParseState16ParseCCCharacterEPNS_11StringPieceEPiRKS2_PNS_12RegexpStatusE
0000074c T __ZN3re26Regexp10ParseState16PushWordBoundaryEb
000002e0 T __ZN3re26Regexp10ParseState17MaybeConcatStringEiNS0_10ParseFlagsE
00000c24 T __ZN3re26Regexp10ParseState20DoLeftParenNoCaptureEv
00003f78 S __ZN3re26Regexp10ParseState20DoLeftParenNoCaptureEv.eh
0000078c T __ZN3re26Regexp10ParseState7PushDotEv
00003f18 S __ZN3re26Regexp10ParseState7PushDotEv.eh
00001050 T __ZN3re26Regexp10ParseState8DoFinishEv
000003ac T __ZN3re26Regexp10ParseState8IsMarkerENS_8RegexpOpE
00000674 T __ZN3re26Regexp10ParseState9PushCaratEv
00000000 T __ZN3re26Regexp10ParseStateC1ENS0_10ParseFlagsERKNS_11StringPieceEPNS_12RegexpStatusE
00000034 T __ZN3re26Regexp10ParseStateC2ENS0_10ParseFlagsERKNS_11StringPieceEPNS_12RegexpStatusE
00000068 T __ZN3re26Regexp10ParseStateD1Ev
00000078 T __ZN3re26Regexp10ParseStateD2Ev
00003eb8 S __ZN3re26Regexp10ParseStateD2Ev.eh
         U __ZN3re26Regexp12NewCharClassEPNS_9CharClassENS0_10ParseFlagsE
         U __ZN3re26Regexp13ComputeSimpleEv
00001084 T __ZN3re26Regexp13LeadingRegexpEPS0_
000011bc T __ZN3re26Regexp13LeadingStringEPS0_PiPNS0_10ParseFlagsE
         U __ZN3re26Regexp13LiteralStringEPiiNS0_10ParseFlagsE
         U __ZN3re26Regexp15AddRuneToStringEi
         U __ZN3re26Regexp17AlternateNoFactorEPPS0_iNS0_10ParseFlagsE
         U __ZN3re26Regexp17ConcatOrAlternateENS_8RegexpOpEPPS0_iNS0_10ParseFlagsEb
00001400 T __ZN3re26Regexp17FactorAlternationEPPS0_iNS0_10ParseFlagsE
000010ac T __ZN3re26Regexp19RemoveLeadingRegexpEPS0_
00003fc0 S __ZN3re26Regexp19RemoveLeadingRegexpEPS0_.eh
000011fc T __ZN3re26Regexp19RemoveLeadingStringEPS0_i
00003fd8 S __ZN3re26Regexp19RemoveLeadingStringEPS0_i.eh
00001408 T __ZN3re26Regexp26FactorAlternationRecursiveEPPS0_iNS0_10ParseFlagsEi
00003ff0 S __ZN3re26Regexp26FactorAlternationRecursiveEPPS0_iNS0_10ParseFlagsEi.eh
         U __ZN3re26Regexp4SwapEPS0_
         U __ZN3re26Regexp5EqualEPS0_S1_
00002c68 T __ZN3re26Regexp5ParseERKNS_11StringPieceENS0_10ParseFlagsEPNS_12RegexpStatusE
00004068 S __ZN3re26Regexp5ParseERKNS_11StringPieceENS0_10ParseFlagsEPNS_12RegexpStatusE.eh
         U __ZN3re26Regexp6ConcatEPPS0_iNS0_10ParseFlagsE
         U __ZN3re26Regexp6DecrefEv
         U __ZN3re26Regexp6IncrefEv
         U __ZN3re26Regexp8ToStringEv
         U __ZN3re26RegexpC1ENS_8RegexpOpENS0_10ParseFlagsE
         U __ZN3re28fullruneEPKci
00000410 T __ZN3re29ApplyFoldEPNS_8CaseFoldEi
00000f8c t __ZN3re2L10AddLiteralEPNS_16CharClassBuilderEib
00001fd8 t __ZN3re2L11IsValidUTF8ERKNS_11StringPieceEPNS_12RegexpStatusE
000033fc t __ZN3re2L11LookupGroupERKNS_11StringPieceEPNS_6UGroupEi
0000224c t __ZN3re2L11ParseEscapeEPNS_11StringPieceEPiPNS_12RegexpStatusEi
00003360 t __ZN3re2L12ParseIntegerEPNS_11StringPieceEPi
00001c10 t __ZN3re2L14AddFoldedRangeEPNS_16CharClassBuilderEiii
00004008 s __ZN3re2L14AddFoldedRangeEPNS_16CharClassBuilderEiii.eh
00001f90 t __ZN3re2L17StringPieceToRuneEPiPNS_11StringPieceEPNS_12RegexpStatusE
0000344c t __ZN3re2L5UnHexEi
000040b0 s __ZN3re2L5UnHexEi.eh
0000200c t __ZN3re2L9AddUGroupEPNS_16CharClassBuilderEPNS_6UGroupEiNS_6Regexp10ParseFlagsE
00004020 s __ZN3re2L9AddUGroupEPNS_16CharClassBuilderEPNS_6UGroupEiNS_6Regexp10ParseFlagsE.eh
         U __ZNK3re211StringPiece4findEcm
         U __ZNKSt15basic_stringbufIcSt11char_traitsIcESaIcEE3strEv
         U __ZNSolsEi
00003954 S __ZNSs12_S_constructIPcEES0_T_S1_RKSaIcESt20forward_iterator_tag
         U __ZNSs4_Rep10_M_destroyERKSaIcE
         U __ZNSs4_Rep11_S_terminalE
         U __ZNSs4_Rep20_S_empty_rep_storageE
         U __ZNSs4_Rep9_S_createEmmRKSaIcE
         U __ZNSs6appendEPKcm
         U __ZNSs9_M_mutateEmmm
         U __ZNSsC1EPKcmRKSaIcE
         U __ZNSsD2Ev
         U __ZNSt19basic_ostringstreamIcSt11char_traitsIcESaIcEEC1ESt13_Ios_Openmode
         U __ZNSt19basic_ostringstreamIcSt11char_traitsIcESaIcEED1Ev
00003af0 S __ZNSt8_Rb_treeIN3re29RuneRangeES1_St9_IdentityIS1_ENS0_13RuneRangeLessESaIS1_EE8_M_eraseEPSt13_Rb_tree_nodeIS1_E
         U __ZNSt9basic_iosIcSt11char_traitsIcEE5clearESt12_Ios_Iostate
         U __ZSt16__ostream_insertIcSt11char_traitsIcEERSt13basic_ostreamIT_T0_ES6_PKS3_i
         U __ZSt19__throw_logic_errorPKc
         U __ZSt9terminatev
         U __ZdaPv
         U __ZdlPv
         U __Znam
         U __Znwm
         U ___assert_rtn
         U ___gxx_personality_sj0
         U ___maskrune
         U ___stack_chk_fail
         U ___stack_chk_guard
         U _abort
         U _memcpy
         U _memmove
         U _strlen
         U _write

build/AppDeck/AppDeck.a(perl_groups.o) (for architecture armv7):
00000480 d __MergedGlobals
00000140 D __ZN3re211perl_groupsE
000001d4 D __ZN3re212posix_groupsE
000001d0 D __ZN3re215num_perl_groupsE
00000474 D __ZN3re216num_posix_groupsE

build/AppDeck/AppDeck.a(prefilter.o) (for architecture armv7):
00003c68 s EH_frame0
0000377c s GCC_except_table1
000037b0 s GCC_except_table15
000037b8 s GCC_except_table17
000037c8 s GCC_except_table18
000037f8 s GCC_except_table19
00003804 s GCC_except_table20
0000380c s GCC_except_table21
00003814 s GCC_except_table23
0000381c s GCC_except_table25
00003824 s GCC_except_table26
0000382c s GCC_except_table28
00003784 s GCC_except_table3
00003834 s GCC_except_table32
0000383c s GCC_except_table33
00003844 s GCC_except_table34
00003858 s GCC_except_table37
0000386c s GCC_except_table39
0000378c s GCC_except_table4
00003874 s GCC_except_table41
0000387c s GCC_except_table44
0000388c s GCC_except_table45
00003794 s GCC_except_table5
0000389c s GCC_except_table54
000038b0 s GCC_except_table59
000037a0 s GCC_except_table6
000038c4 s GCC_except_table60
000038cc s GCC_except_table61
000038dc s GCC_except_table65
000038f4 s GCC_except_table69
000038fc s GCC_except_table72
00003904 s GCC_except_table73
00003918 s GCC_except_table74
0000392c s GCC_except_table76
         U __Unwind_SjLj_Register
         U __Unwind_SjLj_Resume
         U __Unwind_SjLj_Unregister
00002d58 S __ZN10LogMessage5FlushEv
00003edc S __ZN10LogMessage5FlushEv.eh
00002fd4 S __ZN10LogMessageC2EPKci
00003f0c S __ZN10LogMessageC2EPKci.eh
00002ea0 S __ZN10LogMessageD2Ev
00003ef4 S __ZN10LogMessageD2Ev.eh
00002398 S __ZN15LogMessageFatalD1Ev
00002cc0 S __ZN15LogMessageFatalD2Ev
00003ec4 S __ZN15LogMessageFatalD2Ev.eh
         U __ZN3re210runetocharEPcPKi
         U __ZN3re214LookupCaseFoldEPNS_8CaseFoldEii
         U __ZN3re215unicode_tolowerE
         U __ZN3re219num_unicode_tolowerE
         U __ZN3re26Regexp6DecrefEv
00002448 S __ZN3re26Regexp6WalkerIPNS_9Prefilter4InfoEE12WalkInternalEPS0_S4_b
00003e7c S __ZN3re26Regexp6WalkerIPNS_9Prefilter4InfoEE12WalkInternalEPS0_S4_b.eh
00002444 S __ZN3re26Regexp6WalkerIPNS_9Prefilter4InfoEE4CopyES4_
00002740 S __ZN3re26Regexp6WalkerIPNS_9Prefilter4InfoEE5ResetEv
00003e94 S __ZN3re26Regexp6WalkerIPNS_9Prefilter4InfoEE5ResetEv.eh
00002440 S __ZN3re26Regexp6WalkerIPNS_9Prefilter4InfoEE8PreVisitEPS0_S4_Pb
000031e8 S __ZN3re26Regexp6WalkerIPNS_9Prefilter4InfoEE9PostVisitEPS0_S4_S4_PS4_i
00003218 S __ZN3re26Regexp6WalkerIPNS_9Prefilter4InfoEEC2Ev
00003f3c S __ZN3re26Regexp6WalkerIPNS_9Prefilter4InfoEEC2Ev.eh
00003148 S __ZN3re26Regexp6WalkerIPNS_9Prefilter4InfoEED0Ev
00003f24 S __ZN3re26Regexp6WalkerIPNS_9Prefilter4InfoEED0Ev.eh
00003138 S __ZN3re26Regexp6WalkerIPNS_9Prefilter4InfoEED1Ev
000030fc S __ZN3re26Regexp6WalkerIPNS_9Prefilter4InfoEED2Ev
         U __ZN3re26Regexp8SimplifyEv
         U __ZN3re29ApplyFoldEPNS_8CaseFoldEi
00002198 T __ZN3re29Prefilter10FromRegexpEPNS_6RegexpE
00003e4c S __ZN3re29Prefilter10FromRegexpEPNS_6RegexpE.eh
00000638 T __ZN3re29Prefilter10FromStringERKSs
00000530 T __ZN3re29Prefilter2OrEPS0_S1_
00000524 T __ZN3re29Prefilter3AndEPS0_S1_
000018fc T __ZN3re29Prefilter4Info11EmptyStringEv
00003dec S __ZN3re29Prefilter4Info11EmptyStringEv.eh
000016a8 T __ZN3re29Prefilter4Info13LiteralLatin1Ei
00003dd4 S __ZN3re29Prefilter4Info13LiteralLatin1Ei.eh
000011cc T __ZN3re29Prefilter4Info3AltEPS1_S2_
00003d74 S __ZN3re29Prefilter4Info3AltEPS1_S2_.eh
000010b0 T __ZN3re29Prefilter4Info3AndEPS1_S2_
00003d5c S __ZN3re29Prefilter4Info3AndEPS1_S2_.eh
00001430 T __ZN3re29Prefilter4Info4PlusEPS1_
00003da4 S __ZN3re29Prefilter4Info4PlusEPS1_.eh
0000142c T __ZN3re29Prefilter4Info4StarEPS1_
00001338 T __ZN3re29Prefilter4Info5QuestEPS1_
00003d8c S __ZN3re29Prefilter4Info5QuestEPS1_.eh
00001a50 T __ZN3re29Prefilter4Info6CClassEPNS_9CharClassEb
00003e04 S __ZN3re29Prefilter4Info6CClassEPNS_9CharClassEb.eh
00000e50 T __ZN3re29Prefilter4Info6ConcatEPS1_S2_
00003d44 S __ZN3re29Prefilter4Info6ConcatEPS1_S2_.eh
00001e00 T __ZN3re29Prefilter4Info6Walker10ShortVisitEPNS_6RegexpEPS1_
00001e04 T __ZN3re29Prefilter4Info6Walker9PostVisitEPNS_6RegexpEPS1_S5_PS5_i
00003e34 S __ZN3re29Prefilter4Info6Walker9PostVisitEPNS_6RegexpEPS1_S5_PS5_i.eh
000023a0 S __ZN3re29Prefilter4Info6WalkerD0Ev
00003e64 S __ZN3re29Prefilter4Info6WalkerD0Ev.eh
00002388 S __ZN3re29Prefilter4Info6WalkerD1Ev
00001800 T __ZN3re29Prefilter4Info7AnyCharEv
00001500 T __ZN3re29Prefilter4Info7LiteralEi
00003dbc S __ZN3re29Prefilter4Info7LiteralEi.eh
00001854 T __ZN3re29Prefilter4Info7NoMatchEv
000018a8 T __ZN3re29Prefilter4Info8AnyMatchEv
000007ac T __ZN3re29Prefilter4Info8ToStringEv
00003d14 S __ZN3re29Prefilter4Info8ToStringEv.eh
00000788 T __ZN3re29Prefilter4Info9TakeMatchEv
00000680 T __ZN3re29Prefilter4InfoC1Ev
0000069c T __ZN3re29Prefilter4InfoC2Ev
000006b8 T __ZN3re29Prefilter4InfoD1Ev
000006c8 T __ZN3re29Prefilter4InfoD2Ev
00003cfc S __ZN3re29Prefilter4InfoD2Ev.eh
00002280 S __ZN3re29Prefilter4subsEv
00003ce4 S __ZN3re29Prefilter4subsEv.eh
000002f4 T __ZN3re29Prefilter5AndOrENS0_2OpEPS0_S2_
00003ccc S __ZN3re29Prefilter5AndOrENS0_2OpEPS0_S2_.eh
0000226c T __ZN3re29Prefilter7FromRE2EPKNS_3RE2E
00000200 T __ZN3re29Prefilter8SimplifyEv
00003cb4 S __ZN3re29Prefilter8SimplifyEv.eh
00001ce4 T __ZN3re29Prefilter9BuildInfoEPNS_6RegexpE
00003e1c S __ZN3re29Prefilter9BuildInfoEPNS_6RegexpE.eh
0000053c T __ZN3re29Prefilter9OrStringsEPSt3setISsSt4lessISsESaISsEE
00000000 T __ZN3re29PrefilterC1ENS0_2OpE
00000010 T __ZN3re29PrefilterC2ENS0_2OpE
00003c84 S __ZN3re29PrefilterC2ENS0_2OpE.eh
000000f0 T __ZN3re29PrefilterD1Ev
00000100 T __ZN3re29PrefilterD2Ev
00003c9c S __ZN3re29PrefilterD2Ev.eh
0000165c t __ZN3re2L11ToLowerRuneEi
00001300 t __ZN3re2L6CopyInERKSt3setISsSt4lessISsESaISsEEPS4_
00003934 d __ZN3re2L8alloc_idE
0000098c T __ZNK3re29Prefilter11DebugStringEv
00003d2c S __ZNK3re29Prefilter11DebugStringEv.eh
         U __ZNKSs4findEPKcmm
         U __ZNKSs7compareERKSs
         U __ZNKSt15basic_stringbufIcSt11char_traitsIcESaIcEE3strEv
         U __ZNSolsEi
00002f60 S __ZNSs12_S_constructIPcEES0_T_S1_RKSaIcESt20forward_iterator_tag
         U __ZNSs4_Rep10_M_destroyERKSaIcE
         U __ZNSs4_Rep11_S_terminalE
         U __ZNSs4_Rep20_S_empty_rep_storageE
         U __ZNSs4_Rep9_S_createEmmRKSaIcE
         U __ZNSs6appendEPKcm
         U __ZNSs6appendERKSs
         U __ZNSs6assignERKSs
         U __ZNSsC1EPKcRKSaIcE
         U __ZNSsC1EPKcmRKSaIcE
         U __ZNSsC1ERKSs
         U __ZNSsD2Ev
00002a04 S __ZNSt11_Deque_baseIN3re29WalkStateIPNS0_9Prefilter4InfoEEESaIS5_EE15_M_allocate_mapEm
00003498 S __ZNSt11_Deque_baseIN3re29WalkStateIPNS0_9Prefilter4InfoEEESaIS5_EE15_M_create_nodesEPPS5_S9_
00003f6c S __ZNSt11_Deque_baseIN3re29WalkStateIPNS0_9Prefilter4InfoEEESaIS5_EE15_M_create_nodesEPPS5_S9_.eh
0000332c S __ZNSt11_Deque_baseIN3re29WalkStateIPNS0_9Prefilter4InfoEEESaIS5_EE17_M_initialize_mapEm
00003f54 S __ZNSt11_Deque_baseIN3re29WalkStateIPNS0_9Prefilter4InfoEEESaIS5_EE17_M_initialize_mapEm.eh
000031ec S __ZNSt11_Deque_baseIN3re29WalkStateIPNS0_9Prefilter4InfoEEESaIS5_EED2Ev
00002ca8 S __ZNSt12_Vector_baseIPN3re29PrefilterESaIS2_EE11_M_allocateEm
         U __ZNSt19basic_ostringstreamIcSt11char_traitsIcESaIcEEC1ESt13_Ios_Openmode
         U __ZNSt19basic_ostringstreamIcSt11char_traitsIcESaIcEED1Ev
000028b8 S __ZNSt5dequeIN3re29WalkStateIPNS0_9Prefilter4InfoEEESaIS5_EE16_M_push_back_auxERKS5_
00002928 S __ZNSt5dequeIN3re29WalkStateIPNS0_9Prefilter4InfoEEESaIS5_EE17_M_reallocate_mapEmb
00002908 S __ZNSt5dequeIN3re29WalkStateIPNS0_9Prefilter4InfoEEESaIS5_EE22_M_reserve_map_at_backEm
00002854 S __ZNSt5dequeIN3re29WalkStateIPNS0_9Prefilter4InfoEEESaIS5_EE8pop_backEv
00002884 S __ZNSt5dequeIN3re29WalkStateIPNS0_9Prefilter4InfoEEESaIS5_EE9push_backERKS5_
0000358c S __ZNSt5dequeIN3re29WalkStateIPNS0_9Prefilter4InfoEEESaIS5_EEC2ERKS7_
00002bc8 S __ZNSt6vectorIPN3re29PrefilterESaIS2_EE13_M_insert_auxEN9__gnu_cxx17__normal_iteratorIPS2_S4_EERKS2_
0000235c S __ZNSt6vectorIPN3re29PrefilterESaIS2_EE9push_backERKS2_
00002af0 S __ZNSt8_Rb_treeISsSsSt9_IdentityISsESt4lessISsESaISsEE14_M_create_nodeERKSs
00003eac S __ZNSt8_Rb_treeISsSsSt9_IdentityISsESt4lessISsESaISsEE14_M_create_nodeERKSs.eh
00002a1c S __ZNSt8_Rb_treeISsSsSt9_IdentityISsESt4lessISsESaISsEE16_M_insert_uniqueERKSs
0000371c S __ZNSt8_Rb_treeISsSsSt9_IdentityISsESt4lessISsESaISsEE5eraseESt23_Rb_tree_const_iteratorISsE
000036ec S __ZNSt8_Rb_treeISsSsSt9_IdentityISsESt4lessISsESaISsEE8_M_eraseEPSt13_Rb_tree_nodeISsE
00002aa0 S __ZNSt8_Rb_treeISsSsSt9_IdentityISsESt4lessISsESaISsEE9_M_insertEPSt18_Rb_tree_node_baseS7_RKSs
         U __ZNSt9basic_iosIcSt11char_traitsIcEE5clearESt12_Ios_Iostate
         U __ZSt16__ostream_insertIcSt11char_traitsIcEERSt13basic_ostreamIT_T0_ES6_PKS3_i
         U __ZSt17__throw_bad_allocv
         U __ZSt18_Rb_tree_decrementPSt18_Rb_tree_node_base
         U __ZSt18_Rb_tree_incrementPKSt18_Rb_tree_node_base
         U __ZSt19__throw_logic_errorPKc
         U __ZSt20__throw_length_errorPKc
         U __ZSt28_Rb_tree_rebalance_for_erasePSt18_Rb_tree_node_baseRS_
         U __ZSt29_Rb_tree_insert_and_rebalancebPSt18_Rb_tree_node_baseS0_RS_
         U __ZSt9terminatev
00003648 S __ZStplIcSt11char_traitsIcESaIcEESbIT_T0_T1_ERKS6_S8_
00003f84 S __ZStplIcSt11char_traitsIcESaIcEESbIT_T0_T1_ERKS6_S8_.eh
00003c20 S __ZTIN3re26Regexp6WalkerIPNS_9Prefilter4InfoEEE
00003bf0 S __ZTIN3re29Prefilter4Info6WalkerE
00003750 S __ZTSN3re26Regexp6WalkerIPNS_9Prefilter4InfoEEE
00003c00 S __ZTSN3re29Prefilter4Info6WalkerE
         U __ZTVN10__cxxabiv117__class_type_infoE
         U __ZTVN10__cxxabiv120__si_class_type_infoE
00003c30 S __ZTVN3re26Regexp6WalkerIPNS_9Prefilter4InfoEEE
00003bd0 S __ZTVN3re29Prefilter4Info6WalkerE
         U __ZdaPv
         U __ZdlPv
         U __Znam
         U __Znwm
         U ___assert_rtn
         U ___cxa_begin_catch
         U ___cxa_end_catch
         U ___cxa_pure_virtual
         U ___cxa_rethrow
         U ___gxx_personality_sj0
         U _abort
         U _memcpy
         U _memmove
         U _memset
         U _strlen
         U _write

build/AppDeck/AppDeck.a(prefilter_tree.o) (for architecture armv7):
000049bc s EH_frame0
000044c8 s GCC_except_table12
000044e8 s GCC_except_table13
000044f8 s GCC_except_table15
00004500 s GCC_except_table19
0000451c s GCC_except_table20
00004540 s GCC_except_table23
00004554 s GCC_except_table24
00004420 s GCC_except_table3
00004580 s GCC_except_table36
00004438 s GCC_except_table4
0000458c s GCC_except_table42
000045c4 s GCC_except_table44
000045d8 s GCC_except_table49
00004608 s GCC_except_table55
0000444c s GCC_except_table6
0000461c s GCC_except_table63
00004628 s GCC_except_table66
00004638 s GCC_except_table67
00004640 s GCC_except_table72
00004658 s GCC_except_table76
00004460 s GCC_except_table8
00004470 s GCC_except_table9
         U __Unwind_SjLj_Register
         U __Unwind_SjLj_Resume
         U __Unwind_SjLj_Unregister
00003ed8 S __ZN10LogMessage5FlushEv
00004ba0 S __ZN10LogMessage5FlushEv.eh
00004094 S __ZN10LogMessageC2EPKci
00004bb8 S __ZN10LogMessageC2EPKci.eh
00003e18 S __ZN10LogMessageD2Ev
00004b88 S __ZN10LogMessageD2Ev.eh
00001b6c S __ZN15LogMessageFatalD1Ev
00004358 S __ZN15LogMessageFatalD2Ev
00004bd0 S __ZN15LogMessageFatalD2Ev.eh
00002210 S __ZN3re211SparseArrayIiE12create_indexEi
000020bc S __ZN3re211SparseArrayIiE12set_existingEii
00001fa0 S __ZN3re211SparseArrayIiE3setEii
00001e5c S __ZN3re211SparseArrayIiE7set_newEii
000026ec S __ZN3re211SparseArrayIiEC2Ei
00004af8 S __ZN3re211SparseArrayIiEC2Ei.eh
00003c90 S __ZN3re211SparseArrayIiED2Ev
00004b70 S __ZN3re211SparseArrayIiED2Ev.eh
00000e44 T __ZN3re213PrefilterTree13CanonicalNodeEPNS_9PrefilterE
00000e28 T __ZN3re213PrefilterTree14PrintDebugInfoEv
0000167c T __ZN3re213PrefilterTree14PrintPrefilterEi
00004ac8 S __ZN3re213PrefilterTree14PrintPrefilterEi.eh
00000710 T __ZN3re213PrefilterTree15AssignUniqueIdsEPSt6vectorISsSaISsEE
00004a38 S __ZN3re213PrefilterTree15AssignUniqueIdsEPSt6vectorISsSaISsEE.eh
00000240 T __ZN3re213PrefilterTree3AddEPNS_9PrefilterE
000049f0 S __ZN3re213PrefilterTree3AddEPNS_9PrefilterE.eh
0000056c T __ZN3re213PrefilterTree7CompileEPSt6vectorISsSaISsEE
00004a20 S __ZN3re213PrefilterTree7CompileEPSt6vectorISsSaISsEE.eh
00000000 T __ZN3re213PrefilterTreeC1Ev
00000030 T __ZN3re213PrefilterTreeC2Ev
00000060 T __ZN3re213PrefilterTreeD1Ev
00000070 T __ZN3re213PrefilterTreeD2Ev
000049d8 S __ZN3re213PrefilterTreeD2Ev.eh
         U __ZN3re217RunningOnValgrindEv
0000466c D __ZN3re231FLAGS_filtered_re2_min_atom_lenE
00001ba0 S __ZN3re29Prefilter4subsEv
00004a68 S __ZN3re29Prefilter4subsEv.eh
         U __ZN3re29PrefilterD1Ev
0000036c t __ZN3re2L8KeepPartEPNS_9PrefilterEi
00004a08 s __ZN3re2L8KeepPartEPNS_9PrefilterEi.eh
00000eb0 T __ZNK3re213PrefilterTree10NodeStringEPNS_9PrefilterE
00004a50 S __ZNK3re213PrefilterTree10NodeStringEPNS_9PrefilterE.eh
000013cc T __ZNK3re213PrefilterTree14PropagateMatchERKSt6vectorIiSaIiEEPNS_11SparseArrayIiEE
00004ab0 S __ZNK3re213PrefilterTree14PropagateMatchERKSt6vectorIiSaIiEEPNS_11SparseArrayIiEE.eh
000017f0 T __ZNK3re213PrefilterTree15DebugNodeStringEPNS_9PrefilterE
00004ae0 S __ZNK3re213PrefilterTree15DebugNodeStringEPNS_9PrefilterE.eh
00001188 T __ZNK3re213PrefilterTree19RegexpsGivenStringsERKSt6vectorIiSaIiEEPS3_
00004a98 S __ZNK3re213PrefilterTree19RegexpsGivenStringsERKSt6vectorIiSaIiEEPS3_.eh
         U __ZNKSs7compareERKSs
         U __ZNKSt15basic_stringbufIcSt11char_traitsIcESaIcEE3strEv
         U __ZNSolsEi
00004020 S __ZNSs12_S_constructIPcEES0_T_S1_RKSaIcESt20forward_iterator_tag
         U __ZNSs4_Rep10_M_destroyERKSaIcE
         U __ZNSs4_Rep11_S_terminalE
         U __ZNSs4_Rep20_S_empty_rep_storageE
         U __ZNSs4_Rep9_S_createEmmRKSaIcE
         U __ZNSs6appendEPKcm
         U __ZNSs6appendERKSs
         U __ZNSs6assignERKSs
         U __ZNSs9push_backEc
         U __ZNSsC1EPKcRKSaIcE
         U __ZNSsC1ERKSs
         U __ZNSsD2Ev
00002a20 S __ZNSt12_Vector_baseIN3re211SparseArrayIiE10IndexValueESaIS3_EE11_M_allocateEm
000030f4 S __ZNSt12_Vector_baseIN3re213PrefilterTree5EntryESaIS2_EE11_M_allocateEm
00003c78 S __ZNSt12_Vector_baseIPN3re29PrefilterESaIS2_EE11_M_allocateEm
00003734 S __ZNSt12_Vector_baseISsSaISsEE11_M_allocateEm
000026d4 S __ZNSt12_Vector_baseIiSaIiEE11_M_allocateEm
00003368 S __ZNSt12_Vector_baseIiSaIiEEC2EmRKS0_
00002a38 S __ZNSt15__copy_backwardILb0ESt26random_access_iterator_tagE8__copy_bIPN3re211SparseArrayIiE10IndexValueES7_EET0_T_S9_S8_
000032c8 S __ZNSt15__copy_backwardILb0ESt26random_access_iterator_tagE8__copy_bIPN3re213PrefilterTree5EntryES6_EET0_T_S8_S7_
0000374c S __ZNSt15__copy_backwardILb0ESt26random_access_iterator_tagE8__copy_bIPSsS3_EET0_T_S5_S4_
         U __ZNSt19basic_ostringstreamIcSt11char_traitsIcESaIcEEC1ESt13_Ios_Openmode
         U __ZNSt19basic_ostringstreamIcSt11char_traitsIcESaIcEED1Ev
00001ca4 S __ZNSt3mapISsPN3re29PrefilterESt4lessISsESaISt4pairIKSsS2_EEEixERS6_
00004a80 S __ZNSt3mapISsPN3re29PrefilterESt4lessISsESaISt4pairIKSsS2_EEEixERS6_.eh
00002864 S __ZNSt6vectorIN3re211SparseArrayIiE10IndexValueESaIS3_EE14_M_fill_insertEN9__gnu_cxx17__normal_iteratorIPS3_S5_EEmRKS3_
0000283c S __ZNSt6vectorIN3re211SparseArrayIiE10IndexValueESaIS3_EE6resizeEmS3_
00002aac S __ZNSt6vectorIN3re213PrefilterTree5EntryESaIS2_EE14_M_fill_insertEN9__gnu_cxx17__normal_iteratorIPS2_S4_EEmRKS2_
00004b10 S __ZNSt6vectorIN3re213PrefilterTree5EntryESaIS2_EE14_M_fill_insertEN9__gnu_cxx17__normal_iteratorIPS2_S4_EEmRKS2_.eh
00002a7c S __ZNSt6vectorIN3re213PrefilterTree5EntryESaIS2_EE15_M_erase_at_endEPS2_
00001e20 S __ZNSt6vectorIN3re213PrefilterTree5EntryESaIS2_EE6resizeEmS2_
00003de8 S __ZNSt6vectorIN3re213PrefilterTree5EntryESaIS2_EED2Ev
00003b98 S __ZNSt6vectorIPN3re29PrefilterESaIS2_EE13_M_insert_auxEN9__gnu_cxx17__normal_iteratorIPS2_S4_EERKS2_
000041e8 S __ZNSt6vectorIPN3re29PrefilterESaIS2_EE14_M_fill_insertEN9__gnu_cxx17__normal_iteratorIPS2_S4_EEmRKS2_
000041bc S __ZNSt6vectorIPN3re29PrefilterESaIS2_EE6resizeEmS2_
00001b74 S __ZNSt6vectorIPN3re29PrefilterESaIS2_EE9push_backERKS2_
00003394 S __ZNSt6vectorISsSaISsEE13_M_insert_auxEN9__gnu_cxx17__normal_iteratorIPSsS1_EERKSs
00004b40 S __ZNSt6vectorISsSaISsEE13_M_insert_auxEN9__gnu_cxx17__normal_iteratorIPSsS1_EERKSs.eh
00001df0 S __ZNSt6vectorISsSaISsEE9push_backERKSs
00003a6c S __ZNSt6vectorIiSaIiEE13_M_insert_auxEN9__gnu_cxx17__normal_iteratorIPiS1_EERKi
00002594 S __ZNSt6vectorIiSaIiEE15_M_range_insertIN9__gnu_cxx17__normal_iteratorIPKiS1_EEEEvNS4_IPiS1_EET_SA_St20forward_iterator_tag
00001c7c S __ZNSt6vectorIiSaIiEE9push_backERKi
00003330 S __ZNSt6vectorIiSaIiEEC2ERKS1_
00003234 S __ZNSt6vectorIiSaIiEEaSERKS1_
00003a3c S __ZNSt8_Rb_treeISsSt4pairIKSsPN3re29PrefilterEESt10_Select1stIS5_ESt4lessISsESaIS5_EE11lower_boundERS1_
0000395c S __ZNSt8_Rb_treeISsSt4pairIKSsPN3re29PrefilterEESt10_Select1stIS5_ESt4lessISsESaIS5_EE14_M_create_nodeERKS5_
00004b58 S __ZNSt8_Rb_treeISsSt4pairIKSsPN3re29PrefilterEESt10_Select1stIS5_ESt4lessISsESaIS5_EE14_M_create_nodeERKS5_.eh
000038d8 S __ZNSt8_Rb_treeISsSt4pairIKSsPN3re29PrefilterEESt10_Select1stIS5_ESt4lessISsESaIS5_EE16_M_insert_uniqueERKS5_
0000379c S __ZNSt8_Rb_treeISsSt4pairIKSsPN3re29PrefilterEESt10_Select1stIS5_ESt4lessISsESaIS5_EE16_M_insert_uniqueESt17_Rb_tree_iteratorIS5_ERKS5_
00003b48 S __ZNSt8_Rb_treeISsSt4pairIKSsPN3re29PrefilterEESt10_Select1stIS5_ESt4lessISsESaIS5_EE4findERS1_
000043f0 S __ZNSt8_Rb_treeISsSt4pairIKSsPN3re29PrefilterEESt10_Select1stIS5_ESt4lessISsESaIS5_EE8_M_eraseEPSt13_Rb_tree_nodeIS5_E
00003888 S __ZNSt8_Rb_treeISsSt4pairIKSsPN3re29PrefilterEESt10_Select1stIS5_ESt4lessISsESaIS5_EE9_M_insertEPSt18_Rb_tree_node_baseSD_RKS5_
         U __ZNSt9basic_iosIcSt11char_traitsIcEE5clearESt12_Ios_Iostate
000024d8 S __ZSt13__adjust_heapIN9__gnu_cxx17__normal_iteratorIPiSt6vectorIiSaIiEEEEiiEvT_T0_S8_T1_
00002470 S __ZSt13__heap_selectIN9__gnu_cxx17__normal_iteratorIPiSt6vectorIiSaIiEEEEEvT_S7_S7_
000023e4 S __ZSt16__insertion_sortIN9__gnu_cxx17__normal_iteratorIPiSt6vectorIiSaIiEEEEEvT_S7_
000022fc S __ZSt16__introsort_loopIN9__gnu_cxx17__normal_iteratorIPiSt6vectorIiSaIiEEEEiEvT_S7_T0_
         U __ZSt16__ostream_insertIcSt11char_traitsIcEERSt13basic_ostreamIT_T0_ES6_PKS3_i
         U __ZSt17__throw_bad_allocv
         U __ZSt18_Rb_tree_decrementPSt18_Rb_tree_node_base
         U __ZSt18_Rb_tree_incrementPKSt18_Rb_tree_node_base
         U __ZSt18_Rb_tree_incrementPSt18_Rb_tree_node_base
         U __ZSt19__throw_logic_errorPKc
         U __ZSt20__throw_length_errorPKc
00002444 S __ZSt21__unguarded_partitionIN9__gnu_cxx17__normal_iteratorIPiSt6vectorIiSaIiEEEEiET_S7_S7_T0_
0000239c S __ZSt22__final_insertion_sortIN9__gnu_cxx17__normal_iteratorIPiSt6vectorIiSaIiEEEEEvT_S7_
00003118 S __ZSt26__uninitialized_fill_n_auxIPN3re213PrefilterTree5EntryEmS2_EvT_T0_RKT1_St12__false_type
00004b28 S __ZSt26__uninitialized_fill_n_auxIPN3re213PrefilterTree5EntryEmS2_EvT_T0_RKT1_St12__false_type.eh
         U __ZSt29_Rb_tree_insert_and_rebalancebPSt18_Rb_tree_node_baseS0_RS_
00002564 S __ZSt9make_heapIN9__gnu_cxx17__normal_iteratorIPiSt6vectorIiSaIiEEEEEvT_S7_
000024ac S __ZSt9sort_heapIN9__gnu_cxx17__normal_iteratorIPiSt6vectorIiSaIiEEEEEvT_S7_
         U __ZSt9terminatev
         U __ZdaPv
         U __ZdlPv
         U __Znam
         U __Znwm
         U ___assert_rtn
         U ___cxa_begin_catch
         U ___cxa_end_catch
         U ___cxa_rethrow
         U ___gxx_personality_sj0
         U ___stack_chk_fail
         U ___stack_chk_guard
         U _abort
         U _memcpy
         U _memmove
         U _memset
         U _snprintf
         U _strlen
         U _write

build/AppDeck/AppDeck.a(prog.o) (for architecture armv7):
00001be8 s EH_frame0
00001794 s GCC_except_table12
000017a8 s GCC_except_table13
000017b4 s GCC_except_table14
000017c4 s GCC_except_table15
000017dc s GCC_except_table16
000017e4 s GCC_except_table17
00001808 s GCC_except_table21
0000181c s GCC_except_table23
00001838 s GCC_except_table27
0000184c s GCC_except_table28
00001854 s GCC_except_table29
00001864 s GCC_except_table34
         U __Unwind_SjLj_Register
         U __Unwind_SjLj_Resume
         U __Unwind_SjLj_Unregister
00001250 S __ZN10LogMessage5FlushEv
00001cdc S __ZN10LogMessage5FlushEv.eh
000014cc S __ZN10LogMessageC2EPKci
00001d0c S __ZN10LogMessageC2EPKci.eh
00001398 S __ZN10LogMessageD2Ev
00001cf4 S __ZN10LogMessageD2Ev.eh
000011b0 S __ZN15LogMessageFatalD1Ev
000011b8 S __ZN15LogMessageFatalD2Ev
00001cc4 S __ZN15LogMessageFatalD2Ev.eh
         U __ZN3re212StringPrintfEPKcz
         U __ZN3re213StringAppendFEPSsPKcz
         U __ZN3re217RunningOnValgrindEv
00000c8c T __ZN3re24Prog10EmptyFlagsERKNS_11StringPieceEPKc
00000da4 T __ZN3re24Prog13MarkByteRangeEii
00001cac S __ZN3re24Prog13MarkByteRangeEii.eh
00000fc0 T __ZN3re24Prog14ComputeByteMapEv
000007e0 T __ZN3re24Prog14DumpUnanchoredEv
00001c64 S __ZN3re24Prog14DumpUnanchoredEv.eh
00000410 T __ZN3re24Prog4DumpEv
00001c1c S __ZN3re24Prog4DumpEv.eh
00000084 T __ZN3re24Prog4Inst11InitCaptureEij
00000038 T __ZN3re24Prog4Inst13InitByteRangeEiiij
000000c0 T __ZN3re24Prog4Inst14InitEmptyWidthENS_7EmptyOpEj
00001178 S __ZN3re24Prog4Inst2hiEv
00001140 S __ZN3re24Prog4Inst2loEv
0000019c T __ZN3re24Prog4Inst4DumpEv
00001108 S __ZN3re24Prog4Inst4out1Ev
00000000 T __ZN3re24Prog4Inst7InitAltEjj
00000134 T __ZN3re24Prog4Inst7InitNopEj
00000168 T __ZN3re24Prog4Inst8InitFailEv
0000101c S __ZN3re24Prog4Inst8match_idEv
000000fc T __ZN3re24Prog4Inst9InitMatchEi
000008a0 T __ZN3re24Prog8OptimizeEv
00001c7c S __ZN3re24Prog8OptimizeEv.eh
00000288 T __ZN3re24ProgC1Ev
00000298 T __ZN3re24ProgC2Ev
000002dc T __ZN3re24ProgD1Ev
000002ec T __ZN3re24ProgD2Ev
00001c04 S __ZN3re24ProgD2Ev.eh
000016b4 S __ZN3re29SparseSet10insert_newEi
00001614 S __ZN3re29SparseSet6insertEi
00001738 S __ZN3re29SparseSetC2Ei
000015f4 S __ZN3re29SparseSetD2Ev
0000060c t __ZN3re2L12ProgToStringEPNS_4ProgEPNS_9SparseSetE
00001c4c s __ZN3re2L12ProgToStringEPNS_4ProgEPNS_9SparseSetE.eh
00000b70 t __ZN3re2L7IsMatchEPNS_4ProgEPNS0_4InstE
00001c94 s __ZN3re2L7IsMatchEPNS_4ProgEPNS0_4InstE.eh
00001634 S __ZNK3re29SparseSet8containsEi
         U __ZNKSt15basic_stringbufIcSt11char_traitsIcESaIcEE3strEv
         U __ZNSolsEi
00001458 S __ZNSs12_S_constructIPcEES0_T_S1_RKSaIcESt20forward_iterator_tag
         U __ZNSs4_Rep10_M_destroyERKSaIcE
         U __ZNSs4_Rep11_S_terminalE
         U __ZNSs4_Rep20_S_empty_rep_storageE
         U __ZNSs4_Rep9_S_createEmmRKSaIcE
         U __ZNSs6appendERKSs
         U __ZNSsC1ERKSs
         U __ZNSsD2Ev
         U __ZNSt19basic_ostringstreamIcSt11char_traitsIcESaIcEEC1ESt13_Ios_Openmode
         U __ZNSt19basic_ostringstreamIcSt11char_traitsIcESaIcEED1Ev
         U __ZNSt9basic_iosIcSt11char_traitsIcEE5clearESt12_Ios_Iostate
         U __ZSt16__ostream_insertIcSt11char_traitsIcEERSt13basic_ostreamIT_T0_ES6_PKS3_i
         U __ZSt19__throw_logic_errorPKc
         U __ZSt9terminatev
00001054 S __ZStplIcSt11char_traitsIcESaIcEESbIT_T0_T1_ERKS6_S8_
00001c34 S __ZStplIcSt11char_traitsIcESaIcEESbIT_T0_T1_ERKS6_S8_.eh
         U __ZdaPv
         U __Znam
         U ___assert_rtn
         U ___gxx_personality_sj0
         U _abort
         U _memcpy
         U _memset
         U _pthread_rwlock_destroy
         U _pthread_rwlock_init
         U _strlen
         U _write

build/AppDeck/AppDeck.a(re2.o) (for architecture armv7):
00006184 s EH_frame0
00005b04 s GCC_except_table10
00005b0c s GCC_except_table11
00005b20 s GCC_except_table12
00005b28 s GCC_except_table13
00005b4c s GCC_except_table15
00005b5c s GCC_except_table17
00005b6c s GCC_except_table18
00005b7c s GCC_except_table20
00005b90 s GCC_except_table25
00005b9c s GCC_except_table26
00005cb0 s GCC_except_table27
00005cd0 s GCC_except_table28
00005aa0 s GCC_except_table3
00005ce0 s GCC_except_table30
00005cec s GCC_except_table31
00005aa8 s GCC_except_table4
00005af4 s GCC_except_table6
00005afc s GCC_except_table8
00005d10 s GCC_except_table91
00005d20 s GCC_except_table92
00005d28 s GCC_except_table96
         U __DefaultRuneLocale
0000639c b __MergedGlobals
         U __Unwind_SjLj_Register
         U __Unwind_SjLj_Resume
         U __Unwind_SjLj_Unregister
000057bc S __ZN10LogMessage5FlushEv
00006368 S __ZN10LogMessage5FlushEv.eh
00005978 S __ZN10LogMessageC2EPKci
00006380 S __ZN10LogMessageC2EPKci.eh
000056fc S __ZN10LogMessageD2Ev
00006350 S __ZN10LogMessageD2Ev.eh
000056e0 S __ZN3re212RegexpStatusD2Ev
         U __ZN3re213SStringPrintfEPSsPKcz
00006398 S __ZN3re215FLAGS_trace_re2E
         U __ZN3re215PrefixSuccessorERKNS_11StringPieceE
000015ec T __ZN3re23RE210FullMatchNERKNS_11StringPieceERKS0_PKPKNS0_3ArgEi
000018dc T __ZN3re23RE211MaxSubmatchERKNS_11StringPieceE
00005d41 S __ZN3re23RE212PartialMatchE
000043d4 T __ZN3re23RE213GlobalReplaceEPSsRKS0_RKNS_11StringPieceE
00006308 S __ZN3re23RE213GlobalReplaceEPSsRKS0_RKNS_11StringPieceE.eh
00001854 T __ZN3re23RE213PartialMatchNERKNS_11StringPieceERKS0_PKPKNS0_3ArgEi
00005d43 S __ZN3re23RE214FindAndConsumeE
000018a8 T __ZN3re23RE215FindAndConsumeNEPNS_11StringPieceERKS0_PKPKNS0_3ArgEi
00004f40 T __ZN3re23RE23Arg10parse_charEPKciPv
0000558c T __ZN3re23RE23Arg10parse_longEPKciPv
00004f10 T __ZN3re23RE23Arg10parse_nullEPKciPv
000054ec T __ZN3re23RE23Arg10parse_uintEPKciPv
000053dc T __ZN3re23RE23Arg11parse_floatEPKciPv
000053ec T __ZN3re23RE23Arg11parse_shortEPKciPv
00004f58 T __ZN3re23RE23Arg11parse_ucharEPKciPv
000055bc T __ZN3re23RE23Arg11parse_ulongEPKciPv
00005314 T __ZN3re23RE23Arg12parse_doubleEPKciPv
00004f1c T __ZN3re23RE23Arg12parse_stringEPKciPv
0000541c T __ZN3re23RE23Arg12parse_ushortEPKciPv
00005474 T __ZN3re23RE23Arg13parse_int_hexEPKciPv
00005598 T __ZN3re23RE23Arg14parse_long_hexEPKciPv
000055ec T __ZN3re23RE23Arg14parse_longlongEPKciPv
00005514 T __ZN3re23RE23Arg14parse_uint_hexEPKciPv
0000549c T __ZN3re23RE23Arg15parse_int_octalEPKciPv
000051a4 T __ZN3re23RE23Arg15parse_int_radixEPKciPvi
000053f8 T __ZN3re23RE23Arg15parse_short_hexEPKciPv
000055c8 T __ZN3re23RE23Arg15parse_ulong_hexEPKciPv
0000561c T __ZN3re23RE23Arg15parse_ulonglongEPKciPv
000054c4 T __ZN3re23RE23Arg16parse_int_cradixEPKciPv
000055a4 T __ZN3re23RE23Arg16parse_long_octalEPKciPv
00004f70 T __ZN3re23RE23Arg16parse_long_radixEPKciPvi
0000553c T __ZN3re23RE23Arg16parse_uint_octalEPKciPv
000051cc T __ZN3re23RE23Arg16parse_uint_radixEPKciPvi
00005428 T __ZN3re23RE23Arg16parse_ushort_hexEPKciPv
000055b0 T __ZN3re23RE23Arg17parse_long_cradixEPKciPv
00005404 T __ZN3re23RE23Arg17parse_short_octalEPKciPv
00005144 T __ZN3re23RE23Arg17parse_short_radixEPKciPvi
00004f34 T __ZN3re23RE23Arg17parse_stringpieceEPKciPv
00005564 T __ZN3re23RE23Arg17parse_uint_cradixEPKciPv
000055d4 T __ZN3re23RE23Arg17parse_ulong_octalEPKciPv
000050b8 T __ZN3re23RE23Arg17parse_ulong_radixEPKciPvi
000055f8 T __ZN3re23RE23Arg18parse_longlong_hexEPKciPv
00005410 T __ZN3re23RE23Arg18parse_short_cradixEPKciPv
000055e0 T __ZN3re23RE23Arg18parse_ulong_cradixEPKciPv
00005434 T __ZN3re23RE23Arg18parse_ushort_octalEPKciPv
00005174 T __ZN3re23RE23Arg18parse_ushort_radixEPKciPvi
00005628 T __ZN3re23RE23Arg19parse_ulonglong_hexEPKciPv
00005440 T __ZN3re23RE23Arg19parse_ushort_cradixEPKciPv
00005604 T __ZN3re23RE23Arg20parse_longlong_octalEPKciPv
000051f4 T __ZN3re23RE23Arg20parse_longlong_radixEPKciPvi
00005610 T __ZN3re23RE23Arg21parse_longlong_cradixEPKciPv
00005634 T __ZN3re23RE23Arg21parse_ulonglong_octalEPKciPv
00005280 T __ZN3re23RE23Arg21parse_ulonglong_radixEPKciPvi
00005640 T __ZN3re23RE23Arg22parse_ulonglong_cradixEPKciPv
0000544c T __ZN3re23RE23Arg9parse_intEPKciPv
000001d0 T __ZN3re23RE24InitERKNS_11StringPieceERKNS0_7OptionsE
000061b8 S __ZN3re23RE24InitERKNS_11StringPieceERKNS0_7OptionsE.eh
00005d42 S __ZN3re23RE27ConsumeE
00004638 T __ZN3re23RE27ExtractERKNS_11StringPieceERKS0_S3_PSs
00005d44 S __ZN3re23RE27Options14kDefaultMaxMemE
00000000 T __ZN3re23RE27OptionsC1ENS0_13CannedOptionsE
0000003c T __ZN3re23RE27OptionsC2ENS0_13CannedOptionsE
00001930 T __ZN3re23RE27ReplaceEPSsRKS0_RKNS_11StringPieceE
000062c0 S __ZN3re23RE27ReplaceEPSsRKS0_RKNS_11StringPieceE.eh
00001874 T __ZN3re23RE28ConsumeNEPNS_11StringPieceERKS0_PKPKNS0_3ArgEi
00005d40 S __ZN3re23RE29FullMatchE
000046d4 T __ZN3re23RE29QuoteMetaERKNS_11StringPieceE
00006320 S __ZN3re23RE29QuoteMetaERKNS_11StringPieceE.eh
00000078 T __ZN3re23RE2C1EPKc
00000aac T __ZN3re23RE2C1ERKNS_11StringPieceE
00000be8 T __ZN3re23RE2C1ERKNS_11StringPieceERKNS0_7OptionsE
00000964 T __ZN3re23RE2C1ERKSs
00000088 T __ZN3re23RE2C2EPKc
000061a0 S __ZN3re23RE2C2EPKc.eh
00000abc T __ZN3re23RE2C2ERKNS_11StringPieceE
000061e8 S __ZN3re23RE2C2ERKNS_11StringPieceE.eh
00000bf8 T __ZN3re23RE2C2ERKNS_11StringPieceERKNS0_7OptionsE
00006200 S __ZN3re23RE2C2ERKNS_11StringPieceERKNS0_7OptionsE.eh
00000974 T __ZN3re23RE2C2ERKSs
000061d0 S __ZN3re23RE2C2ERKSs.eh
00001238 T __ZN3re23RE2D1Ev
00001248 T __ZN3re23RE2D2Ev
00006260 S __ZN3re23RE2D2Ev.eh
         U __ZN3re24Prog13SearchOnePassERKNS_11StringPieceES3_NS0_6AnchorENS0_9MatchKindEPS1_i
         U __ZN3re24Prog14SearchBitStateERKNS_11StringPieceES3_NS0_6AnchorENS0_9MatchKindEPS1_i
         U __ZN3re24Prog18PossibleMatchRangeEPSsS1_i
         U __ZN3re24Prog9IsOnePassEv
         U __ZN3re24Prog9SearchDFAERKNS_11StringPieceES3_NS0_6AnchorENS0_9MatchKindEPS1_PbPSt6vectorIiSaIiEE
         U __ZN3re24Prog9SearchNFAERKNS_11StringPieceES3_NS0_6AnchorENS0_9MatchKindEPS1_i
         U __ZN3re24ProgD1Ev
         U __ZN3re26Regexp11NumCapturesEv
         U __ZN3re26Regexp12CaptureNamesEv
         U __ZN3re26Regexp13CompileToProgEx
         U __ZN3re26Regexp13NamedCapturesEv
         U __ZN3re26Regexp14RequiredPrefixEPSsPbPPS0_
         U __ZN3re26Regexp20CompileToReverseProgEx
         U __ZN3re26Regexp5ParseERKNS_11StringPieceENS0_10ParseFlagsEPNS_12RegexpStatusE
         U __ZN3re26Regexp6DecrefEv
         U __ZN3re26Regexp6IncrefEv
         U __ZN3re27CEscapeERKNS_11StringPieceE
000056c4 S __ZN3re29MutexLockC2EPNS_5MutexE
000056ac S __ZN3re29MutexLockD2Ev
00006144 d __ZN3re2L11empty_mutexE
00004ff4 t __ZN3re2L15TerminateNumberEPcPKcPi
00005324 t __ZN3re2L18parse_double_floatEPKcibPv
00000e64 t __ZN3re2L5truncERKNS_11StringPieceE
00006230 s __ZN3re2L5truncERKNS_11StringPieceE.eh
         U __ZNK3re211StringPiece6substrEmm
         U __ZNK3re212RegexpStatus4TextEv
00001404 T __ZNK3re23RE211ProgramSizeEv
00000fd8 T __ZNK3re23RE211ReverseProgEv
00006248 S __ZNK3re23RE211ReverseProgEv.eh
00004e3c T __ZNK3re23RE218CheckRewriteStringERKNS_11StringPieceEPSs
00004814 T __ZNK3re23RE218PossibleMatchRangeEPSsS1_i
00006338 S __ZNK3re23RE218PossibleMatchRangeEPSsS1_i.eh
00001500 T __ZNK3re23RE219CapturingGroupNamesEv
00006290 S __ZNK3re23RE219CapturingGroupNamesEv.eh
00001414 T __ZNK3re23RE220NamedCapturingGroupsEv
00006278 S __ZNK3re23RE220NamedCapturingGroupsEv.eh
00004e18 T __ZNK3re23RE223NumberOfCapturingGroupsEv
00001b68 T __ZNK3re23RE25MatchERKNS_11StringPieceEiiNS0_6AnchorEPS1_i
000062d8 S __ZNK3re23RE25MatchERKNS_11StringPieceEiiNS0_6AnchorEPS1_i.eh
0000160c T __ZNK3re23RE27DoMatchERKNS_11StringPieceENS0_6AnchorEPiPKPKNS0_3ArgEi
000062a8 S __ZNK3re23RE27DoMatchERKNS_11StringPieceENS0_6AnchorEPiPKPKNS0_3ArgEi.eh
00000cf4 T __ZNK3re23RE27Options10ParseFlagsEv
00006218 S __ZNK3re23RE27Options10ParseFlagsEv.eh
0000415c T __ZNK3re23RE27RewriteEPSsRKNS_11StringPieceEPS3_i
000062f0 S __ZNK3re23RE27RewriteEPSsRKNS_11StringPieceEPS3_i.eh
         U __ZNKSs6substrEmm
         U __ZNKSt15basic_stringbufIcSt11char_traitsIcESaIcEE3strEv
         U __ZNSolsEi
         U __ZNSs12_M_leak_hardEv
00005904 S __ZNSs12_S_constructIPcEES0_T_S1_RKSaIcESt20forward_iterator_tag
         U __ZNSs4_Rep10_M_destroyERKSaIcE
         U __ZNSs4_Rep11_S_terminalE
         U __ZNSs4_Rep20_S_empty_rep_storageE
         U __ZNSs4_Rep9_S_createEmmRKSaIcE
         U __ZNSs4swapERSs
         U __ZNSs6appendEPKcm
         U __ZNSs6appendERKSs
         U __ZNSs6assignEPKcm
         U __ZNSs6assignERKSs
         U __ZNSs7replaceEmmPKcm
         U __ZNSs7reserveEm
         U __ZNSs9_M_mutateEmmm
         U __ZNSs9push_backEc
         U __ZNSsC1EPKcRKSaIcE
         U __ZNSsC1EPKcmRKSaIcE
         U __ZNSsC1ERKSs
         U __ZNSsD2Ev
         U __ZNSt19basic_ostringstreamIcSt11char_traitsIcESaIcEEC1ESt13_Ios_Openmode
         U __ZNSt19basic_ostringstreamIcSt11char_traitsIcESaIcEED1Ev
0000567c S __ZNSt8_Rb_treeISsSt4pairIKSsiESt10_Select1stIS2_ESt4lessISsESaIS2_EE8_M_eraseEPSt13_Rb_tree_nodeIS2_E
0000564c S __ZNSt8_Rb_treeIiSt4pairIKiSsESt10_Select1stIS2_ESt4lessIiESaIS2_EE8_M_eraseEPSt13_Rb_tree_nodeIS2_E
         U __ZNSt9basic_iosIcSt11char_traitsIcEE5clearESt12_Ios_Iostate
         U __ZSt16__ostream_insertIcSt11char_traitsIcEERSt13basic_ostreamIT_T0_ES6_PKS3_i
         U __ZSt19__throw_logic_errorPKc
         U __ZSt9terminatev
         U __ZdaPv
         U __ZdlPv
         U __Znam
         U __Znwm
         U ___assert_rtn
         U ___divdi3
         U ___error
         U ___gxx_personality_sj0
         U ___maskrune
         U ___stack_chk_fail
         U ___stack_chk_guard
         U _abort
         U _memcmp
         U _memcpy
         U _memmove
         U _memset
         U _pthread_mutex_lock
         U _pthread_mutex_unlock
         U _pthread_rwlock_destroy
         U _pthread_rwlock_init
         U _pthread_rwlock_unlock
         U _pthread_rwlock_wrlock
         U _strlen
         U _strtod
         U _strtof
         U _strtol
         U _strtoll
         U _strtoul
         U _strtoull
         U _write

build/AppDeck/AppDeck.a(regexp.o) (for architecture armv7):
00005058 s EH_frame0
000049ec s GCC_except_table100
00004a00 s GCC_except_table101
00004a14 s GCC_except_table103
00004a24 s GCC_except_table104
00004a2c s GCC_except_table106
00004a3c s GCC_except_table107
000048d8 s GCC_except_table11
00004a44 s GCC_except_table111
00004a58 s GCC_except_table116
00004a60 s GCC_except_table118
00004a70 s GCC_except_table119
00004a84 s GCC_except_table120
00004a8c s GCC_except_table121
00004a9c s GCC_except_table126
000048ec s GCC_except_table15
00004900 s GCC_except_table28
00004910 s GCC_except_table29
000048bc s GCC_except_table3
00004924 s GCC_except_table33
00004934 s GCC_except_table35
00004944 s GCC_except_table37
00004954 s GCC_except_table39
00004964 s GCC_except_table50
000048d0 s GCC_except_table6
00004978 s GCC_except_table63
00004988 s GCC_except_table64
00004998 s GCC_except_table82
000049a8 s GCC_except_table84
000049b0 s GCC_except_table88
000049c0 s GCC_except_table89
000049c8 s GCC_except_table93
000049dc s GCC_except_table95
000049e4 s GCC_except_table99
         U __Unwind_SjLj_Register
         U __Unwind_SjLj_Resume
         U __Unwind_SjLj_Unregister
0000449c S __ZN10LogMessage5FlushEv
00005344 S __ZN10LogMessage5FlushEv.eh
00004718 S __ZN10LogMessageC2EPKci
00005374 S __ZN10LogMessageC2EPKci.eh
000045e4 S __ZN10LogMessageD2Ev
0000535c S __ZN10LogMessageD2Ev.eh
00001f00 S __ZN15LogMessageFatalD1Ev
00004404 S __ZN15LogMessageFatalD2Ev
0000532c S __ZN15LogMessageFatalD2Ev.eh
         U __ZN3re210runetocharEPcPKi
00001274 T __ZN3re212RegexpStatus4CopyERKS0_
00000fe0 T __ZN3re212RegexpStatus8CodeTextENS_16RegexpStatusCodeE
00001a14 T __ZN3re216CharClassBuilder10FoldsASCIIEv
00001aa4 T __ZN3re216CharClassBuilder11RemoveAboveEi
000019a8 T __ZN3re216CharClassBuilder12AddCharClassEPS0_
00001e5c T __ZN3re216CharClassBuilder12GetCharClassEv
00001a28 T __ZN3re216CharClassBuilder4CopyEv
00001b98 T __ZN3re216CharClassBuilder6NegateEv
00005164 S __ZN3re216CharClassBuilder6NegateEv.eh
00001790 T __ZN3re216CharClassBuilder8AddRangeEii
000019d4 T __ZN3re216CharClassBuilder8ContainsEi
00001758 T __ZN3re216CharClassBuilderC1Ev
00001774 T __ZN3re216CharClassBuilderC2Ev
00004358 S __ZN3re217NumCapturesWalker10ShortVisitEPNS_6RegexpEi
00005314 S __ZN3re217NumCapturesWalker10ShortVisitEPNS_6RegexpEi.eh
00004348 S __ZN3re217NumCapturesWalker8PreVisitEPNS_6RegexpEiPb
000042a8 S __ZN3re217NumCapturesWalkerD0Ev
000052fc S __ZN3re217NumCapturesWalkerD0Ev.eh
000020d0 S __ZN3re217NumCapturesWalkerD1Ev
00003118 S __ZN3re218CaptureNamesWalker10ShortVisitEPNS_6RegexpEi
000051dc S __ZN3re218CaptureNamesWalker10ShortVisitEPNS_6RegexpEi.eh
0000306c S __ZN3re218CaptureNamesWalker8PreVisitEPNS_6RegexpEiPb
00002fcc S __ZN3re218CaptureNamesWalkerD0Ev
000051c4 S __ZN3re218CaptureNamesWalkerD0Ev.eh
000020f0 S __ZN3re218CaptureNamesWalkerD1Ev
00002eac S __ZN3re218CaptureNamesWalkerD2Ev
000051ac S __ZN3re218CaptureNamesWalkerD2Ev.eh
00003d60 S __ZN3re219NamedCapturesWalker10ShortVisitEPNS_6RegexpEi
000052b4 S __ZN3re219NamedCapturesWalker10ShortVisitEPNS_6RegexpEi.eh
00003cd4 S __ZN3re219NamedCapturesWalker8PreVisitEPNS_6RegexpEiPb
00003c34 S __ZN3re219NamedCapturesWalkerD0Ev
0000529c S __ZN3re219NamedCapturesWalkerD0Ev.eh
000020e0 S __ZN3re219NamedCapturesWalkerD1Ev
00003b50 S __ZN3re219NamedCapturesWalkerD2Ev
00005284 S __ZN3re219NamedCapturesWalkerD2Ev.eh
00000968 T __ZN3re26Regexp10NewLiteralEiNS0_10ParseFlagsE
00001284 T __ZN3re26Regexp11NumCapturesEv
0000511c S __ZN3re26Regexp11NumCapturesEv.eh
00001454 T __ZN3re26Regexp12CaptureNamesEv
0000514c S __ZN3re26Regexp12CaptureNamesEv.eh
00000a50 T __ZN3re26Regexp12NewCharClassEPNS_9CharClassENS0_10ParseFlagsE
000001a0 T __ZN3re26Regexp12QuickDestroyEv
0000508c S __ZN3re26Regexp12QuickDestroyEv.eh
0000099c T __ZN3re26Regexp13LiteralStringEPiiNS0_10ParseFlagsE
0000136c T __ZN3re26Regexp13NamedCapturesEv
00005134 S __ZN3re26Regexp13NamedCapturesEv.eh
0000153c T __ZN3re26Regexp14RequiredPrefixEPSsPbPPS0_
00000560 T __ZN3re26Regexp15AddRuneToStringEi
000008d4 T __ZN3re26Regexp17AlternateNoFactorEPPS0_iNS0_10ParseFlagsE
00000700 T __ZN3re26Regexp17ConcatOrAlternateENS_8RegexpOpEPPS0_iNS0_10ParseFlagsEb
         U __ZN3re26Regexp17FactorAlternationEPPS0_iNS0_10ParseFlagsE
0000024c T __ZN3re26Regexp3RefEv
00000634 T __ZN3re26Regexp4PlusEPS0_NS0_10ParseFlagsE
00000678 T __ZN3re26Regexp4StarEPS0_NS0_10ParseFlagsE
00000a84 T __ZN3re26Regexp4SwapEPS0_
00000ac8 T __ZN3re26Regexp5EqualEPS0_S1_
000050d4 S __ZN3re26Regexp5EqualEPS0_S1_.eh
000006bc T __ZN3re26Regexp5QuestEPS0_NS0_10ParseFlagsE
0000089c T __ZN3re26Regexp6ConcatEPPS0_iNS0_10ParseFlagsE
00000328 T __ZN3re26Regexp6DecrefEv
0000029c T __ZN3re26Regexp6IncrefEv
00000928 T __ZN3re26Regexp6RepeatEPS0_NS0_10ParseFlagsEii
000023fc S __ZN3re26Regexp6WalkerIiE12WalkInternalEPS0_ib
0000517c S __ZN3re26Regexp6WalkerIiE12WalkInternalEPS0_ib.eh
00003114 S __ZN3re26Regexp6WalkerIiE4CopyEi
000026f4 S __ZN3re26Regexp6WalkerIiE5ResetEv
00005194 S __ZN3re26Regexp6WalkerIiE5ResetEv.eh
000036c0 S __ZN3re26Regexp6WalkerIiE8PreVisitEPS0_iPb
00003110 S __ZN3re26Regexp6WalkerIiE9PostVisitEPS0_iiPii
00003720 S __ZN3re26Regexp6WalkerIiEC2Ev
0000523c S __ZN3re26Regexp6WalkerIiEC2Ev.eh
00003620 S __ZN3re26Regexp6WalkerIiED0Ev
00005224 S __ZN3re26Regexp6WalkerIiED0Ev.eh
00003610 S __ZN3re26Regexp6WalkerIiED1Ev
00002f90 S __ZN3re26Regexp6WalkerIiED2Ev
000008f0 T __ZN3re26Regexp7CaptureEPS0_NS0_10ParseFlagsEi
000003a4 T __ZN3re26Regexp7DestroyEv
000050a4 S __ZN3re26Regexp7DestroyEv.eh
00001f60 S __ZN3re26Regexp8AllocSubEi
000050bc S __ZN3re26Regexp8AllocSubEi.eh
000008b8 T __ZN3re26Regexp9AlternateEPPS0_iNS0_10ParseFlagsE
00000600 T __ZN3re26Regexp9HaveMatchEiNS0_10ParseFlagsE
00000000 T __ZN3re26RegexpC1ENS_8RegexpOpENS0_10ParseFlagsE
00000020 T __ZN3re26RegexpC2ENS_8RegexpOpENS0_10ParseFlagsE
00000040 T __ZN3re26RegexpD1Ev
00000050 T __ZN3re26RegexpD2Ev
00005074 S __ZN3re26RegexpD2Ev.eh
00001d70 T __ZN3re29CharClass3NewEi
00000194 T __ZN3re29CharClass6DeleteEv
00001d90 T __ZN3re29CharClass6NegateEv
00001e24 T __ZN3re29CharClass8ContainsEi
00004f48 s __ZN3re2L13kErrorStringsE
0000538c b __ZN3re2L7ref_mapE
00000cb0 t __ZN3re2L8TopEqualEPNS_6RegexpES1_
000050ec s __ZN3re2L8TopEqualEPNS_6RegexpES1_.eh
00004f1c d __ZN3re2L9ref_mutexE
00001018 T __ZNK3re212RegexpStatus4TextEv
00005104 S __ZNK3re212RegexpStatus4TextEv.eh
         U __ZNKSs7compareERKSs
         U __ZNKSt15basic_stringbufIcSt11char_traitsIcESaIcEE3strEv
         U __ZNSo9_M_insertImEERSoT_
         U __ZNSolsEi
         U __ZNSs12_M_leak_hardEv
000046a4 S __ZNSs12_S_constructIPcEES0_T_S1_RKSaIcESt20forward_iterator_tag
         U __ZNSs14_M_replace_auxEmmmc
         U __ZNSs4_Rep10_M_destroyERKSaIcE
         U __ZNSs4_Rep11_S_terminalE
         U __ZNSs4_Rep20_S_empty_rep_storageE
         U __ZNSs4_Rep9_S_createEmmRKSaIcE
         U __ZNSs6appendEPKcm
         U __ZNSs6appendERKSs
         U __ZNSs6assignERKSs
         U __ZNSs6resizeEmc
         U __ZNSs9_M_mutateEmmm
         U __ZNSsC1EPKcRKSaIcE
         U __ZNSsC1ERKSs
         U __ZNSsD2Ev
000029b8 S __ZNSt11_Deque_baseIN3re29WalkStateIiEESaIS2_EE15_M_allocate_mapEm
000039a0 S __ZNSt11_Deque_baseIN3re29WalkStateIiEESaIS2_EE15_M_create_nodesEPPS2_S6_
0000526c S __ZNSt11_Deque_baseIN3re29WalkStateIiEESaIS2_EE15_M_create_nodesEPPS2_S6_.eh
00003834 S __ZNSt11_Deque_baseIN3re29WalkStateIiEESaIS2_EE17_M_initialize_mapEm
00005254 S __ZNSt11_Deque_baseIN3re29WalkStateIiEESaIS2_EE17_M_initialize_mapEm.eh
000036c4 S __ZNSt11_Deque_baseIN3re29WalkStateIiEESaIS2_EED2Ev
000022dc S __ZNSt12_Vector_baseIN3re29RuneRangeESaIS1_EE11_M_allocateEm
00002b40 S __ZNSt12_Vector_baseIPN3re26RegexpESaIS2_EE11_M_allocateEm
000022f4 S __ZNSt15__copy_backwardILb0ESt26random_access_iterator_tagE8__copy_bIPN3re29RuneRangeES5_EET0_T_S7_S6_
         U __ZNSt19basic_ostringstreamIcSt11char_traitsIcESaIcEEC1ESt13_Ios_Openmode
         U __ZNSt19basic_ostringstreamIcSt11char_traitsIcESaIcEED1Ev
00001f08 S __ZNSt3mapIPN3re26RegexpEiSt4lessIS2_ESaISt4pairIKS2_iEEEixERS6_
00003e0c S __ZNSt3mapISsiSt4lessISsESaISt4pairIKSsiEEEixERS3_
000052cc S __ZNSt3mapISsiSt4lessISsESaISt4pairIKSsiEEEixERS3_.eh
000031c4 S __ZNSt3mapIiSsSt4lessIiESaISt4pairIKiSsEEEixERS3_
000051f4 S __ZNSt3mapIiSsSt4lessIiESaISt4pairIKiSsEEEixERS3_.eh
0000286c S __ZNSt5dequeIN3re29WalkStateIiEESaIS2_EE16_M_push_back_auxERKS2_
000028dc S __ZNSt5dequeIN3re29WalkStateIiEESaIS2_EE17_M_reallocate_mapEmb
000028bc S __ZNSt5dequeIN3re29WalkStateIiEESaIS2_EE22_M_reserve_map_at_backEm
00002808 S __ZNSt5dequeIN3re29WalkStateIiEESaIS2_EE8pop_backEv
00002838 S __ZNSt5dequeIN3re29WalkStateIiEESaIS2_EE9push_backERKS2_
00003a94 S __ZNSt5dequeIN3re29WalkStateIiEESaIS2_EEC2ERKS4_
000021d4 S __ZNSt6vectorIN3re29RuneRangeESaIS1_EE13_M_insert_auxEN9__gnu_cxx17__normal_iteratorIPS1_S3_EERKS1_
00002100 S __ZNSt6vectorIN3re29RuneRangeESaIS1_EE7reserveEm
0000217c S __ZNSt6vectorIN3re29RuneRangeESaIS1_EE9push_backERKS1_
00002b58 S __ZNSt6vectorIPN3re26RegexpESaIS2_EE13_M_insert_auxEN9__gnu_cxx17__normal_iteratorIPS2_S4_EERKS2_
000029d0 S __ZNSt6vectorIPN3re26RegexpESaIS2_EE14_M_fill_insertEN9__gnu_cxx17__normal_iteratorIPS2_S4_EEmRKS2_
000020a4 S __ZNSt6vectorIPN3re26RegexpESaIS2_EE6resizeEmS2_
00002078 S __ZNSt6vectorIPN3re26RegexpESaIS2_EE9push_backERKS2_
00002338 S __ZNSt8_Rb_treeIN3re29RuneRangeES1_St9_IdentityIS1_ENS0_13RuneRangeLessESaIS1_EE16_M_insert_uniqueERKS1_
000021ac S __ZNSt8_Rb_treeIN3re29RuneRangeES1_St9_IdentityIS1_ENS0_13RuneRangeLessESaIS1_EE8_M_eraseEPSt13_Rb_tree_nodeIS1_E
000023a0 S __ZNSt8_Rb_treeIN3re29RuneRangeES1_St9_IdentityIS1_ENS0_13RuneRangeLessESaIS1_EE9_M_insertEPSt18_Rb_tree_node_baseS8_RKS1_
00002c60 S __ZNSt8_Rb_treeIPN3re26RegexpESt4pairIKS2_iESt10_Select1stIS5_ESt4lessIS2_ESaIS5_EE11equal_rangeERS4_
00002e44 S __ZNSt8_Rb_treeIPN3re26RegexpESt4pairIKS2_iESt10_Select1stIS5_ESt4lessIS2_ESaIS5_EE16_M_insert_uniqueERKS5_
00002d34 S __ZNSt8_Rb_treeIPN3re26RegexpESt4pairIKS2_iESt10_Select1stIS5_ESt4lessIS2_ESaIS5_EE16_M_insert_uniqueESt17_Rb_tree_iteratorIS5_ERKS5_
00002c38 S __ZNSt8_Rb_treeIPN3re26RegexpESt4pairIKS2_iESt10_Select1stIS5_ESt4lessIS2_ESaIS5_EE5eraseERS4_
00002cac S __ZNSt8_Rb_treeIPN3re26RegexpESt4pairIKS2_iESt10_Select1stIS5_ESt4lessIS2_ESaIS5_EE5eraseESt17_Rb_tree_iteratorIS5_ESD_
00002d0c S __ZNSt8_Rb_treeIPN3re26RegexpESt4pairIKS2_iESt10_Select1stIS5_ESt4lessIS2_ESaIS5_EE8_M_eraseEPSt13_Rb_tree_nodeIS5_E
00002de8 S __ZNSt8_Rb_treeIPN3re26RegexpESt4pairIKS2_iESt10_Select1stIS5_ESt4lessIS2_ESaIS5_EE9_M_insertEPSt18_Rb_tree_node_baseSD_RKS5_
000041f8 S __ZNSt8_Rb_treeISsSt4pairIKSsiESt10_Select1stIS2_ESt4lessISsESaIS2_EE11lower_boundERS1_
00004118 S __ZNSt8_Rb_treeISsSt4pairIKSsiESt10_Select1stIS2_ESt4lessISsESaIS2_EE14_M_create_nodeERKS2_
000052e4 S __ZNSt8_Rb_treeISsSt4pairIKSsiESt10_Select1stIS2_ESt4lessISsESaIS2_EE14_M_create_nodeERKS2_.eh
00004094 S __ZNSt8_Rb_treeISsSt4pairIKSsiESt10_Select1stIS2_ESt4lessISsESaIS2_EE16_M_insert_uniqueERKS2_
00003f58 S __ZNSt8_Rb_treeISsSt4pairIKSsiESt10_Select1stIS2_ESt4lessISsESaIS2_EE16_M_insert_uniqueESt17_Rb_tree_iteratorIS2_ERKS2_
00004228 S __ZNSt8_Rb_treeISsSt4pairIKSsiESt10_Select1stIS2_ESt4lessISsESaIS2_EE4findERS1_
00004278 S __ZNSt8_Rb_treeISsSt4pairIKSsiESt10_Select1stIS2_ESt4lessISsESaIS2_EE8_M_eraseEPSt13_Rb_tree_nodeIS2_E
00004044 S __ZNSt8_Rb_treeISsSt4pairIKSsiESt10_Select1stIS2_ESt4lessISsESaIS2_EE9_M_insertEPSt18_Rb_tree_node_baseSA_RKS2_
00003530 S __ZNSt8_Rb_treeIiSt4pairIKiSsESt10_Select1stIS2_ESt4lessIiESaIS2_EE14_M_create_nodeERKS2_
0000520c S __ZNSt8_Rb_treeIiSt4pairIKiSsESt10_Select1stIS2_ESt4lessIiESaIS2_EE14_M_create_nodeERKS2_.eh
000034c8 S __ZNSt8_Rb_treeIiSt4pairIKiSsESt10_Select1stIS2_ESt4lessIiESaIS2_EE16_M_insert_uniqueERKS2_
000033c8 S __ZNSt8_Rb_treeIiSt4pairIKiSsESt10_Select1stIS2_ESt4lessIiESaIS2_EE16_M_insert_uniqueESt17_Rb_tree_iteratorIS2_ERKS2_
000036f0 S __ZNSt8_Rb_treeIiSt4pairIKiSsESt10_Select1stIS2_ESt4lessIiESaIS2_EE8_M_eraseEPSt13_Rb_tree_nodeIS2_E
0000347c S __ZNSt8_Rb_treeIiSt4pairIKiSsESt10_Select1stIS2_ESt4lessIiESaIS2_EE9_M_insertEPSt18_Rb_tree_node_baseSA_RKS2_
         U __ZNSt9basic_iosIcSt11char_traitsIcEE5clearESt12_Ios_Iostate
         U __ZSt16__ostream_insertIcSt11char_traitsIcEERSt13basic_ostreamIT_T0_ES6_PKS3_i
         U __ZSt17__throw_bad_allocv
         U __ZSt18_Rb_tree_decrementPSt18_Rb_tree_node_base
         U __ZSt18_Rb_tree_incrementPKSt18_Rb_tree_node_base
         U __ZSt18_Rb_tree_incrementPSt18_Rb_tree_node_base
         U __ZSt19__throw_logic_errorPKc
         U __ZSt20__throw_length_errorPKc
         U __ZSt28_Rb_tree_rebalance_for_erasePSt18_Rb_tree_node_baseRS_
         U __ZSt29_Rb_tree_insert_and_rebalancebPSt18_Rb_tree_node_baseS0_RS_
         U __ZSt9terminatev
00005030 S __ZTIN3re217NumCapturesWalkerE
00004fa8 S __ZTIN3re218CaptureNamesWalkerE
00005000 S __ZTIN3re219NamedCapturesWalkerE
00004fa0 S __ZTIN3re26Regexp6WalkerIiEE
000048a0 S __ZTSN3re217NumCapturesWalkerE
00004840 S __ZTSN3re218CaptureNamesWalkerE
00004880 S __ZTSN3re219NamedCapturesWalkerE
00004860 S __ZTSN3re26Regexp6WalkerIiEE
         U __ZTVN10__cxxabiv117__class_type_infoE
         U __ZTVN10__cxxabiv120__si_class_type_infoE
00005010 S __ZTVN3re217NumCapturesWalkerE
00004f80 S __ZTVN3re218CaptureNamesWalkerE
00004fe0 S __ZTVN3re219NamedCapturesWalkerE
00004fc0 S __ZTVN3re26Regexp6WalkerIiEE
         U __ZdaPv
         U __ZdlPv
         U __Znam
         U __Znwm
         U ___assert_rtn
         U ___cxa_begin_catch
         U ___cxa_end_catch
         U ___cxa_pure_virtual
         U ___cxa_rethrow
         U ___gxx_personality_sj0
         U _abort
         U _memcmp
         U _memcpy
         U _memmove
         U _memset
         U _pthread_mutex_lock
         U _pthread_mutex_unlock
         U _strlen
         U _write

build/AppDeck/AppDeck.a(set.o) (for architecture armv7):
00001180 s EH_frame0
00000fa8 s GCC_except_table12
00000fb0 s GCC_except_table13
00000fc0 s GCC_except_table14
00000fc8 s GCC_except_table19
00000fe0 s GCC_except_table21
00000f3c s GCC_except_table3
00000f44 s GCC_except_table4
00000f7c s GCC_except_table7
00000f90 s GCC_except_table8
         U __Unwind_SjLj_Register
         U __Unwind_SjLj_Resume
         U __Unwind_SjLj_Unregister
00000bc0 S __ZN10LogMessage5FlushEv
0000122c S __ZN10LogMessage5FlushEv.eh
00000d7c S __ZN10LogMessageC2EPKci
00001244 S __ZN10LogMessageC2EPKci.eh
00000b00 S __ZN10LogMessageD2Ev
00001214 S __ZN10LogMessageD2Ev.eh
0000092c S __ZN15LogMessageFatalD1Ev
00000ea4 S __ZN15LogMessageFatalD2Ev
0000125c S __ZN15LogMessageFatalD2Ev.eh
00000a58 S __ZN3re212RegexpStatusD2Ev
000011fc S __ZN3re212RegexpStatusD2Ev.eh
00000198 T __ZN3re23RE23Set3AddERKNS_11StringPieceEPSs
000011b4 S __ZN3re23RE23Set3AddERKNS_11StringPieceEPSs.eh
000005d8 T __ZN3re23RE23Set7CompileEv
000011cc S __ZN3re23RE23Set7CompileEv.eh
00000000 T __ZN3re23RE23SetC1ERKNS0_7OptionsENS0_6AnchorE
00000010 T __ZN3re23RE23SetC2ERKNS0_7OptionsENS0_6AnchorE
00000084 T __ZN3re23RE23SetD1Ev
00000094 T __ZN3re23RE23SetD2Ev
0000119c S __ZN3re23RE23SetD2Ev.eh
         U __ZN3re24Prog10CompileSetERKNS_3RE27OptionsENS1_6AnchorEPNS_6RegexpE
         U __ZN3re24Prog9SearchDFAERKNS_11StringPieceES3_NS0_6AnchorENS0_9MatchKindEPS1_PbPSt6vectorIiSaIiEE
         U __ZN3re24ProgD1Ev
         U __ZN3re26Regexp5ParseERKNS_11StringPieceENS0_10ParseFlagsEPNS_12RegexpStatusE
         U __ZN3re26Regexp6ConcatEPPS0_iNS0_10ParseFlagsE
         U __ZN3re26Regexp6DecrefEv
         U __ZN3re26Regexp6IncrefEv
         U __ZN3re26Regexp8SimplifyEv
         U __ZN3re26Regexp9AlternateEPPS0_iNS0_10ParseFlagsE
         U __ZN3re26Regexp9HaveMatchEiNS0_10ParseFlagsE
         U __ZNK3re212RegexpStatus4TextEv
00000774 T __ZNK3re23RE23Set5MatchERKNS_11StringPieceEPSt6vectorIiSaIiEE
000011e4 S __ZNK3re23RE23Set5MatchERKNS_11StringPieceEPSt6vectorIiSaIiEE.eh
         U __ZNK3re23RE27Options10ParseFlagsEv
         U __ZNKSt15basic_stringbufIcSt11char_traitsIcESaIcEE3strEv
         U __ZNSolsEi
00000d08 S __ZNSs12_S_constructIPcEES0_T_S1_RKSaIcESt20forward_iterator_tag
         U __ZNSs4_Rep10_M_destroyERKSaIcE
         U __ZNSs4_Rep11_S_terminalE
         U __ZNSs4_Rep20_S_empty_rep_storageE
         U __ZNSs4_Rep9_S_createEmmRKSaIcE
         U __ZNSs6assignERKSs
         U __ZNSsD2Ev
00000a40 S __ZNSt12_Vector_baseIPN3re26RegexpESaIS2_EE11_M_allocateEm
         U __ZNSt19basic_ostringstreamIcSt11char_traitsIcESaIcEEC1ESt13_Ios_Openmode
         U __ZNSt19basic_ostringstreamIcSt11char_traitsIcESaIcEED1Ev
00000960 S __ZNSt6vectorIPN3re26RegexpESaIS2_EE13_M_insert_auxEN9__gnu_cxx17__normal_iteratorIPS2_S4_EERKS2_
00000934 S __ZNSt6vectorIPN3re26RegexpESaIS2_EE9push_backERKS2_
         U __ZNSt9basic_iosIcSt11char_traitsIcEE5clearESt12_Ios_Iostate
         U __ZSt16__ostream_insertIcSt11char_traitsIcEERSt13basic_ostreamIT_T0_ES6_PKS3_i
         U __ZSt17__throw_bad_allocv
         U __ZSt19__throw_logic_errorPKc
         U __ZSt20__throw_length_errorPKc
         U __ZSt9terminatev
         U __ZdaPv
         U __ZdlPv
         U __ZlsRSoRKN3re211StringPieceE
         U __Znam
         U __Znwm
         U ___gxx_personality_sj0
         U ___stack_chk_fail
         U ___stack_chk_guard
         U _abort
         U _memcpy
         U _memmove
         U _strlen
         U _write

build/AppDeck/AppDeck.a(simplify.o) (for architecture armv7):
00002380 s EH_frame0
00001fbc s GCC_except_table0
00001fd0 s GCC_except_table1
00002030 s GCC_except_table10
00002054 s GCC_except_table11
0000205c s GCC_except_table12
00002064 s GCC_except_table13
0000206c s GCC_except_table14
0000207c s GCC_except_table15
00001fe0 s GCC_except_table2
0000208c s GCC_except_table25
00002094 s GCC_except_table30
0000209c s GCC_except_table31
000020b0 s GCC_except_table32
000020c4 s GCC_except_table34
000020d8 s GCC_except_table35
000020e0 s GCC_except_table36
000020f0 s GCC_except_table41
00001ff4 s GCC_except_table6
00002004 s GCC_except_table8
0000201c s GCC_except_table9
         U __Unwind_SjLj_Register
         U __Unwind_SjLj_Resume
         U __Unwind_SjLj_Unregister
00001bf8 S __ZN10LogMessage5FlushEv
00002534 S __ZN10LogMessage5FlushEv.eh
00001e74 S __ZN10LogMessageC2EPKci
00002564 S __ZN10LogMessageC2EPKci.eh
00001d40 S __ZN10LogMessageD2Ev
0000254c S __ZN10LogMessageD2Ev.eh
00000e68 S __ZN15LogMessageFatalD1Ev
00001b60 S __ZN15LogMessageFatalD2Ev
0000251c S __ZN15LogMessageFatalD2Ev.eh
00000498 T __ZN3re214SimplifyWalker10ShortVisitEPNS_6RegexpES2_
000023e4 S __ZN3re214SimplifyWalker10ShortVisitEPNS_6RegexpES2_.eh
0000086c T __ZN3re214SimplifyWalker14SimplifyRepeatEPNS_6RegexpEiiNS1_10ParseFlagsE
0000242c S __ZN3re214SimplifyWalker14SimplifyRepeatEPNS_6RegexpEiiNS1_10ParseFlagsE.eh
00000c74 T __ZN3re214SimplifyWalker17SimplifyCharClassEPNS_6RegexpE
00002444 S __ZN3re214SimplifyWalker17SimplifyCharClassEPNS_6RegexpE.eh
00000490 T __ZN3re214SimplifyWalker4CopyEPNS_6RegexpE
00000d9c T __ZN3re214SimplifyWalker7Concat2EPNS_6RegexpES2_NS1_10ParseFlagsE
0000245c S __ZN3re214SimplifyWalker7Concat2EPNS_6RegexpES2_NS1_10ParseFlagsE.eh
00000544 T __ZN3re214SimplifyWalker8PreVisitEPNS_6RegexpES2_Pb
00000558 T __ZN3re214SimplifyWalker9PostVisitEPNS_6RegexpES2_S2_PS2_i
000023fc S __ZN3re214SimplifyWalker9PostVisitEPNS_6RegexpES2_S2_PS2_i.eh
00000f98 S __ZN3re214SimplifyWalkerD0Ev
00002474 S __ZN3re214SimplifyWalkerD0Ev.eh
00000e70 S __ZN3re214SimplifyWalkerD1Ev
000002d4 T __ZN3re26Regexp13ComputeSimpleEv
000023cc S __ZN3re26Regexp13ComputeSimpleEv.eh
00000000 T __ZN3re26Regexp14SimplifyRegexpERKNS_11StringPieceENS0_10ParseFlagsEPSsPNS_12RegexpStatusE
0000239c S __ZN3re26Regexp14SimplifyRegexpERKNS_11StringPieceENS0_10ParseFlagsEPSsPNS_12RegexpStatusE.eh
         U __ZN3re26Regexp4PlusEPS0_NS0_10ParseFlagsE
         U __ZN3re26Regexp4StarEPS0_NS0_10ParseFlagsE
         U __ZN3re26Regexp5ParseERKNS_11StringPieceENS0_10ParseFlagsEPNS_12RegexpStatusE
         U __ZN3re26Regexp5QuestEPS0_NS0_10ParseFlagsE
         U __ZN3re26Regexp6DecrefEv
         U __ZN3re26Regexp6IncrefEv
00001038 S __ZN3re26Regexp6WalkerIPS0_E12WalkInternalES2_S2_b
0000248c S __ZN3re26Regexp6WalkerIPS0_E12WalkInternalES2_S2_b.eh
00001700 S __ZN3re26Regexp6WalkerIPS0_E4CopyES2_
00001330 S __ZN3re26Regexp6WalkerIPS0_E5ResetEv
000024a4 S __ZN3re26Regexp6WalkerIPS0_E5ResetEv.eh
000016f8 S __ZN3re26Regexp6WalkerIPS0_E8PreVisitES2_S2_Pb
000016fc S __ZN3re26Regexp6WalkerIPS0_E9PostVisitES2_S2_S2_PS2_i
00001730 S __ZN3re26Regexp6WalkerIPS0_EC2Ev
000024d4 S __ZN3re26Regexp6WalkerIPS0_EC2Ev.eh
00001658 S __ZN3re26Regexp6WalkerIPS0_ED0Ev
000024bc S __ZN3re26Regexp6WalkerIPS0_ED0Ev.eh
00001648 S __ZN3re26Regexp6WalkerIPS0_ED1Ev
0000160c S __ZN3re26Regexp6WalkerIPS0_ED2Ev
00000e80 S __ZN3re26Regexp8AllocSubEi
00002414 S __ZN3re26Regexp8AllocSubEi.eh
000001dc T __ZN3re26Regexp8SimplifyEv
000023b4 S __ZN3re26Regexp8SimplifyEv.eh
         U __ZN3re26Regexp8ToStringEv
         U __ZN3re26RegexpC1ENS_8RegexpOpENS0_10ParseFlagsE
         U __ZNKSt15basic_stringbufIcSt11char_traitsIcESaIcEE3strEv
         U __ZNSolsEi
00001e00 S __ZNSs12_S_constructIPcEES0_T_S1_RKSaIcESt20forward_iterator_tag
         U __ZNSs4_Rep10_M_destroyERKSaIcE
         U __ZNSs4_Rep11_S_terminalE
         U __ZNSs4_Rep20_S_empty_rep_storageE
         U __ZNSs4_Rep9_S_createEmmRKSaIcE
         U __ZNSs6assignERKSs
000015f4 S __ZNSt11_Deque_baseIN3re29WalkStateIPNS0_6RegexpEEESaIS4_EE15_M_allocate_mapEm
000019b0 S __ZNSt11_Deque_baseIN3re29WalkStateIPNS0_6RegexpEEESaIS4_EE15_M_create_nodesEPPS4_S8_
00002504 S __ZNSt11_Deque_baseIN3re29WalkStateIPNS0_6RegexpEEESaIS4_EE15_M_create_nodesEPPS4_S8_.eh
00001844 S __ZNSt11_Deque_baseIN3re29WalkStateIPNS0_6RegexpEEESaIS4_EE17_M_initialize_mapEm
000024ec S __ZNSt11_Deque_baseIN3re29WalkStateIPNS0_6RegexpEEESaIS4_EE17_M_initialize_mapEm.eh
00001704 S __ZNSt11_Deque_baseIN3re29WalkStateIPNS0_6RegexpEEESaIS4_EED2Ev
         U __ZNSt19basic_ostringstreamIcSt11char_traitsIcESaIcEEC1ESt13_Ios_Openmode
         U __ZNSt19basic_ostringstreamIcSt11char_traitsIcESaIcEED1Ev
000014a8 S __ZNSt5dequeIN3re29WalkStateIPNS0_6RegexpEEESaIS4_EE16_M_push_back_auxERKS4_
00001518 S __ZNSt5dequeIN3re29WalkStateIPNS0_6RegexpEEESaIS4_EE17_M_reallocate_mapEmb
000014f8 S __ZNSt5dequeIN3re29WalkStateIPNS0_6RegexpEEESaIS4_EE22_M_reserve_map_at_backEm
00001444 S __ZNSt5dequeIN3re29WalkStateIPNS0_6RegexpEEESaIS4_EE8pop_backEv
00001474 S __ZNSt5dequeIN3re29WalkStateIPNS0_6RegexpEEESaIS4_EE9push_backERKS4_
00001aa4 S __ZNSt5dequeIN3re29WalkStateIPNS0_6RegexpEEESaIS4_EEC2ERKS6_
         U __ZNSt9basic_iosIcSt11char_traitsIcEE5clearESt12_Ios_Iostate
         U __ZSt16__ostream_insertIcSt11char_traitsIcEERSt13basic_ostreamIT_T0_ES6_PKS3_i
         U __ZSt17__throw_bad_allocv
         U __ZSt19__throw_logic_errorPKc
         U __ZSt9terminatev
00002310 S __ZTIN3re214SimplifyWalkerE
00002340 S __ZTIN3re26Regexp6WalkerIPS0_EE
00002320 S __ZTSN3re214SimplifyWalkerE
00001fa0 S __ZTSN3re26Regexp6WalkerIPS0_EE
         U __ZTVN10__cxxabiv117__class_type_infoE
         U __ZTVN10__cxxabiv120__si_class_type_infoE
000022f0 S __ZTVN3re214SimplifyWalkerE
00002350 S __ZTVN3re26Regexp6WalkerIPS0_EE
         U __ZdaPv
         U __ZdlPv
         U __ZlsRSoRKN3re211StringPieceE
         U __Znam
         U __Znwm
         U ___assert_rtn
         U ___cxa_begin_catch
         U ___cxa_end_catch
         U ___cxa_pure_virtual
         U ___cxa_rethrow
         U ___gxx_personality_sj0
         U _abort
         U _memcpy
         U _memmove
         U _memset
         U _strlen
         U _write

build/AppDeck/AppDeck.a(tostring.o) (for architecture armv7):
00001fb0 s EH_frame0
00001b78 s GCC_except_table0
00001bb0 s GCC_except_table11
00001bc0 s GCC_except_table12
00001bd0 s GCC_except_table21
00001be4 s GCC_except_table22
00001bec s GCC_except_table23
00001bfc s GCC_except_table27
00001b90 s GCC_except_table3
00001c14 s GCC_except_table31
00001c1c s GCC_except_table35
00001c24 s GCC_except_table36
00001c38 s GCC_except_table37
00001ba8 s GCC_except_table8
         U __Unwind_SjLj_Register
         U __Unwind_SjLj_Resume
         U __Unwind_SjLj_Unregister
00001268 S __ZN10LogMessage5FlushEv
0000205c S __ZN10LogMessage5FlushEv.eh
000014e4 S __ZN10LogMessageC2EPKci
0000208c S __ZN10LogMessageC2EPKci.eh
000013b0 S __ZN10LogMessageD2Ev
00002074 S __ZN10LogMessageD2Ev.eh
00000b4c S __ZN15LogMessageFatalD1Ev
000011d0 S __ZN15LogMessageFatalD2Ev
00002044 S __ZN15LogMessageFatalD2Ev.eh
         U __ZN3re212StringPrintfEPKcz
         U __ZN3re213StringAppendFEPSsPKcz
00000bf8 S __ZN3re214ToStringWalker10ShortVisitEPNS_6RegexpEi
00000128 T __ZN3re214ToStringWalker8PreVisitEPNS_6RegexpEiPb
00000218 T __ZN3re214ToStringWalker9PostVisitEPNS_6RegexpEiiPii
00001fe4 S __ZN3re214ToStringWalker9PostVisitEPNS_6RegexpEiiPii.eh
00000b54 S __ZN3re214ToStringWalkerD0Ev
00001ffc S __ZN3re214ToStringWalkerD0Ev.eh
00000b3c S __ZN3re214ToStringWalkerD1Ev
00000bfc S __ZN3re26Regexp6WalkerIiE12WalkInternalEPS0_ib
00002014 S __ZN3re26Regexp6WalkerIiE12WalkInternalEPS0_ib.eh
00000bf4 S __ZN3re26Regexp6WalkerIiE4CopyEi
00000ef4 S __ZN3re26Regexp6WalkerIiE5ResetEv
0000202c S __ZN3re26Regexp6WalkerIiE5ResetEv.eh
000016f8 S __ZN3re26Regexp6WalkerIiE8PreVisitEPS0_iPb
000016fc S __ZN3re26Regexp6WalkerIiE9PostVisitEPS0_iiPii
0000172c S __ZN3re26Regexp6WalkerIiEC2Ev
000020bc S __ZN3re26Regexp6WalkerIiEC2Ev.eh
00001658 S __ZN3re26Regexp6WalkerIiED0Ev
000020a4 S __ZN3re26Regexp6WalkerIiED0Ev.eh
00001648 S __ZN3re26Regexp6WalkerIiED1Ev
0000160c S __ZN3re26Regexp6WalkerIiED2Ev
00000000 T __ZN3re26Regexp8ToStringEv
00001fcc S __ZN3re26Regexp8ToStringEv.eh
         U __ZN3re29CharClass6DeleteEv
         U __ZN3re29CharClass6NegateEv
         U __ZN3re29CharClass8ContainsEi
00000a78 t __ZN3re2L12AppendCCCharEPSsi
00000a3c t __ZN3re2L13AppendCCRangeEPSsii
00000990 t __ZN3re2L13AppendLiteralEPSsib
         U __ZNKSt15basic_stringbufIcSt11char_traitsIcESaIcEE3strEv
         U __ZNSo9_M_insertIPKvEERSoT_
         U __ZNSolsEi
         U __ZNSs12_M_leak_hardEv
00001470 S __ZNSs12_S_constructIPcEES0_T_S1_RKSaIcESt20forward_iterator_tag
         U __ZNSs14_M_replace_auxEmmmc
         U __ZNSs4_Rep10_M_destroyERKSaIcE
         U __ZNSs4_Rep11_S_terminalE
         U __ZNSs4_Rep20_S_empty_rep_storageE
         U __ZNSs4_Rep9_S_createEmmRKSaIcE
         U __ZNSs5eraseEmm
         U __ZNSs6appendEPKcm
         U __ZNSs6appendERKSs
         U __ZNSs6appendEmc
         U __ZNSsD2Ev
000011b8 S __ZNSt11_Deque_baseIN3re29WalkStateIiEESaIS2_EE15_M_allocate_mapEm
000019ac S __ZNSt11_Deque_baseIN3re29WalkStateIiEESaIS2_EE15_M_create_nodesEPPS2_S6_
000020ec S __ZNSt11_Deque_baseIN3re29WalkStateIiEESaIS2_EE15_M_create_nodesEPPS2_S6_.eh
00001840 S __ZNSt11_Deque_baseIN3re29WalkStateIiEESaIS2_EE17_M_initialize_mapEm
000020d4 S __ZNSt11_Deque_baseIN3re29WalkStateIiEESaIS2_EE17_M_initialize_mapEm.eh
00001700 S __ZNSt11_Deque_baseIN3re29WalkStateIiEESaIS2_EED2Ev
         U __ZNSt19basic_ostringstreamIcSt11char_traitsIcESaIcEEC1ESt13_Ios_Openmode
         U __ZNSt19basic_ostringstreamIcSt11char_traitsIcESaIcEED1Ev
0000106c S __ZNSt5dequeIN3re29WalkStateIiEESaIS2_EE16_M_push_back_auxERKS2_
000010dc S __ZNSt5dequeIN3re29WalkStateIiEESaIS2_EE17_M_reallocate_mapEmb
000010bc S __ZNSt5dequeIN3re29WalkStateIiEESaIS2_EE22_M_reserve_map_at_backEm
00001008 S __ZNSt5dequeIN3re29WalkStateIiEESaIS2_EE8pop_backEv
00001038 S __ZNSt5dequeIN3re29WalkStateIiEESaIS2_EE9push_backERKS2_
00001aa0 S __ZNSt5dequeIN3re29WalkStateIiEESaIS2_EEC2ERKS4_
         U __ZNSt9basic_iosIcSt11char_traitsIcEE5clearESt12_Ios_Iostate
         U __ZSt16__ostream_insertIcSt11char_traitsIcEERSt13basic_ostreamIT_T0_ES6_PKS3_i
         U __ZSt17__throw_bad_allocv
         U __ZSt19__throw_logic_errorPKc
         U __ZSt9terminatev
00001f40 S __ZTIN3re214ToStringWalkerE
00001f70 S __ZTIN3re26Regexp6WalkerIiEE
00001f50 S __ZTSN3re214ToStringWalkerE
00001b60 S __ZTSN3re26Regexp6WalkerIiEE
         U __ZTVN10__cxxabiv117__class_type_infoE
         U __ZTVN10__cxxabiv120__si_class_type_infoE
00001f20 S __ZTVN3re214ToStringWalkerE
00001f80 S __ZTVN3re26Regexp6WalkerIiEE
         U __ZdaPv
         U __ZdlPv
         U __Znam
         U __Znwm
         U ___assert_rtn
         U ___cxa_begin_catch
         U ___cxa_end_catch
         U ___cxa_pure_virtual
         U ___cxa_rethrow
         U ___gxx_personality_sj0
         U _abort
         U _memchr
         U _memcpy
         U _memmove
         U _memset
         U _strlen
         U _write

build/AppDeck/AppDeck.a(unicode_casefold.o) (for architecture armv7):
00000d3c D __ZN3re215unicode_tolowerE
00000000 D __ZN3re216unicode_casefoldE
000014e0 D __ZN3re219num_unicode_tolowerE
00000d38 D __ZN3re220num_unicode_casefoldE

build/AppDeck/AppDeck.a(unicode_groups.o) (for architecture armv7):
00001000 d __MergedGlobals
00001f80 d __MergedGlobals131
00002f40 d __MergedGlobals132
00003ec0 d __MergedGlobals133
00004bb0 d __MergedGlobals134
000054a0 d __MergedGlobals135
000003b0 D __ZN3re214unicode_groupsE
00000ff8 D __ZN3re218num_unicode_groupsE

build/AppDeck/AppDeck.a(iRate.o) (for architecture armv7):
00000000 t +[iRate load]
0000002c t +[iRate sharedInstance]
00004564 t -[iRate .cxx_destruct]
00003e2c t -[iRate alertView:didDismissWithButtonIndex:]
00004390 t -[iRate appStoreCountry]
000042fc t -[iRate appStoreGenreID]
00004350 t -[iRate appStoreID]
00004130 t -[iRate applicationBundleID]
00002e08 t -[iRate applicationLaunched]
00004408 t -[iRate applicationName]
000044c8 t -[iRate applicationVersion]
0000303c t -[iRate applicationWillEnterForeground:]
00000ae4 t -[iRate cancelButtonLabel]
000021dc t -[iRate checkForConnectivityInBackground]
00007fd0 s -[iRate checkForConnectivityInBackground].eh
000020f8 t -[iRate connectionError:]
00002020 t -[iRate connectionSucceeded]
000041f0 t -[iRate currentlyChecking]
000042bc t -[iRate daysUntilPrompt]
000014a8 t -[iRate dealloc]
00001258 t -[iRate declinedAnyVersion]
000010e8 t -[iRate declinedThisVersion]
00000894 t -[iRate delegate]
00003d38 t -[iRate didRotate]
00004330 t -[iRate disableAlertViewResizing]
000043e8 t -[iRate displayAppUsingStorekitIfAvailable]
00000f54 t -[iRate eventCount]
00004234 t -[iRate eventsUntilPrompt]
00000c94 t -[iRate firstUsed]
00001544 t -[iRate incrementEventCount]
00001514 t -[iRate incrementUseCount]
00000388 t -[iRate init]
00000d88 t -[iRate lastReminded]
00000080 t -[iRate localizedStringForKey:withDefault:]
000040dc t -[iRate logEvent:]
00000910 t -[iRate messageTitle]
000009c4 t -[iRate message]
00004488 t -[iRate onlyPromptIfLatestVersion]
00004544 t -[iRate onlyPromptIfMainWindowIsAvailable]
000030e0 t -[iRate openRatingsPageInAppStore]
0000418c t -[iRate previewMode]
00004274 t -[iRate previousOrientation]
000036a8 t -[iRate productViewControllerDidFinish:]
000043c8 t -[iRate promptAgainForEachNewVersion]
000044a8 t -[iRate promptAtLaunch]
00002c2c t -[iRate promptForRating]
00002bd4 t -[iRate promptIfNetworkAvailable]
00000b34 t -[iRate rateButtonLabel]
00001438 t -[iRate ratedAnyVersion]
000012c8 t -[iRate ratedThisVersion]
00000bd4 t -[iRate ratingsURL]
00000b84 t -[iRate remindButtonLabel]
00004370 t -[iRate remindPeriod]
00003760 t -[iRate resizeAlertView:]
000043a4 t -[iRate setAppStoreCountry:]
0000430c t -[iRate setAppStoreGenreID:]
00004360 t -[iRate setAppStoreID:]
00001ff0 t -[iRate setAppStoreIDOnMainThread:]
00004144 t -[iRate setApplicationBundleID:]
0000441c t -[iRate setApplicationName:]
000044dc t -[iRate setApplicationVersion:]
00004500 t -[iRate setCancelButtonLabel:]
00004200 t -[iRate setCurrentlyChecking:]
000042cc t -[iRate setDaysUntilPrompt:]
00001184 t -[iRate setDeclinedThisVersion:]
0000431c t -[iRate setDelegate:]
00004340 t -[iRate setDisableAlertViewResizing:]
000043f8 t -[iRate setDisplayAppUsingStorekitIfAvailable:]
00000fa4 t -[iRate setEventCount:]
00004244 t -[iRate setEventsUntilPrompt:]
00000cf0 t -[iRate setFirstUsed:]
00000de4 t -[iRate setLastReminded:]
00004464 t -[iRate setMessage:]
00004440 t -[iRate setMessageTitle:]
00004498 t -[iRate setOnlyPromptIfLatestVersion:]
00004554 t -[iRate setOnlyPromptIfMainWindowIsAvailable:]
0000419c t -[iRate setPreviewMode:]
00004284 t -[iRate setPreviousOrientation:]
000043d8 t -[iRate setPromptAgainForEachNewVersion:]
000044b8 t -[iRate setPromptAtLaunch:]
000041cc t -[iRate setRateButtonLabel:]
00001364 t -[iRate setRatedThisVersion:]
00004294 t -[iRate setRatingsURL:]
00004168 t -[iRate setRemindButtonLabel:]
00004380 t -[iRate setRemindPeriod:]
00004264 t -[iRate setUseAllAvailableLanguages:]
00000ecc t -[iRate setUsesCount:]
000042ec t -[iRate setUsesPerWeekForPrompt:]
000041bc t -[iRate setUsesUntilPrompt:]
00004534 t -[iRate setVerboseLogging:]
00004220 t -[iRate setVisibleAlert:]
00001578 t -[iRate shouldPromptForRating]
00004254 t -[iRate useAllAvailableLanguages]
00000e7c t -[iRate usesCount]
000042dc t -[iRate usesPerWeekForPrompt]
00001030 t -[iRate usesPerWeek]
000041ac t -[iRate usesUntilPrompt]
00001a10 t -[iRate valueForKey:inJSON:]
00004524 t -[iRate verboseLogging]
00004210 t -[iRate visibleAlert]
00003e1c t -[iRate willPresentAlertView:]
00003d0c t -[iRate willRotate]
00007fb4 s EH_frame0
0000465c s GCC_except_table34
000073fc s _.str117
000074fa s _.str119
         U _NSLocaleCountryCode
         U _NSLocalizedDescriptionKey
         U _NSLog
         U _NSPOSIXErrorDomain
         U _OBJC_CLASS_$_NSBundle
         U _OBJC_CLASS_$_NSCharacterSet
         U _OBJC_CLASS_$_NSDate
         U _OBJC_CLASS_$_NSDictionary
         U _OBJC_CLASS_$_NSError
         U _OBJC_CLASS_$_NSLocale
         U _OBJC_CLASS_$_NSNotificationCenter
         U _OBJC_CLASS_$_NSNumber
         U _OBJC_CLASS_$_NSObject
         U _OBJC_CLASS_$_NSScanner
         U _OBJC_CLASS_$_NSString
         U _OBJC_CLASS_$_NSURL
         U _OBJC_CLASS_$_NSURLConnection
         U _OBJC_CLASS_$_NSURLRequest
         U _OBJC_CLASS_$_NSUserDefaults
         U _OBJC_CLASS_$_SKStoreProductViewController
         U _OBJC_CLASS_$_UIAlertView
         U _OBJC_CLASS_$_UIApplication
         U _OBJC_CLASS_$_UIControl
         U _OBJC_CLASS_$_UIImageView
         U _OBJC_CLASS_$_UILabel
         U _OBJC_CLASS_$_UITextView
00007300 S _OBJC_CLASS_$_iRate
000073dc S _OBJC_IVAR_$_iRate._appStoreCountry
000073a0 S _OBJC_IVAR_$_iRate._appStoreGenreID
000073a8 S _OBJC_IVAR_$_iRate._appStoreID
000073ac S _OBJC_IVAR_$_iRate._applicationBundleID
000073e4 S _OBJC_IVAR_$_iRate._applicationName
000073f0 S _OBJC_IVAR_$_iRate._applicationVersion
00007390 S _OBJC_IVAR_$_iRate._cancelButtonLabel
000073b8 S _OBJC_IVAR_$_iRate._currentlyChecking
000073cc S _OBJC_IVAR_$_iRate._daysUntilPrompt
00007384 S _OBJC_IVAR_$_iRate._delegate
000073d4 S _OBJC_IVAR_$_iRate._disableAlertViewResizing
000073a4 S _OBJC_IVAR_$_iRate._displayAppUsingStorekitIfAvailable
000073c0 S _OBJC_IVAR_$_iRate._eventsUntilPrompt
0000738c S _OBJC_IVAR_$_iRate._message
00007388 S _OBJC_IVAR_$_iRate._messageTitle
000073e8 S _OBJC_IVAR_$_iRate._onlyPromptIfLatestVersion
000073f8 S _OBJC_IVAR_$_iRate._onlyPromptIfMainWindowIsAvailable
000073b0 S _OBJC_IVAR_$_iRate._previewMode
000073c8 S _OBJC_IVAR_$_iRate._previousOrientation
000073e0 S _OBJC_IVAR_$_iRate._promptAgainForEachNewVersion
000073ec S _OBJC_IVAR_$_iRate._promptAtLaunch
00007394 S _OBJC_IVAR_$_iRate._rateButtonLabel
0000739c S _OBJC_IVAR_$_iRate._ratingsURL
00007398 S _OBJC_IVAR_$_iRate._remindButtonLabel
000073d8 S _OBJC_IVAR_$_iRate._remindPeriod
000073c4 S _OBJC_IVAR_$_iRate._useAllAvailableLanguages
000073d0 S _OBJC_IVAR_$_iRate._usesPerWeekForPrompt
000073b4 S _OBJC_IVAR_$_iRate._usesUntilPrompt
000073f4 S _OBJC_IVAR_$_iRate._verboseLogging
000073bc S _OBJC_IVAR_$_iRate._visibleAlert
         U _OBJC_METACLASS_$_NSObject
00007314 S _OBJC_METACLASS_$_iRate
         U _SKStoreProductParameterITunesItemIdentifier
         U _UIApplicationWillEnterForegroundNotification
         U _UIDeviceOrientationDidChangeNotification
00007fe8 b __MergedGlobals
         U __NSConcreteStackBlock
         U __Unwind_SjLj_Register
         U __Unwind_SjLj_Resume
         U __Unwind_SjLj_Unregister
000035a4 t ___34-[iRate openRatingsPageInAppStore]_block_invoke
         U ___CFConstantStringClassReference
00005e50 s ___block_descriptor_tmp
00003698 t ___copy_helper_block_
000036a0 t ___destroy_helper_block_
         U ___objc_personality_v0
         U ___stack_chk_fail
         U ___stack_chk_guard
         U __objc_empty_cache
         U __objc_empty_vtable
         U _fmax
000046d8 S _iRateAppStoreGameGenreID
00005e40 S _iRateErrorDomain
         U _kCFBundleNameKey
         U _kCFBundleVersionKey
         U _objc_autorelease
         U _objc_autoreleasePoolPop
         U _objc_autoreleasePoolPush
         U _objc_autoreleaseReturnValue
         U _objc_destroyWeak
         U _objc_enumerationMutation
         U _objc_getProperty
         U _objc_loadWeak
         U _objc_loadWeakRetained
         U _objc_msgSend
         U _objc_msgSendSuper2
         U _objc_msgSend_stret
         U _objc_release
         U _objc_retain
         U _objc_retainAutoreleaseReturnValue
         U _objc_retainAutoreleasedReturnValue
         U _objc_setProperty
         U _objc_storeStrong
         U _objc_storeWeak
         U _objc_sync_enter
         U _objc_sync_exit
         U _roundf
000046dc s l_.str
000046ed s l_.str10
0000472f s l_.str107
00004737 s l_.str111
000046f3 s l_.str12
0000473a s l_.str121
00004745 s l_.str123
00004751 s l_.str125
00004761 s l_.str129
00004801 s l_.str171
00004848 s l_.str177
00004898 s l_.str183
00004912 s l_.str187
00004965 s l_.str193
000049be s l_.str195
00004a13 s l_.str201
00004a83 s l_.str205
00004afa s l_.str211
00004b5b s l_.str213
00004b60 s l_.str217
00004b62 s l_.str221
00004b64 s l_.str230
00004b66 s l_.str238
00004b69 s l_.str240
00004b6b s l_.str242
00004b6e s l_.str244
00004b70 s l_.str246
00004b73 s l_.str248
00004b76 s l_.str250
00004b78 s l_.str252
00004b7b s l_.str254
00004b7d s l_.str256
00004b80 s l_.str258
00004b82 s l_.str260
00004b85 s l_.str262
00004b87 s l_.str264
00004b8a s l_.str266
00004b8d s l_.str273
00004b90 s l_.str277
00004b95 s l_.str289
000046fa s l_.str29
00004c00 s l_.str293
00004c28 s l_.str297
00004c65 s l_.str303
00004c6c s l_.str307
00004c79 s l_.str311
00004cb3 s l_.str321
00004cbc s l_.str325
00004ccb s l_.str329
00004cd3 s l_.str333
00004d09 s l_.str337
00004d11 s l_.str341
00004d81 s l_.str344
00004db3 s l_.str351
00004e45 s l_.str353
00004e7f s l_.str357
00004f7f s l_.str359
00004fb4 s l_.str361
00005046 s l_.str413
000050b2 s l_.str429
000050c1 s l_.str435
000050c8 s l_.str441
0000511d s l_.str449
00004700 s l_.str55
0000471b s l_.str65
000057a3 s l_.str652
000057b8 s l_.str654
000057da s l_.str656
000057f3 s l_.str658
00005808 s l_.str660
00005818 s l_.str662
00005826 s l_.str664
00005838 s l_.str666
00005847 s l_.str668
000058b1 s l_.str670
000058c3 s l_.str672
000058d3 s l_.str674
000058e5 s l_.str676
000058f5 s l_.str678
00005906 s l_.str680
000076b8 s l_OBJC_$_CLASS_METHODS_iRate
00007700 s l_OBJC_$_INSTANCE_METHODS_iRate
00007bac s l_OBJC_$_INSTANCE_VARIABLES_iRate
00007e10 s l_OBJC_$_PROP_LIST_iRate
00007f50 s l_OBJC_CLASS_RO_$_iRate
000076d8 s l_OBJC_METACLASS_RO_$_iRate

build/AppDeck/AppDeck.a(7zBuf.o) (for architecture armv7):
00000008 T _Buf_Create
00000038 T _Buf_Free
00000000 T _Buf_Init

build/AppDeck/AppDeck.a(7zBuf2.o) (for architecture armv7):
00000000 T _DynBuf_Construct
00000078 T _DynBuf_Free
0000000c T _DynBuf_SeekToBeg
00000014 T _DynBuf_Write
         U _memcpy

build/AppDeck/AppDeck.a(7zDec.o) (for architecture armv7):
         U _LookInStream_SeekTo
         U _Lzma2Dec_AllocateProbs
         U _Lzma2Dec_DecodeToDic
         U _Lzma2Dec_Init
         U _LzmaDec_AllocateProbs
         U _LzmaDec_DecodeToDic
         U _LzmaDec_FreeProbs
         U _LzmaDec_Init
00000000 T _SzFolder_Decode
         U ___stack_chk_fail
         U ___stack_chk_guard
         U _memcpy

build/AppDeck/AppDeck.a(7zFile.o) (for architecture armv7):
0000015c T _FileInStream_CreateVTable
00000178 t _FileInStream_Read
0000018c t _FileInStream_Seek
00000194 T _FileOutStream_CreateVTable
000001a4 t _FileOutStream_Write
00000138 T _FileSeqInStream_CreateVTable
00000148 t _FileSeqInStream_Read
00000054 T _File_Close
00000000 T _File_Construct
000000f8 T _File_GetLength
00000010 t _File_Open
00000074 T _File_Read
000000cc T _File_Seek
000000a0 T _File_Write
00000008 T _InFile_Open
0000004c T _OutFile_Open
         U ___error
         U _fclose
         U _ferror
         U _fopen
         U _fread
         U _fseek
         U _ftell
         U _fwrite

build/AppDeck/AppDeck.a(7zIn.o) (for architecture armv7):
         U _Buf_Create
         U _Buf_Free
         U _Buf_Init
         U _LookInStream_Read
         U _LookInStream_Read2
         U _LookInStream_SeekTo
00001000 T _SzArEx_DictCache_free
000012b0 T _SzArEx_DictCache_init
00001040 T _SzArEx_DictCache_mmap
000012c8 T _SzArEx_DictCache_munmap
00000ec4 T _SzArEx_Extract
00000238 T _SzArEx_Free
0000033c T _SzArEx_GetFileNameUtf16
000002cc T _SzArEx_GetFolderFullPackSize
000002a4 T _SzArEx_GetFolderStreamPos
00000214 T _SzArEx_Init
00000380 T _SzArEx_Open
00000198 T _SzAr_Free
00000184 T _SzAr_Init
00000008 T _SzCoderInfo_Free
00000000 T _SzCoderInfo_Init
00000178 T _SzFile_Init
         U _SzFolder_Decode
000000dc T _SzFolder_FindBindPairForInStream
000000fc T _SzFolder_FindBindPairForOutStream
00000030 T _SzFolder_Free
000000b4 T _SzFolder_GetNumOutStreams
00000120 T _SzFolder_GetUnpackSize
00000020 T _SzFolder_Init
00002090 t _SzReadBoolVector
00002104 t _SzReadBoolVector2
000021f8 t _SzReadHashDigests
00001fbc t _SzReadNumber
00001310 t _SzReadStreamsInfo
00002164 t _SzReadUInt32
000021b4 t _SzSkeepData
0000225c t _SzWaitAttribute
         U ___assert_rtn
         U ___error
         U ___stack_chk_fail
         U ___stack_chk_guard
         U _fclose
         U _fflush
         U _fileno
         U _fopen
         U _fseek
         U _ftell
         U _fwrite
000022b4 D _k7zSignature
         U _memcpy
         U _memset
         U _mmap
         U _munmap

build/AppDeck/AppDeck.a(7zStream.o) (for architecture armv7):
0000008c T _LookInStream_LookRead
00000104 T _LookInStream_Read
000000c0 T _LookInStream_Read2
0000006c T _LookInStream_SeekTo
0000010c T _LookToRead_CreateVTable
0000024c T _LookToRead_Init
000001a0 t _LookToRead_Look_Exact
00000154 t _LookToRead_Look_Lookahead
000001fc t _LookToRead_Read
00000240 t _LookToRead_Seek
000001f0 t _LookToRead_Skip
00000254 T _SecToLook_CreateVTable
00000264 t _SecToLook_Read
0000026c T _SecToRead_CreateVTable
0000027c t _SecToRead_Read
00000044 T _SeqInStream_Read
00000000 T _SeqInStream_Read2
0000004c T _SeqInStream_ReadByte
         U _memcpy

build/AppDeck/AppDeck.a(Alloc.o) (for architecture armv7):
00000000 T _MyAlloc
0000000c T _MyFree
         U _free
         U _malloc

build/AppDeck/AppDeck.a(Delta.o) (for architecture armv7):
000000e8 T _Delta_Decode
00000010 T _Delta_Encode
00000000 T _Delta_Init
         U ___stack_chk_fail
         U ___stack_chk_guard
         U _memcpy
         U _memset

build/AppDeck/AppDeck.a(Lzma2Dec.o) (for architecture armv7):
00000064 T _Lzma2Dec_Allocate
00000000 T _Lzma2Dec_AllocateProbs
000003c0 T _Lzma2Dec_DecodeToBuf
000000a4 T _Lzma2Dec_DecodeToDic
00000028 t _Lzma2Dec_GetOldProps
0000008c T _Lzma2Dec_Init
0000046c T _Lzma2Decode
         U _LzmaDec_Allocate
         U _LzmaDec_AllocateProbs
         U _LzmaDec_DecodeToDic
         U _LzmaDec_FreeProbs
         U _LzmaDec_Init
         U _LzmaDec_InitDicAndState
         U ___stack_chk_fail
         U ___stack_chk_guard
         U _memcpy

build/AppDeck/AppDeck.a(LzmaDec.o) (for architecture armv7):
000015c0 s _.memset_pattern
00001488 T _LzmaDec_Allocate
00001410 T _LzmaDec_AllocateProbs
0000143c t _LzmaDec_AllocateProbs2
000007fc t _LzmaDec_DecodeReal2
0000129c T _LzmaDec_DecodeToBuf
00000038 T _LzmaDec_DecodeToDic
00001360 T _LzmaDec_Free
00001348 T _LzmaDec_FreeProbs
00000024 T _LzmaDec_Init
00000000 T _LzmaDec_InitDicAndState
0000035c t _LzmaDec_TryDummy
000002c4 t _LzmaDec_WriteRem
000014f8 T _LzmaDecode
00001380 T _LzmaProps_Decode
         U ___stack_chk_fail
         U ___stack_chk_guard
         U _memcpy
         U _memset_pattern16

build/AppDeck/AppDeck.a(LZMAExtractor.o) (for architecture armv7):
000003e0 t +[LZMAExtractor extract7zArchive:dirName:preserveDir:]
00000744 t +[LZMAExtractor extract7zArchive:tmpDirName:]
000007d8 t +[LZMAExtractor extractArchiveEntry:archiveEntry:outPath:]
00000000 t +[LZMAExtractor generateUniqueTmpCachePath]
0000017c t +[LZMAExtractor recurseIntoDirectories:dirName:entryPrefix:]
         U _NSLog
         U _NSTemporaryDirectory
00000db4 S _OBJC_CLASS_$_LZMAExtractor
         U _OBJC_CLASS_$_NSArray
         U _OBJC_CLASS_$_NSDate
         U _OBJC_CLASS_$_NSFileManager
         U _OBJC_CLASS_$_NSMutableArray
         U _OBJC_CLASS_$_NSObject
         U _OBJC_CLASS_$_NSString
00000da0 S _OBJC_METACLASS_$_LZMAExtractor
         U _OBJC_METACLASS_$_NSObject
         U ___CFConstantStringClassReference
         U ___assert_rtn
         U ___stack_chk_fail
         U ___stack_chk_guard
         U __objc_empty_cache
         U __objc_empty_vtable
         U _do7z_extract_entry
         U _objc_autoreleaseReturnValue
         U _objc_enumerationMutation
         U _objc_msgSend
         U _objc_release
         U _objc_retain
         U _objc_retainAutorelease
         U _objc_retainAutoreleasedReturnValue
00000b6c s l_.str
00000b71 s l_.str10
00000b72 s l_.str14
00000b74 s l_.str16
00000b79 s l_.str18
00000c16 s l_.str33
00000c1c s l_.str41
00000b6f s l_.str8
00000d0c s l_OBJC_$_CLASS_METHODS_LZMAExtractor
00000d78 s l_OBJC_CLASS_RO_$_LZMAExtractor
00000d50 s l_OBJC_METACLASS_RO_$_LZMAExtractor

build/AppDeck/AppDeck.a(Ppmd7.o) (for architecture armv7):
00000b4c t _AllocUnits
00000b8c t _AllocUnitsRare
000009dc t _CreateSuccessors
00000618 t _NextContext
00000de4 S _PPMD7_kExpEscape
000000c8 T _Ppmd7_Alloc
00000000 T _Ppmd7_Construct
000000b0 T _Ppmd7_Free
00000118 T _Ppmd7_Init
0000026c T _Ppmd7_MakeEscFreq
00000304 T _Ppmd7_Update1
00000640 T _Ppmd7_Update1_0
000006a8 T _Ppmd7_Update2
00000688 T _Ppmd7_UpdateBin
00000378 t _Rescale
00000138 t _RestartModel
00000d70 t _SplitBlock
000006d8 t _UpdateModel
         U ___stack_chk_fail
         U ___stack_chk_guard
         U ___udivsi3
00000df4 s _kInitBinEsc
         U _memcpy
         U _memset

build/AppDeck/AppDeck.a(Ppmd7Dec.o) (for architecture armv7):
         U _PPMD7_kExpEscape
000000c0 T _Ppmd7_DecodeSymbol
         U _Ppmd7_MakeEscFreq
         U _Ppmd7_Update1
         U _Ppmd7_Update1_0
         U _Ppmd7_Update2
         U _Ppmd7_UpdateBin
0000003c T _Ppmd7z_RangeDec_CreateVTable
00000000 T _Ppmd7z_RangeDec_Init
00000080 t _Range_Decode
0000009c t _Range_DecodeBit
00000064 t _Range_GetThreshold
00000390 t _Range_Normalize
         U ___stack_chk_fail
         U ___stack_chk_guard
         U ___udivsi3

build/AppDeck/AppDeck.a(Ppmd8.o) (for architecture armv7):
00000fb8 t _AllocUnits
00001008 t _AllocUnitsRare
00000b98 t _CreateSuccessors
000013b4 t _CutOff
00001368 t _GetUsedMemory
00000678 t _NextContext
0000179e S _PPMD8_kExpEscape
000000ac T _Ppmd8_Alloc
00000000 T _Ppmd8_Construct
00000094 T _Ppmd8_Free
000000fc T _Ppmd8_Init
000002bc T _Ppmd8_MakeEscFreq
0000033c T _Ppmd8_Update1
000006a8 T _Ppmd8_Update1_0
0000070c T _Ppmd8_Update2
000006f0 T _Ppmd8_UpdateBin
000012c4 t _Refresh
000003b0 t _Rescale
00000120 t _RestartModel
00000d70 t _RestoreModel
000016f4 t _ShrinkUnits
0000121c t _SplitBlock
00000740 t _UpdateModel
         U ___stack_chk_fail
         U ___stack_chk_guard
         U ___udivsi3
000017ae s _kInitBinEsc
         U _memcpy
         U _memset

build/AppDeck/AppDeck.a(Ppmd8Dec.o) (for architecture armv7):
         U _PPMD8_kExpEscape
00000030 T _Ppmd8_DecodeSymbol
         U _Ppmd8_MakeEscFreq
00000000 T _Ppmd8_RangeDec_Init
         U _Ppmd8_Update1
         U _Ppmd8_Update1_0
         U _Ppmd8_Update2
         U _Ppmd8_UpdateBin
00000340 t _RangeDec_Decode
         U ___stack_chk_fail
         U ___stack_chk_guard
         U ___udivsi3

build/AppDeck/AppDeck.a(7zAlloc.o) (for architecture armv7):
00000000 T _SzAlloc
00000018 T _SzAllocTemp
00000010 T _SzFree
00000028 T _SzFreeTemp
         U _free
         U _malloc

build/AppDeck/AppDeck.a(7zMain.o) (for architecture armv7):
         U _Buf_Create
         U _Buf_Free
         U _Buf_Init
         U _FileInStream_CreateVTable
         U _File_Close
         U _File_Write
         U _InFile_Open
         U _LookToRead_CreateVTable
         U _LookToRead_Init
0000057c t _MyCreateDir
         U _OutFile_Open
00000000 T _PrintError
         U _SzAlloc
         U _SzAllocTemp
         U _SzArEx_DictCache_free
         U _SzArEx_DictCache_init
         U _SzArEx_Extract
         U _SzArEx_Free
         U _SzArEx_GetFileNameUtf16
         U _SzArEx_Init
         U _SzArEx_Open
         U _SzFree
         U _SzFreeTemp
000004f4 t _Utf16_To_Char
000005bc t _Utf16_To_Utf8
         U ___assert_rtn
         U ___error
         U ___stack_chk_fail
         U ___stack_chk_guard
00000018 T _do7z_extract_entry
0000085c d _g_Alloc
00000864 s _kUtf8Limits
         U _mkdir
         U _printf
         U _strcmp
         U _strlen
         U _unlink

build/AppDeck/AppDeck.a(JSonHTTPApi.o) (for architecture armv7):
00000500 t +[JSonHTTPApi apiWithURL:params:callback:]
00000738 t -[JSonHTTPApi .cxx_destruct]
00000700 t -[JSonHTTPApi callback]
0000064c t -[JSonHTTPApi connection:didFailWithError:]
000005ac t -[JSonHTTPApi connection:didReceiveData:]
0000058c t -[JSonHTTPApi connection:didReceiveResponse:]
000005cc t -[JSonHTTPApi connectionDidFinishLoading:]
00000000 t -[JSonHTTPApi initWithURL:params:callback:]
00000e7c s -[JSonHTTPApi initWithURL:params:callback:].eh
00000690 t -[JSonHTTPApi params]
00000714 t -[JSonHTTPApi setCallback:]
000006a0 t -[JSonHTTPApi setParams:]
000006d8 t -[JSonHTTPApi setUrl:]
000006c8 t -[JSonHTTPApi url]
00000e60 s EH_frame0
000007a8 s GCC_except_table0
         U _NSLocalizedDescriptionKey
00000c0c S _OBJC_CLASS_$_JSonHTTPApi
         U _OBJC_CLASS_$_NSError
         U _OBJC_CLASS_$_NSMutableData
         U _OBJC_CLASS_$_NSMutableDictionary
         U _OBJC_CLASS_$_NSMutableString
         U _OBJC_CLASS_$_NSMutableURLRequest
         U _OBJC_CLASS_$_NSObject
         U _OBJC_CLASS_$_NSURL
         U _OBJC_CLASS_$_NSURLConnection
00000c08 S _OBJC_IVAR_$_JSonHTTPApi._callback
00000c00 S _OBJC_IVAR_$_JSonHTTPApi._params
00000c04 S _OBJC_IVAR_$_JSonHTTPApi._url
00000bf8 S _OBJC_IVAR_$_JSonHTTPApi.conn
00000bfc S _OBJC_IVAR_$_JSonHTTPApi.receivedData
00000c20 S _OBJC_METACLASS_$_JSonHTTPApi
         U _OBJC_METACLASS_$_NSObject
         U __Block_object_assign
         U __Block_object_dispose
         U __NSConcreteStackBlock
         U __Unwind_SjLj_Register
         U __Unwind_SjLj_Resume
         U __Unwind_SjLj_Unregister
00000400 t ___43-[JSonHTTPApi initWithURL:params:callback:]_block_invoke
000003ec t ___Block_byref_object_copy_
000003f8 t ___Block_byref_object_dispose_
         U ___CFConstantStringClassReference
00000be0 s ___block_descriptor_tmp
000004ec t ___copy_helper_block_
000004f8 t ___destroy_helper_block_
         U ___objc_personality_v0
         U __objc_empty_cache
         U __objc_empty_vtable
         U _objc_autoreleaseReturnValue
         U _objc_getProperty
         U _objc_msgSend
         U _objc_release
         U _objc_retain
         U _objc_retainAutoreleasedReturnValue
         U _objc_setProperty
         U _objc_storeStrong
00000ac8 s l_.str
00000ad0 s l_.str17
00000ad1 s l_.str19
00000ae2 s l_.str30
00000ae7 s l_.str45
00000afc s l_.str50
00000cc0 s l_OBJC_$_CLASS_METHODS_JSonHTTPApi
00000cfc s l_OBJC_$_INSTANCE_METHODS_JSonHTTPApi
00000d94 s l_OBJC_$_INSTANCE_VARIABLES_JSonHTTPApi
00000e00 s l_OBJC_$_PROP_LIST_JSonHTTPApi
00000e20 s l_OBJC_CLASS_RO_$_JSonHTTPApi
00000cd4 s l_OBJC_METACLASS_RO_$_JSonHTTPApi

build/AppDeck/AppDeck.a(JSONKit.o) (for architecture armv7):
00000108 t +[JKArray allocWithZone:]
00000cfc t +[JKDictionary allocWithZone:]
0000227c t +[JKSerializer serializeObject:options:encodeOption:block:delegate:selector:error:]
00001650 t +[JSONDecoder decoderWithParseOptions:]
0000163c t +[JSONDecoder decoder]
00000a78 t -[JKArray copyWithZone:]
000003ec t -[JKArray countByEnumeratingWithState:objects:count:]
00000218 t -[JKArray count]
00000190 t -[JKArray dealloc]
00000228 t -[JKArray getObjects:range:]
00000474 t -[JKArray insertObject:atIndex:]
00000af4 t -[JKArray mutableCopyWithZone:]
0000034c t -[JKArray objectAtIndex:]
000006e8 t -[JKArray removeObjectAtIndex:]
00000890 t -[JKArray replaceObjectAtIndex:withObject:]
000015a4 t -[JKDictionary copyWithZone:]
00000f64 t -[JKDictionary countByEnumeratingWithState:objects:count:]
00000e30 t -[JKDictionary count]
00000d84 t -[JKDictionary dealloc]
00000f00 t -[JKDictionary getObjects:andKeys:]
00000ff4 t -[JKDictionary keyEnumerator]
00001604 t -[JKDictionary mutableCopyWithZone:]
00000e40 t -[JKDictionary objectForKey:]
00001380 t -[JKDictionary removeObjectForKey:]
0000103c t -[JKDictionary setObject:forKey:]
00000bf4 t -[JKDictionaryEnumerator allObjects]
00000bac t -[JKDictionaryEnumerator dealloc]
00000b48 t -[JKDictionaryEnumerator initWithJKDictionary:]
00000c98 t -[JKDictionaryEnumerator nextObject]
0000374c t -[JKSerializer dealloc]
000036e8 t -[JKSerializer releaseState]
000022cc t -[JKSerializer serializeObject:options:encodeOption:block:delegate:selector:error:]
00001844 t -[JSONDecoder clearCache]
000017b4 t -[JSONDecoder dealloc]
000016a0 t -[JSONDecoder initWithParseOptions:]
0000168c t -[JSONDecoder init]
00001f28 t -[JSONDecoder mutableObjectWithData:]
00001f3c t -[JSONDecoder mutableObjectWithData:error:]
00001e68 t -[JSONDecoder mutableObjectWithUTF8String:length:]
00001e8c t -[JSONDecoder mutableObjectWithUTF8String:length:error:]
00001dc4 t -[JSONDecoder objectWithData:]
00001dd8 t -[JSONDecoder objectWithData:error:]
00001938 t -[JSONDecoder objectWithUTF8String:length:]
0000195c t -[JSONDecoder objectWithUTF8String:length:error:]
00001914 t -[JSONDecoder parseJSONData:]
00001928 t -[JSONDecoder parseJSONData:error:]
000018e0 t -[JSONDecoder parseUTF8String:length:]
00001904 t -[JSONDecoder parseUTF8String:length:error:]
000038a8 t -[NSArray(JSONKitSerializing) JSONDataWithOptions:error:]
000038ec t -[NSArray(JSONKitSerializing) JSONDataWithOptions:serializeUnsupportedClassesUsingDelegate:selector:error:]
0000386c t -[NSArray(JSONKitSerializing) JSONData]
00003970 t -[NSArray(JSONKitSerializing) JSONStringWithOptions:error:]
000039b4 t -[NSArray(JSONKitSerializing) JSONStringWithOptions:serializeUnsupportedClassesUsingDelegate:selector:error:]
00003934 t -[NSArray(JSONKitSerializing) JSONString]
00003b8c t -[NSArray(JSONKitSerializingBlockAdditions) JSONDataWithOptions:serializeUnsupportedClassesUsingBlock:error:]
00003bd0 t -[NSArray(JSONKitSerializingBlockAdditions) JSONStringWithOptions:serializeUnsupportedClassesUsingBlock:error:]
0000221c t -[NSData(JSONKitDeserializing) mutableObjectFromJSONDataWithParseOptions:]
00002230 t -[NSData(JSONKitDeserializing) mutableObjectFromJSONDataWithParseOptions:error:]
00002208 t -[NSData(JSONKitDeserializing) mutableObjectFromJSONData]
000021a8 t -[NSData(JSONKitDeserializing) objectFromJSONDataWithParseOptions:]
000021bc t -[NSData(JSONKitDeserializing) objectFromJSONDataWithParseOptions:error:]
00002194 t -[NSData(JSONKitDeserializing) objectFromJSONData]
00003a38 t -[NSDictionary(JSONKitSerializing) JSONDataWithOptions:error:]
00003a7c t -[NSDictionary(JSONKitSerializing) JSONDataWithOptions:serializeUnsupportedClassesUsingDelegate:selector:error:]
000039fc t -[NSDictionary(JSONKitSerializing) JSONData]
00003b00 t -[NSDictionary(JSONKitSerializing) JSONStringWithOptions:error:]
00003b44 t -[NSDictionary(JSONKitSerializing) JSONStringWithOptions:serializeUnsupportedClassesUsingDelegate:selector:error:]
00003ac4 t -[NSDictionary(JSONKitSerializing) JSONString]
00003c14 t -[NSDictionary(JSONKitSerializingBlockAdditions) JSONDataWithOptions:serializeUnsupportedClassesUsingBlock:error:]
00003c58 t -[NSDictionary(JSONKitSerializingBlockAdditions) JSONStringWithOptions:serializeUnsupportedClassesUsingBlock:error:]
00002174 t -[NSString(JSONKitDeserializing) mutableObjectFromJSONStringWithParseOptions:]
00002188 t -[NSString(JSONKitDeserializing) mutableObjectFromJSONStringWithParseOptions:error:]
00002160 t -[NSString(JSONKitDeserializing) mutableObjectFromJSONString]
00001fe0 t -[NSString(JSONKitDeserializing) objectFromJSONStringWithParseOptions:]
00001ff4 t -[NSString(JSONKitDeserializing) objectFromJSONStringWithParseOptions:error:]
00001fcc t -[NSString(JSONKitDeserializing) objectFromJSONString]
000037b0 t -[NSString(JSONKitSerializing) JSONDataWithOptions:includeQuotes:error:]
0000378c t -[NSString(JSONKitSerializing) JSONData]
00003820 t -[NSString(JSONKitSerializing) JSONStringWithOptions:includeQuotes:error:]
000037fc t -[NSString(JSONKitSerializing) JSONString]
         U _CFArrayGetCount
         U _CFArrayGetValues
         U _CFDataCreate
         U _CFDataCreateMutable
         U _CFDataCreateWithBytesNoCopy
         U _CFDataGetMutableBytePtr
         U _CFDataSetLength
         U _CFDictionaryGetCount
         U _CFDictionaryGetKeysAndValues
         U _CFDictionaryGetValue
         U _CFEqual
         U _CFHash
         U _CFNumberCreate
         U _CFNumberGetValue
         U _CFRelease
         U _CFRetain
         U _CFStringCreateWithBytes
         U _CFStringCreateWithBytesNoCopy
         U _CFStringGetBytes
         U _CFStringGetCStringPtr
         U _CFStringGetLength
         U _CFStringGetMaximumSizeForEncoding
00003dec t _ConvertSingleCodePointInUTF8
         U _NSInternalInconsistencyException
         U _NSInvalidArgumentException
         U _NSLocalizedDescriptionKey
         U _NSMallocException
         U _NSRangeException
         U _NSStringFromClass
         U _NSStringFromSelector
00007d8c S _OBJC_CLASS_$_JKArray
00007ddc S _OBJC_CLASS_$_JKDictionary
00007db4 S _OBJC_CLASS_$_JKDictionaryEnumerator
00007e2c S _OBJC_CLASS_$_JKSerializer
00007e04 S _OBJC_CLASS_$_JSONDecoder
         U _OBJC_CLASS_$_NSArray
         U _OBJC_CLASS_$_NSAutoreleasePool
         U _OBJC_CLASS_$_NSData
         U _OBJC_CLASS_$_NSDictionary
         U _OBJC_CLASS_$_NSEnumerator
         U _OBJC_CLASS_$_NSError
         U _OBJC_CLASS_$_NSException
         U _OBJC_CLASS_$_NSMutableArray
         U _OBJC_CLASS_$_NSMutableDictionary
         U _OBJC_CLASS_$_NSNull
         U _OBJC_CLASS_$_NSNumber
         U _OBJC_CLASS_$_NSObject
         U _OBJC_CLASS_$_NSString
00007d68 S _OBJC_IVAR_$_JKArray.capacity
00007d60 S _OBJC_IVAR_$_JKArray.count
00007d64 S _OBJC_IVAR_$_JKArray.mutations
00007d5c S _OBJC_IVAR_$_JKArray.objects
00007d78 S _OBJC_IVAR_$_JKDictionary.capacity
00007d7c S _OBJC_IVAR_$_JKDictionary.count
00007d74 S _OBJC_IVAR_$_JKDictionary.entry
00007d80 S _OBJC_IVAR_$_JKDictionary.mutations
00007d6c S _OBJC_IVAR_$_JKDictionaryEnumerator.collection
00007d70 S _OBJC_IVAR_$_JKDictionaryEnumerator.nextObject
00007d88 S _OBJC_IVAR_$_JKSerializer.encodeState
00007d84 S _OBJC_IVAR_$_JSONDecoder.parseState
         U _OBJC_IVAR_$_NSObject.isa
00007da0 S _OBJC_METACLASS_$_JKArray
00007df0 S _OBJC_METACLASS_$_JKDictionary
00007dc8 S _OBJC_METACLASS_$_JKDictionaryEnumerator
00007e40 S _OBJC_METACLASS_$_JKSerializer
00007e18 S _OBJC_METACLASS_$_JSONDecoder
         U _OBJC_METACLASS_$_NSEnumerator
         U _OBJC_METACLASS_$_NSMutableArray
         U _OBJC_METACLASS_$_NSMutableDictionary
         U _OBJC_METACLASS_$_NSObject
000012a0 t __JKDictionaryAddObject
00005c28 t __JKDictionaryCapacityForCount
00000e58 t __JKDictionaryHashTableEntryForKey
00001488 t __JKDictionaryRemoveObjectWithEntry
000019f8 t __JKParseUTF8String
000017e8 t __JSONDecoderCleanup
00008c30 b __MergedGlobals
00002000 t __NSStringObjectFromJSONString
         U ___CFConstantStringClassReference
         U ___error
         U ___stack_chk_fail
         U ___stack_chk_guard
         U ___udivdi3
         U ___umoddi3
         U ___umodsi3
         U ___vsnprintf_chk
         U __objc_empty_cache
         U __objc_empty_vtable
         U _calloc
         U _class_getInstanceSize
00008bb8 s _firstByteMark
         U _floor
         U _free
00005788 t _jk_cachedObjects
00000000 T _jk_collectionClassLoadTimeInitialization
00008b18 s _jk_dictionaryCapacities
00002818 t _jk_encode_add_atom_to_buffer
0000274c t _jk_encode_error
00003d1c t _jk_encode_printf
000040fc t _jk_encode_write1fast
00004040 t _jk_encode_write1slow
00004180 t _jk_encode_writePrettyPrintWhiteSpace
00003fc4 t _jk_encode_writen
00005660 t _jk_error
00005b60 t _jk_error_parse_accept_or3
0000371c t _jk_managedBuffer_release
00003c9c t _jk_managedBuffer_resize
00004204 t _jk_objectStack_release
00005a4c t _jk_objectStack_resize
00004fa8 t _jk_object_for_token
00004288 t _jk_parse_next_token
00005c88 t _jk_parse_number
         U _kCFBooleanFalse
         U _kCFBooleanTrue
         U _kCFNull
         U _lround
         U _malloc
         U _memcmp
         U _memcpy
         U _memmove
         U _memset
         U _objc_enumerationMutation
         U _objc_getClass
         U _objc_msgSend
         U _objc_msgSendSuper2
00008b00 s _offsetsFromUTF8
         U _realloc
         U _reallocf
         U _strlen
         U _strtod
         U _strtoll
         U _strtoull
00006b87 s l_.str106
00006b9e s l_.str112
00006bb2 s l_.str114
00006bcf s l_.str116
000069d9 s l_.str14
00006bee s l_.str167
00006c12 s l_.str169
00006c58 s l_.str173
00006cba s l_.str177
00006d03 s l_.str180
00006d3d s l_.str182
00006d56 s l_.str184
00006d75 s l_.str186
00006d96 s l_.str188
00006a33 s l_.str19
00006a7a s l_.str21
00006dae s l_.str213
00006dd1 s l_.str216
00006df6 s l_.str218
00006e6f s l_.str220
00006e7c s l_.str223
00006ebd s l_.str225
00006aa8 s l_.str23
00006eee s l_.str232
00006f2a s l_.str235
00006f59 s l_.str237
00006fad s l_.str240
00006fe4 s l_.str242
00006adf s l_.str25
0000702b s l_.str255
00007051 s l_.str260
00007070 s l_.str265
0000707e s l_.str275
0000709a s l_.str277
000070b9 s l_.str279
000070cf s l_.str281
0000712e s l_.str285
0000713b s l_.str287
0000714b s l_.str289
000071c0 s l_.str294
00007208 s l_.str296
0000721a s l_.str298
00007239 s l_.str300
00007249 s l_.str302
00007259 s l_.str304
00007261 s l_.str306
00007269 s l_.str308
0000726f s l_.str310
00007288 s l_.str312
000072a7 s l_.str314
000072ca s l_.str316
00007317 s l_.str318
0000732a s l_.str320
00007347 s l_.str322
00007357 s l_.str324
00007362 s l_.str326
00007368 s l_.str328
00007376 s l_.str330
00007396 s l_.str332
00007397 s l_.str334
000073ce s l_.str336
00007434 s l_.str338
00007488 s l_.str342
000074d3 s l_.str344
0000751e s l_.str346
0000756b s l_.str348
0000757b s l_.str350
000075bb s l_.str352
000075ee s l_.str354
00007618 s l_.str356
0000764f s l_.str358
000076a3 s l_.str360
000076cf s l_.str362
000076f3 s l_.str364
00007750 s l_.str366
000077af s l_.str368
000077e1 s l_.str370
000077f1 s l_.str373
0000781b s l_.str375
00006b03 s l_.str78
00006b2b s l_.str80
00006b5f s l_.str84
00008930 s l_OBJC_$_CATEGORY_INSTANCE_METHODS_NSArray_$_JSONKitSerializing
00008a00 s l_OBJC_$_CATEGORY_INSTANCE_METHODS_NSArray_$_JSONKitSerializingBlockAdditions
000087cc s l_OBJC_$_CATEGORY_INSTANCE_METHODS_NSData_$_JSONKitDeserializing
00008998 s l_OBJC_$_CATEGORY_INSTANCE_METHODS_NSDictionary_$_JSONKitSerializing
00008a38 s l_OBJC_$_CATEGORY_INSTANCE_METHODS_NSDictionary_$_JSONKitSerializingBlockAdditions
00008764 s l_OBJC_$_CATEGORY_INSTANCE_METHODS_NSString_$_JSONKitDeserializing
000088e0 s l_OBJC_$_CATEGORY_INSTANCE_METHODS_NSString_$_JSONKitSerializing
00008980 s l_OBJC_$_CATEGORY_NSArray_$_JSONKitSerializing
00008a20 s l_OBJC_$_CATEGORY_NSArray_$_JSONKitSerializingBlockAdditions
0000881c s l_OBJC_$_CATEGORY_NSData_$_JSONKitDeserializing
000089e8 s l_OBJC_$_CATEGORY_NSDictionary_$_JSONKitSerializing
00008a58 s l_OBJC_$_CATEGORY_NSDictionary_$_JSONKitSerializingBlockAdditions
000087b4 s l_OBJC_$_CATEGORY_NSString_$_JSONKitDeserializing
00008918 s l_OBJC_$_CATEGORY_NSString_$_JSONKitSerializing
00008270 s l_OBJC_$_CLASS_METHODS_JKArray
000084c0 s l_OBJC_$_CLASS_METHODS_JKDictionary
00008834 s l_OBJC_$_CLASS_METHODS_JKSerializer
00008610 s l_OBJC_$_CLASS_METHODS_JSONDecoder
00008308 s l_OBJC_$_INSTANCE_METHODS_JKArray
00008510 s l_OBJC_$_INSTANCE_METHODS_JKDictionary
00008430 s l_OBJC_$_INSTANCE_METHODS_JKDictionaryEnumerator
00008870 s l_OBJC_$_INSTANCE_METHODS_JKSerializer
00008658 s l_OBJC_$_INSTANCE_METHODS_JSONDecoder
00008388 s l_OBJC_$_INSTANCE_VARIABLES_JKArray
00008590 s l_OBJC_$_INSTANCE_VARIABLES_JKDictionary
00008468 s l_OBJC_$_INSTANCE_VARIABLES_JKDictionaryEnumerator
0000889c s l_OBJC_$_INSTANCE_VARIABLES_JKSerializer
00008720 s l_OBJC_$_INSTANCE_VARIABLES_JSONDecoder
00008284 s l_OBJC_$_PROTOCOL_INSTANCE_METHODS_NSCopying
000082b4 s l_OBJC_$_PROTOCOL_INSTANCE_METHODS_NSFastEnumeration
0000829c s l_OBJC_$_PROTOCOL_INSTANCE_METHODS_NSMutableCopying
00008298 s l_OBJC_$_PROTOCOL_METHOD_TYPES_NSCopying
000082c8 s l_OBJC_$_PROTOCOL_METHOD_TYPES_NSFastEnumeration
000082b0 s l_OBJC_$_PROTOCOL_METHOD_TYPES_NSMutableCopying
000082cc s l_OBJC_CLASS_PROTOCOLS_$_JKArray
000084d4 s l_OBJC_CLASS_PROTOCOLS_$_JKDictionary
000083e0 s l_OBJC_CLASS_RO_$_JKArray
000085e8 s l_OBJC_CLASS_RO_$_JKDictionary
00008498 s l_OBJC_CLASS_RO_$_JKDictionaryEnumerator
000088b8 s l_OBJC_CLASS_RO_$_JKSerializer
0000873c s l_OBJC_CLASS_RO_$_JSONDecoder
00008af4 S l_OBJC_LABEL_PROTOCOL_$_NSCopying
00008afc S l_OBJC_LABEL_PROTOCOL_$_NSFastEnumeration
00008af8 S l_OBJC_LABEL_PROTOCOL_$_NSMutableCopying
000082e0 s l_OBJC_METACLASS_RO_$_JKArray
000084e8 s l_OBJC_METACLASS_RO_$_JKDictionary
00008408 s l_OBJC_METACLASS_RO_$_JKDictionaryEnumerator
00008848 s l_OBJC_METACLASS_RO_$_JKSerializer
00008630 s l_OBJC_METACLASS_RO_$_JSONDecoder
00008a70 S l_OBJC_PROTOCOL_$_NSCopying
00008ac8 S l_OBJC_PROTOCOL_$_NSFastEnumeration
00008a9c S l_OBJC_PROTOCOL_$_NSMutableCopying

build/AppDeck/AppDeck.a(MBProgressHUD.o) (for architecture armv7):
000001e8 t +[MBProgressHUD HUDForView:]
00000338 t +[MBProgressHUD allHUDsForView:]
000000e8 t +[MBProgressHUD hideAllHUDsForView:animated:]
00000084 t +[MBProgressHUD hideHUDForView:animated:]
00000000 t +[MBProgressHUD showHUDAddedTo:animated:]
00003338 t -[MBProgressHUD .cxx_destruct]
000010d8 t -[MBProgressHUD animationFinished:finished:context:]
00002db0 t -[MBProgressHUD animationType]
00001560 t -[MBProgressHUD cleanUp]
00002e3c t -[MBProgressHUD color]
00003300 t -[MBProgressHUD completionBlock]
00003178 t -[MBProgressHUD customView]
0000085c t -[MBProgressHUD dealloc]
00002ddc t -[MBProgressHUD delegate]
00002eac t -[MBProgressHUD detailsLabelFont]
0000324c t -[MBProgressHUD detailsLabelText]
00002a84 t -[MBProgressHUD deviceOrientationDidChange:]
00000be8 t -[MBProgressHUD didMoveToSuperview]
00003020 t -[MBProgressHUD dimBackground]
000010e8 t -[MBProgressHUD done]
000020c0 t -[MBProgressHUD drawRect:]
00005208 s -[MBProgressHUD drawRect:].gradColors
00003050 t -[MBProgressHUD graceTime]
000030a8 t -[MBProgressHUD graceTimer]
00000b78 t -[MBProgressHUD handleGraceTimer:]
00000bc8 t -[MBProgressHUD handleMinShowTimer:]
00000984 t -[MBProgressHUD hide:]
00000adc t -[MBProgressHUD hide:afterDelay:]
00000b48 t -[MBProgressHUD hideDelayed:]
00000eb0 t -[MBProgressHUD hideUsingAnimation:]
00002ee4 t -[MBProgressHUD indicator]
000004c4 t -[MBProgressHUD initWithFrame:]
000007dc t -[MBProgressHUD initWithView:]
00000838 t -[MBProgressHUD initWithWindow:]
00002fc4 t -[MBProgressHUD isSquare]
00002e74 t -[MBProgressHUD labelFont]
00003214 t -[MBProgressHUD labelText]
000014e8 t -[MBProgressHUD launchExecution]
00001b6c t -[MBProgressHUD layoutSubviews]
00002ff4 t -[MBProgressHUD margin]
0000307c t -[MBProgressHUD minShowTime]
000030e0 t -[MBProgressHUD minShowTimer]
00002f74 t -[MBProgressHUD minSize]
000031e8 t -[MBProgressHUD mode]
000026c0 t -[MBProgressHUD observableKeypaths]
0000273c t -[MBProgressHUD observeValueForKeyPath:ofObject:change:context:]
00002e10 t -[MBProgressHUD opacity]
00003284 t -[MBProgressHUD progress]
00002508 t -[MBProgressHUD registerForKVO]
000029c4 t -[MBProgressHUD registerForNotifications]
00003148 t -[MBProgressHUD removeFromSuperViewOnHide]
00002dc4 t -[MBProgressHUD setAnimationType:]
00002e50 t -[MBProgressHUD setColor:]
00003314 t -[MBProgressHUD setCompletionBlock:]
0000318c t -[MBProgressHUD setCustomView:]
00002dfc t -[MBProgressHUD setDelegate:]
00002ec0 t -[MBProgressHUD setDetailsLabelFont:]
00003260 t -[MBProgressHUD setDetailsLabelText:]
00003038 t -[MBProgressHUD setDimBackground:]
00003064 t -[MBProgressHUD setGraceTime:]
000030bc t -[MBProgressHUD setGraceTimer:]
00002ef8 t -[MBProgressHUD setIndicator:]
00002e88 t -[MBProgressHUD setLabelFont:]
00003228 t -[MBProgressHUD setLabelText:]
00003008 t -[MBProgressHUD setMargin:]
00003090 t -[MBProgressHUD setMinShowTime:]
000030f4 t -[MBProgressHUD setMinShowTimer:]
00002f98 t -[MBProgressHUD setMinSize:]
000031fc t -[MBProgressHUD setMode:]
00002e24 t -[MBProgressHUD setOpacity:]
00003298 t -[MBProgressHUD setProgress:]
00003160 t -[MBProgressHUD setRemoveFromSuperViewOnHide:]
000031c4 t -[MBProgressHUD setShowStarted:]
000032d4 t -[MBProgressHUD setSize:]
00002fdc t -[MBProgressHUD setSquare:]
00003130 t -[MBProgressHUD setTaskInProgress:]
00002b7c t -[MBProgressHUD setTransformForCurrentOrientation:]
00002f30 t -[MBProgressHUD setXOffset:]
00002f5c t -[MBProgressHUD setYOffset:]
000015d8 t -[MBProgressHUD setupLabels]
000008b0 t -[MBProgressHUD show:]
000012b8 t -[MBProgressHUD showAnimated:whileExecutingBlock:]
000012f8 t -[MBProgressHUD showAnimated:whileExecutingBlock:completionBlock:]
0000133c t -[MBProgressHUD showAnimated:whileExecutingBlock:onQueue:]
00001360 t -[MBProgressHUD showAnimated:whileExecutingBlock:onQueue:completionBlock:]
000031b0 t -[MBProgressHUD showStarted]
00000c60 t -[MBProgressHUD showUsingAnimation:]
000011e0 t -[MBProgressHUD showWhileExecuting:onTarget:withObject:animated:]
000032b0 t -[MBProgressHUD size]
00003118 t -[MBProgressHUD taskInProgress]
000025e8 t -[MBProgressHUD unregisterFromKVO]
00002a3c t -[MBProgressHUD unregisterFromNotifications]
00001940 t -[MBProgressHUD updateIndicators]
000027ac t -[MBProgressHUD updateUIForKeypath:]
00002f1c t -[MBProgressHUD xOffset]
00002f48 t -[MBProgressHUD yOffset]
00003ca0 t -[MBRoundProgressView .cxx_destruct]
00003c68 t -[MBRoundProgressView backgroundTintColor]
00003664 t -[MBRoundProgressView dealloc]
000036a4 t -[MBRoundProgressView drawRect:]
00003518 t -[MBRoundProgressView initWithFrame:]
000034e0 t -[MBRoundProgressView init]
000034b0 t -[MBRoundProgressView isAnnular]
00003bdc t -[MBRoundProgressView observableKeypaths]
00003c20 t -[MBRoundProgressView observeValueForKeyPath:ofObject:change:context:]
00003c30 t -[MBRoundProgressView progressTintColor]
00003480 t -[MBRoundProgressView progress]
00003a24 t -[MBRoundProgressView registerForKVO]
000034c0 t -[MBRoundProgressView setAnnular:]
00003c78 t -[MBRoundProgressView setBackgroundTintColor:]
00003490 t -[MBRoundProgressView setProgress:]
00003c40 t -[MBRoundProgressView setProgressTintColor:]
00003b04 t -[MBRoundProgressView unregisterFromKVO]
         U _CGAffineTransformConcat
         U _CGAffineTransformIdentity
         U _CGAffineTransformMakeRotation
         U _CGAffineTransformMakeScale
         U _CGColorSpaceCreateDeviceRGB
         U _CGColorSpaceRelease
         U _CGContextAddArc
         U _CGContextBeginPath
         U _CGContextClosePath
         U _CGContextDrawRadialGradient
         U _CGContextFillEllipseInRect
         U _CGContextFillPath
         U _CGContextMoveToPoint
         U _CGContextSetFillColorWithColor
         U _CGContextSetGrayFillColor
         U _CGContextSetLineWidth
         U _CGContextSetRGBFillColor
         U _CGContextStrokeEllipseInRect
         U _CGGradientCreateWithColorComponents
         U _CGGradientRelease
         U _CGRectGetMaxX
         U _CGRectGetMaxY
         U _CGRectGetMinX
         U _CGRectGetMinY
         U _CGRectInset
         U _CGSizeZero
00003cd4 S _OBJC_CLASS_$_MBProgressHUD
00003ce8 S _OBJC_CLASS_$_MBRoundProgressView
         U _OBJC_CLASS_$_NSArray
         U _OBJC_CLASS_$_NSDate
         U _OBJC_CLASS_$_NSMutableArray
         U _OBJC_CLASS_$_NSNotificationCenter
         U _OBJC_CLASS_$_NSNumber
         U _OBJC_CLASS_$_NSThread
         U _OBJC_CLASS_$_NSTimer
         U _OBJC_CLASS_$_UIActivityIndicatorView
         U _OBJC_CLASS_$_UIApplication
         U _OBJC_CLASS_$_UIBezierPath
         U _OBJC_CLASS_$_UIColor
         U _OBJC_CLASS_$_UIFont
         U _OBJC_CLASS_$_UILabel
         U _OBJC_CLASS_$_UIView
         U _OBJC_CLASS_$_UIWindow
00004ca0 S _OBJC_IVAR_$_MBProgressHUD.animationType
00004cf0 S _OBJC_IVAR_$_MBProgressHUD.color
00004d18 S _OBJC_IVAR_$_MBProgressHUD.completionBlock
00004ccc S _OBJC_IVAR_$_MBProgressHUD.customView
00004ca8 S _OBJC_IVAR_$_MBProgressHUD.delegate
00004cc0 S _OBJC_IVAR_$_MBProgressHUD.detailsLabel
00004cf8 S _OBJC_IVAR_$_MBProgressHUD.detailsLabelFont
00004d14 S _OBJC_IVAR_$_MBProgressHUD.detailsLabelText
00004cfc S _OBJC_IVAR_$_MBProgressHUD.dimBackground
00004d00 S _OBJC_IVAR_$_MBProgressHUD.graceTime
00004d08 S _OBJC_IVAR_$_MBProgressHUD.graceTimer
00004cc4 S _OBJC_IVAR_$_MBProgressHUD.indicator
00004ca4 S _OBJC_IVAR_$_MBProgressHUD.isFinished
00004cbc S _OBJC_IVAR_$_MBProgressHUD.label
00004cf4 S _OBJC_IVAR_$_MBProgressHUD.labelFont
00004d10 S _OBJC_IVAR_$_MBProgressHUD.labelText
00004cd0 S _OBJC_IVAR_$_MBProgressHUD.margin
00004cb0 S _OBJC_IVAR_$_MBProgressHUD.methodForExecution
00004d04 S _OBJC_IVAR_$_MBProgressHUD.minShowTime
00004d0c S _OBJC_IVAR_$_MBProgressHUD.minShowTimer
00004ce0 S _OBJC_IVAR_$_MBProgressHUD.minSize
00004cc8 S _OBJC_IVAR_$_MBProgressHUD.mode
00004cb8 S _OBJC_IVAR_$_MBProgressHUD.objectForExecution
00004cec S _OBJC_IVAR_$_MBProgressHUD.opacity
00004ce8 S _OBJC_IVAR_$_MBProgressHUD.progress
00004cac S _OBJC_IVAR_$_MBProgressHUD.removeFromSuperViewOnHide
00004c94 S _OBJC_IVAR_$_MBProgressHUD.rotationTransform
00004c9c S _OBJC_IVAR_$_MBProgressHUD.showStarted
00004ce4 S _OBJC_IVAR_$_MBProgressHUD.size
00004cdc S _OBJC_IVAR_$_MBProgressHUD.square
00004cb4 S _OBJC_IVAR_$_MBProgressHUD.targetForExecution
00004c90 S _OBJC_IVAR_$_MBProgressHUD.taskInProgress
00004c98 S _OBJC_IVAR_$_MBProgressHUD.useAnimation
00004cd8 S _OBJC_IVAR_$_MBProgressHUD.xOffset
00004cd4 S _OBJC_IVAR_$_MBProgressHUD.yOffset
00004d20 S _OBJC_IVAR_$_MBRoundProgressView._annular
00004d28 S _OBJC_IVAR_$_MBRoundProgressView._backgroundTintColor
00004d1c S _OBJC_IVAR_$_MBRoundProgressView._progress
00004d24 S _OBJC_IVAR_$_MBRoundProgressView._progressTintColor
00003cfc S _OBJC_METACLASS_$_MBProgressHUD
00003d10 S _OBJC_METACLASS_$_MBRoundProgressView
         U _OBJC_METACLASS_$_NSObject
         U _OBJC_METACLASS_$_UIView
         U _UIDeviceOrientationDidChangeNotification
         U _UIGraphicsGetCurrentContext
         U _UIGraphicsPopContext
         U _UIGraphicsPushContext
         U __Block_object_assign
         U __NSConcreteStackBlock
0000142c t ___74-[MBProgressHUD showAnimated:whileExecutingBlock:onQueue:completionBlock:]_block_invoke
00001490 t ___74-[MBProgressHUD showAnimated:whileExecutingBlock:onQueue:completionBlock:]_block_invoke_2
         U ___CFConstantStringClassReference
000051d0 s ___block_descriptor_tmp
000051f0 s ___block_descriptor_tmp184
000014a4 t ___copy_helper_block_
000014b4 t ___copy_helper_block_181
000014ac t ___destroy_helper_block_
000014d0 t ___destroy_helper_block_182
         U ___stack_chk_fail
         U ___stack_chk_guard
         U __dispatch_main_q
         U __objc_empty_cache
         U __objc_empty_vtable
         U _dispatch_async
         U _dispatch_get_global_queue
         U _objc_autoreleasePoolPop
         U _objc_autoreleasePoolPush
         U _objc_autoreleaseReturnValue
         U _objc_copyStruct
         U _objc_destroyWeak
         U _objc_enumerationMutation
         U _objc_getProperty
         U _objc_loadWeak
         U _objc_loadWeakRetained
         U _objc_msgSend
         U _objc_msgSendSuper2
         U _objc_msgSend_stret
         U _objc_release
         U _objc_retain
         U _objc_retainAutoreleasedReturnValue
         U _objc_retainBlock
         U _objc_setProperty
         U _objc_storeStrong
         U _objc_storeWeak
         U _roundf
00004d32 s l_.str254
00004d37 s l_.str255
00004d42 s l_.str257
00004d4c s l_.str259
00004d56 s l_.str261
00004d67 s l_.str263
00004d78 s l_.str265
000050e8 s l_.str454
000050fa s l_.str456
00005530 s l_OBJC_$_CLASS_METHODS_MBProgressHUD
0000559c s l_OBJC_$_INSTANCE_METHODS_MBProgressHUD
00005dd0 s l_OBJC_$_INSTANCE_METHODS_MBRoundProgressView
000059dc s l_OBJC_$_INSTANCE_VARIABLES_MBProgressHUD
00005ea4 s l_OBJC_$_INSTANCE_VARIABLES_MBRoundProgressView
00005ca0 s l_OBJC_$_PROP_LIST_MBProgressHUD
00005f00 s l_OBJC_$_PROP_LIST_MBRoundProgressView
00005d80 s l_OBJC_CLASS_RO_$_MBProgressHUD
00005f28 s l_OBJC_CLASS_RO_$_MBRoundProgressView
00005574 s l_OBJC_METACLASS_RO_$_MBProgressHUD
00005da8 s l_OBJC_METACLASS_RO_$_MBRoundProgressView

build/AppDeck/AppDeck.a(JRSwizzle.o) (for architecture armv7):
00000254 t +[NSObject(JRSwizzle) jr_swizzleClassMethod:withClassMethod:error:]
00000000 t +[NSObject(JRSwizzle) jr_swizzleMethod:withMethod:error:]
         U _NSLocalizedDescriptionKey
         U _NSStringFromSelector
         U _OBJC_CLASS_$_NSDictionary
         U _OBJC_CLASS_$_NSError
         U _OBJC_CLASS_$_NSObject
         U _OBJC_CLASS_$_NSString
         U ___CFConstantStringClassReference
         U _class_addMethod
         U _class_getInstanceMethod
         U _class_getMethodImplementation
         U _method_exchangeImplementations
         U _method_getTypeEncoding
         U _objc_autorelease
         U _objc_msgSend
         U _objc_release
         U _objc_retainAutoreleasedReturnValue
         U _object_getClass
0000028c s l_.str
00000307 s l_.str11
000002f4 s l_.str4
0000043c s l_OBJC_$_CATEGORY_CLASS_METHODS_NSObject_$_JRSwizzle
0000045c s l_OBJC_$_CATEGORY_NSObject_$_JRSwizzle

build/AppDeck/AppDeck.a(Reachability.o) (for architecture armv7):
00000268 t +[Reachability reachabilityForInternetConnection]
000002b4 t +[Reachability reachabilityForLocalWiFi]
000001f0 t +[Reachability reachabilityWithAddress:]
00000170 t +[Reachability reachabilityWithHostName:]
0000042c t -[Reachability connectionRequired]
00000458 t -[Reachability currentReachabilityStatus]
00000118 t -[Reachability dealloc]
0000031c t -[Reachability localWiFiStatusForFlags:]
000003e0 t -[Reachability networkStatusForFlags:]
00000000 t -[Reachability startNotifier]
000000e4 t -[Reachability stopNotifier]
         U _CFRelease
         U _CFRunLoopGetCurrent
         U _NSLog
         U _OBJC_CLASS_$_NSAutoreleasePool
         U _OBJC_CLASS_$_NSNotificationCenter
         U _OBJC_CLASS_$_NSObject
00000648 S _OBJC_CLASS_$_Reachability
000004b4 S _OBJC_IVAR_$_Reachability.localWiFiRef
000004b0 S _OBJC_IVAR_$_Reachability.reachabilityRef
         U _OBJC_METACLASS_$_NSObject
0000065c S _OBJC_METACLASS_$_Reachability
00000344 t _PrintReachabilityFlags
00000060 t _ReachabilityCallback
         U _SCNetworkReachabilityCreateWithAddress
         U _SCNetworkReachabilityCreateWithName
         U _SCNetworkReachabilityGetFlags
         U _SCNetworkReachabilityScheduleWithRunLoop
         U _SCNetworkReachabilitySetCallback
         U _SCNetworkReachabilityUnscheduleFromRunLoop
         U ___CFConstantStringClassReference
         U ___stack_chk_fail
         U ___stack_chk_guard
         U __objc_empty_cache
         U __objc_empty_vtable
         U _kCFAllocatorDefault
         U _kCFRunLoopDefaultMode
         U _objc_msgSend
         U _objc_msgSendSuper2
000006a2 s l_.str34
000006d4 s l_.str38
00000764 s l_OBJC_$_CLASS_METHODS_Reachability
000007c4 s l_OBJC_$_INSTANCE_METHODS_Reachability
00000820 s l_OBJC_$_INSTANCE_VARIABLES_Reachability
00000850 s l_OBJC_CLASS_RO_$_Reachability
0000079c s l_OBJC_METACLASS_RO_$_Reachability

build/AppDeck/AppDeck.a(NetWorkTester.o) (for architecture armv7):
00000000 t +[NetWorkTester getNetworkTester]
000008e4 b +[NetWorkTester getNetworkTester].tester
00000340 t -[NetWorkTester .cxx_destruct]
0000017c t -[NetWorkTester checkNetworkStatus:]
000002e0 t -[NetWorkTester hostActive]
00000054 t -[NetWorkTester init]
000002b0 t -[NetWorkTester internetActive]
000002f8 t -[NetWorkTester setHostActive:]
000002c8 t -[NetWorkTester setInternetActive:]
00000328 t -[NetWorkTester setWifiActive:]
00000310 t -[NetWorkTester wifiActive]
         U _NSLog
         U _OBJC_CLASS_$_NSNotificationCenter
         U _OBJC_CLASS_$_NSObject
00000374 S _OBJC_CLASS_$_NetWorkTester
         U _OBJC_CLASS_$_Reachability
0000071c S _OBJC_IVAR_$_NetWorkTester.hostActive
00000714 S _OBJC_IVAR_$_NetWorkTester.hostReachable
00000718 S _OBJC_IVAR_$_NetWorkTester.internetActive
00000710 S _OBJC_IVAR_$_NetWorkTester.internetReachable
00000720 S _OBJC_IVAR_$_NetWorkTester.wifiActive
         U _OBJC_METACLASS_$_NSObject
00000388 S _OBJC_METACLASS_$_NetWorkTester
         U ___CFConstantStringClassReference
         U __objc_empty_cache
         U __objc_empty_vtable
         U _objc_msgSend
         U _objc_release
         U _objc_retainAutoreleaseReturnValue
         U _objc_retainAutoreleasedReturnValue
         U _objc_storeStrong
00000520 s l_.str
00000548 s l_.str15
00000556 s l_.str25
0000056c s l_.str29
0000058e s l_.str31
000005b0 s l_.str33
000005d6 s l_.str35
00000608 s l_.str37
00000770 s l_OBJC_$_CLASS_METHODS_NetWorkTester
000007ac s l_OBJC_$_INSTANCE_METHODS_NetWorkTester
00000820 s l_OBJC_$_INSTANCE_VARIABLES_NetWorkTester
00000890 s l_OBJC_$_PROP_LIST_NetWorkTester
000008b0 s l_OBJC_CLASS_RO_$_NetWorkTester
00000784 s l_OBJC_METACLASS_RO_$_NetWorkTester

build/AppDeck/AppDeck.a(NSString+parseHTTPQuery.o) (for architecture armv7):
00000000 t -[NSString(parseHTTPQuery) parseHTTPQuery]
         U _NSLog
         U _OBJC_CLASS_$_NSMutableDictionary
         U _OBJC_CLASS_$_NSString
         U ___CFConstantStringClassReference
         U ___stack_chk_fail
         U ___stack_chk_guard
         U _objc_autoreleaseReturnValue
         U _objc_enumerationMutation
         U _objc_msgSend
         U _objc_msgSend_stret
         U _objc_release
         U _objc_retain
         U _objc_retainAutoreleasedReturnValue
00000340 s l_.str
00000344 s l_.str13
00000346 s l_.str17
00000342 s l_.str7
000003dc s l_OBJC_$_CATEGORY_INSTANCE_METHODS_NSString_$_parseHTTPQuery
000003f0 s l_OBJC_$_CATEGORY_NSString_$_parseHTTPQuery

build/AppDeck/AppDeck.a(NSString+MD5.o) (for architecture armv7):
00000000 t +[NSString(MD5) stringWithMD5OfFile:]
000001b4 t -[NSString(MD5) MD5Hash]
         U _CC_MD5_Final
         U _CC_MD5_Init
         U _CC_MD5_Update
         U _OBJC_CLASS_$_NSData
         U _OBJC_CLASS_$_NSFileHandle
         U _OBJC_CLASS_$_NSString
         U ___CFConstantStringClassReference
         U ___stack_chk_fail
         U ___stack_chk_guard
         U _objc_autoreleaseReturnValue
         U _objc_msgSend
         U _objc_release
         U _objc_retainAutorelease
         U _objc_retainAutoreleasedReturnValue
00000368 s l_.str
000003e8 s l_OBJC_$_CATEGORY_CLASS_METHODS_NSString_$_MD5
000003d4 s l_OBJC_$_CATEGORY_INSTANCE_METHODS_NSString_$_MD5
000003fc s l_OBJC_$_CATEGORY_NSString_$_MD5

build/AppDeck/AppDeck.a(NSString+URLEncoding.o) (for architecture armv7):
00000030 t -[NSString(URLEncoding) urlDecodeUsingEncoding:]
00000000 t -[NSString(URLEncoding) urlEncodeUsingEncoding:]
         U _CFStringConvertNSStringEncodingToEncoding
         U _CFURLCreateStringByAddingPercentEscapes
         U _OBJC_CLASS_$_NSString
         U ___CFConstantStringClassReference
         U _objc_autoreleaseReturnValue
         U _objc_msgSend
         U _objc_release
         U _objc_retainAutoreleasedReturnValue
0000008e s l_.str
000000a5 s l_.str1
000000a7 s l_.str3
0000018c s l_OBJC_$_CATEGORY_INSTANCE_METHODS_NSString_$_URLEncoding
000001ac s l_OBJC_$_CATEGORY_NSString_$_URLEncoding

build/AppDeck/AppDeck.a(NSDictionary+query.o) (for architecture armv7):
00000000 t -[NSDictionary(query) query:]
00000230 t -[NSDictionary(query) query:defaultValue:]
         U _OBJC_CLASS_$_NSDictionary
         U _OBJC_CLASS_$_UIDevice
         U ___CFConstantStringClassReference
         U ___stack_chk_fail
         U ___stack_chk_guard
         U _objc_autoreleaseReturnValue
         U _objc_enumerationMutation
         U _objc_msgSend
         U _objc_release
         U _objc_retain
         U _objc_retainAutoreleasedReturnValue
00000296 s l_.str
00000298 s l_.str11
000003c4 s l_OBJC_$_CATEGORY_INSTANCE_METHODS_NSDictionary_$_query
000003e4 s l_OBJC_$_CATEGORY_NSDictionary_$_query

build/AppDeck/AppDeck.a(NSString+UIColor.o) (for architecture armv7):
00000000 t -[NSString(UIColor) toUIColor]
         U _OBJC_CLASS_$_NSScanner
         U _OBJC_CLASS_$_NSString
         U _OBJC_CLASS_$_UIColor
         U _objc_autoreleaseReturnValue
         U _objc_msgSend
         U _objc_release
         U _objc_retainAutoreleasedReturnValue
00000218 s l_OBJC_$_CATEGORY_INSTANCE_METHODS_NSString_$_UIColor
0000022c s l_OBJC_$_CATEGORY_NSString_$_UIColor

build/AppDeck/AppDeck.a(UIImage+H568.o) (for architecture armv7):
00000148 t +[UIImage(H568) imageNamedH568:]
00000000 t +[UIImage(H568) load]
         U _OBJC_CLASS_$_NSBundle
         U _OBJC_CLASS_$_UIDevice
         U _OBJC_CLASS_$_UIImage
         U _OBJC_CLASS_$_UIScreen
         U ___CFConstantStringClassReference
         U _class_getClassMethod
         U _method_exchangeImplementations
         U _objc_autoreleaseReturnValue
         U _objc_msgSend
         U _objc_msgSend_stret
         U _objc_release
         U _objc_retain
         U _objc_retainAutoreleasedReturnValue
000004c4 s l_.str
000004c9 s l_.str20
000004cd s l_.str24
000004d3 s l_.str28
000004dc s l_.str35
000004e0 s l_.str39
0000055c s l_OBJC_$_CATEGORY_CLASS_METHODS_UIImage_$_H568
0000057c s l_OBJC_$_CATEGORY_UIImage_$_H568

build/AppDeck/AppDeck.a(UIImage+Resize.o) (for architecture armv7):
00000000 t -[UIImage(Resize) croppedImage:]
000001dc t -[UIImage(Resize) resizedImage:interpolationQuality:]
00000470 t -[UIImage(Resize) resizedImage:transform:drawTransposed:interpolationQuality:]
00000324 t -[UIImage(Resize) resizedImageWithContentMode:bounds:interpolationQuality:]
0000081c t -[UIImage(Resize) retinaEnabledImageScaledToFitHeight:]
000007a0 t -[UIImage(Resize) scaleToSize:]
00000064 t -[UIImage(Resize) thumbnailImage:transparentBorder:cornerRadius:interpolationQuality:]
00000578 t -[UIImage(Resize) transformForOrientation:]
         U _CGAffineTransformIdentity
         U _CGAffineTransformRotate
         U _CGAffineTransformScale
         U _CGAffineTransformTranslate
         U _CGBitmapContextCreate
         U _CGBitmapContextCreateImage
         U _CGColorSpaceCreateDeviceRGB
         U _CGColorSpaceRelease
         U _CGContextConcatCTM
         U _CGContextDrawImage
         U _CGContextRelease
         U _CGContextScaleCTM
         U _CGContextSetInterpolationQuality
         U _CGContextTranslateCTM
         U _CGImageCreateWithImageInRect
         U _CGImageRelease
         U _CGRectIntegral
         U _NSInvalidArgumentException
         U _OBJC_CLASS_$_NSException
         U _OBJC_CLASS_$_UIDevice
         U _OBJC_CLASS_$_UIImage
         U _OBJC_CLASS_$_UIScreen
         U _UIGraphicsBeginImageContext
         U _UIGraphicsEndImageContext
         U _UIGraphicsGetCurrentContext
         U _UIGraphicsGetImageFromCurrentImageContext
         U ___CFConstantStringClassReference
         U _objc_autoreleaseReturnValue
         U _objc_msgSend
         U _objc_msgSend_stret
         U _objc_release
         U _objc_retain
         U _objc_retainAutoreleasedReturnValue
         U _roundf
00000c84 s l_.str
00000dac s l_OBJC_$_CATEGORY_INSTANCE_METHODS_UIImage_$_Resize
00000e14 s l_OBJC_$_CATEGORY_UIImage_$_Resize

build/AppDeck/AppDeck.a(UIImageView+Animation.o) (for architecture armv7):
00000000 t -[UIImageView(Animation) spinWithOptions:]
00000174 t -[UIImageView(Animation) startSpin]
00000188 t -[UIImageView(Animation) stopSpin]
         U _CGAffineTransformRotate
         U _OBJC_CLASS_$_UIImageView
         U _OBJC_CLASS_$_UIView
         U __NSConcreteStackBlock
000000b4 t ___42-[UIImageView(Animation) spinWithOptions:]_block_invoke
00000144 t ___42-[UIImageView(Animation) spinWithOptions:]_block_invoke3
00000270 s ___block_descriptor_tmp
00000290 s ___block_descriptor_tmp10
00000134 t ___copy_helper_block_
00000164 t ___copy_helper_block_6
0000013c t ___destroy_helper_block_
0000016c t ___destroy_helper_block_7
         U _objc_msgSend
         U _objc_msgSend_stret
         U _objc_release
         U _objc_retain
000002c0 s l_OBJC_$_CATEGORY_INSTANCE_METHODS_UIImageView_$_Animation
00000300 s l_OBJC_$_CATEGORY_UIImageView_$_Animation
000002f0 s l_OBJC_$_PROP_LIST_UIImageView_$_Animation

build/AppDeck/AppDeck.a(UINavigationBar+Progress.o) (for architecture armv7):
00000000 t -[UINavigationBar(Progress) getProgressView]
0000042c t -[UINavigationBar(Progress) progressEnd:]
00000144 t -[UINavigationBar(Progress) progressStart:inTime:]
000002ec t -[UINavigationBar(Progress) progressUpdate:duration:]
         U _OBJC_CLASS_$_UIColor
         U _OBJC_CLASS_$_UINavigationBar
         U _OBJC_CLASS_$_UIView
         U __NSConcreteStackBlock
00000534 t ___41-[UINavigationBar(Progress) progressEnd:]_block_invoke
000005ec t ___41-[UINavigationBar(Progress) progressEnd:]_block_invoke39
         U ___CFConstantStringClassReference
000008e0 s ___block_descriptor_tmp
00000900 s ___block_descriptor_tmp44
000005bc t ___copy_helper_block_
00000678 t ___copy_helper_block_40
000005d4 t ___destroy_helper_block_
00000690 t ___destroy_helper_block_41
         U _objc_autoreleaseReturnValue
         U _objc_msgSend
         U _objc_msgSend_stret
         U _objc_release
         U _objc_retain
         U _objc_retainAutoreleasedReturnValue
00000894 s l_.str
00000938 s l_OBJC_$_CATEGORY_INSTANCE_METHODS_UINavigationBar_$_Progress
00000970 s l_OBJC_$_CATEGORY_UINavigationBar_$_Progress

build/AppDeck/AppDeck.a(CookieStorage.o) (for architecture armv7):
00000240 t +[CookieStorage dumpCookies]
00000000 t +[CookieStorage getCookieStoragePath]
00000460 b +[CookieStorage getCookieStoragePath].cachesPath
0000010c t +[CookieStorage loadCookies]
0000006c t +[CookieStorage saveCookies]
         U _NSSearchPathForDirectoriesInDomains
00000384 S _OBJC_CLASS_$_CookieStorage
         U _OBJC_CLASS_$_NSHTTPCookieStorage
         U _OBJC_CLASS_$_NSKeyedArchiver
         U _OBJC_CLASS_$_NSKeyedUnarchiver
         U _OBJC_CLASS_$_NSObject
00000398 S _OBJC_METACLASS_$_CookieStorage
         U _OBJC_METACLASS_$_NSObject
         U ___CFConstantStringClassReference
         U ___stack_chk_fail
         U ___stack_chk_guard
         U __objc_empty_cache
         U __objc_empty_vtable
         U _objc_enumerationMutation
         U _objc_msgSend
         U _objc_release
         U _objc_retainAutoreleasedReturnValue
00000354 s l_.str
000003c8 s l_OBJC_$_CLASS_METHODS_CookieStorage
00000428 s l_OBJC_CLASS_RO_$_CookieStorage
00000400 s l_OBJC_METACLASS_RO_$_CookieStorage

build/AppDeck/AppDeck.a(NSFileManager+Tar.o) (for architecture armv7):
00000a3c t +[NSFileManager(Tar) dataForObject:inRange:orLocation:andLength:]
0000065c t +[NSFileManager(Tar) nameForObject:atOffset:]
0000073c t +[NSFileManager(Tar) sizeForObject:atOffset:]
000005fc t +[NSFileManager(Tar) typeForObject:atOffset:]
00000074 t -[NSFileManager(Tar) createFilesAndDirectoriesAtPath:withTarData:error:]
000002a8 t -[NSFileManager(Tar) createFilesAndDirectoriesAtPath:withTarObject:size:error:]
000000e0 t -[NSFileManager(Tar) createFilesAndDirectoriesAtPath:withTarPath:error:]
00000000 t -[NSFileManager(Tar) createFilesAndDirectoriesAtURL:withTarData:error:]
000007e4 t -[NSFileManager(Tar) writeFileDataForObject:atLocation:withLength:atPath:]
         U _NSFileSize
         U _NSLocalizedDescriptionKey
         U _OBJC_CLASS_$_NSData
         U _OBJC_CLASS_$_NSDictionary
         U _OBJC_CLASS_$_NSError
         U _OBJC_CLASS_$_NSFileHandle
         U _OBJC_CLASS_$_NSFileManager
         U _OBJC_CLASS_$_NSString
         U ___CFConstantStringClassReference
         U ___fixunsdfdi
         U ___floatundidf
         U ___stack_chk_fail
         U ___stack_chk_guard
         U _ceil
         U _memcpy
         U _objc_autorelease
         U _objc_autoreleasePoolPop
         U _objc_autoreleasePoolPush
         U _objc_autoreleaseReturnValue
         U _objc_msgSend
         U _objc_release
         U _objc_retain
         U _objc_retainAutorelease
         U _objc_retainAutoreleasedReturnValue
         U _strtol
00000f50 s l_.str
00000f66 s l_.str26
00000f75 s l_.str40
00000f76 s l_.str46
00001098 s l_OBJC_$_CATEGORY_CLASS_METHODS_NSFileManager_$_Tar
00001054 s l_OBJC_$_CATEGORY_INSTANCE_METHODS_NSFileManager_$_Tar
000010d0 s l_OBJC_$_CATEGORY_NSFileManager_$_Tar

build/AppDeck/AppDeck.a(UIApplication+setStatusBarHidden.o) (for architecture armv7):
00000004 t -[UIApplication(setStatusBarHidden) altSetStatusBarHidden:]
00000000 t -[UIApplication(setStatusBarHidden) altSetStatusBarHidden:animated:]
00000008 t -[UIApplication(setStatusBarHidden) altSetStatusBarHidden:withAnimation:]
         U _OBJC_CLASS_$_UIApplication
000000a0 s l_OBJC_$_CATEGORY_INSTANCE_METHODS_UIApplication_$_setStatusBarHidden
000000cc s l_OBJC_$_CATEGORY_UIApplication_$_setStatusBarHidden

build/AppDeck/AppDeck.a(UIView+forceSetScrollTop.o) (for architecture armv7):
00000000 t -[UIView(forceSetScrollTop) forceSetScrollTop:]
         U _OBJC_CLASS_$_UIScrollView
         U _OBJC_CLASS_$_UIView
         U _OBJC_CLASS_$_UIWebView
         U ___stack_chk_fail
         U ___stack_chk_guard
         U _objc_enumerationMutation
         U _objc_msgSend
         U _objc_release
         U _objc_retainAutoreleasedReturnValue
00000238 s l_OBJC_$_CATEGORY_INSTANCE_METHODS_UIView_$_forceSetScrollTop
0000024c s l_OBJC_$_CATEGORY_UIView_$_forceSetScrollTop

build/AppDeck/AppDeck.a(RE2Regexp.o) (for architecture armv7):
000001b8 t -[RE2Regexp .cxx_destruct]
00000000 t -[RE2Regexp initWithString:]
000005f0 s -[RE2Regexp initWithString:].eh
00000184 t -[RE2Regexp match:]
000005d4 s EH_frame0
000001cc s GCC_except_table0
         U _OBJC_CLASS_$_NSObject
000002fc S _OBJC_CLASS_$_RE2Regexp
000001dc S _OBJC_IVAR_$_RE2Regexp.re
000001d8 S _OBJC_IVAR_$_RE2Regexp.regexString
         U _OBJC_METACLASS_$_NSObject
000002e8 S _OBJC_METACLASS_$_RE2Regexp
         U __Unwind_SjLj_Register
         U __Unwind_SjLj_Resume
         U __Unwind_SjLj_Unregister
         U __ZN3re23RE213PartialMatchNERKNS_11StringPieceERKS0_PKPKNS0_3ArgEi
         U __ZN3re23RE2C1ERKNS_11StringPieceERKNS0_7OptionsE
         U __ZdlPv
         U __Znwm
         U ___gxx_personality_sj0
         U __objc_empty_cache
         U __objc_empty_vtable
         U _objc_msgSend
         U _objc_release
         U _objc_retain
         U _objc_storeStrong
         U _strlen
00000264 s l_OBJC_$_INSTANCE_METHODS_RE2Regexp
00000290 s l_OBJC_$_INSTANCE_VARIABLES_RE2Regexp
000002c0 s l_OBJC_CLASS_RO_$_RE2Regexp
0000023c s l_OBJC_METACLASS_RO_$_RE2Regexp

build/AppDeck/AppDeck.a(LoaderViewController.o) (for architecture armv7):
0000681c t -[LoaderViewController .cxx_destruct]
000046fc t -[LoaderViewController apiCall:]
0000661c t -[LoaderViewController appDeck]
00005670 t -[LoaderViewController appIsBusy]
00006534 t -[LoaderViewController appLogoUrl]
000062a4 t -[LoaderViewController application:didFailToRegisterForRemoteNotificationsWithError:]
000062e0 t -[LoaderViewController application:didReceiveRemoteNotification:]
000059fc t -[LoaderViewController application:didRegisterForRemoteNotificationsWithDeviceToken:]
000066c4 t -[LoaderViewController backgroundQueue]
0000658c t -[LoaderViewController baseUrl]
000064f4 t -[LoaderViewController canBecomeFirstResponder]
00000bb0 t -[LoaderViewController clean]
00003574 t -[LoaderViewController closePopUp:]
0000668c t -[LoaderViewController conf]
00000ab0 t -[LoaderViewController didReceiveMemoryWarning]
00003614 t -[LoaderViewController getChildViewControllerFromURL:]
000034e4 t -[LoaderViewController getCurrentChild]
00006760 t -[LoaderViewController globalTracker]
00000b28 t -[LoaderViewController gradientBGLayerForBounds:colors:]
000066e4 t -[LoaderViewController height]
00000000 t -[LoaderViewController initWithNibName:bundle:]
00006784 t -[LoaderViewController launchOptions]
00000fdc t -[LoaderViewController loadAppConf:]
0000a02c s -[LoaderViewController loadAppConf:].eh
00003b5c t -[LoaderViewController loadChild:root:forcePopup:]
000008e8 t -[LoaderViewController loadConf]
000046dc t -[LoaderViewController loadPage:]
00003b04 t -[LoaderViewController loadPage:root:forcePopup:]
000046bc t -[LoaderViewController loadRootPage:]
000023f0 t -[LoaderViewController loadUI]
000067e4 t -[LoaderViewController log]
00006728 t -[LoaderViewController mobiclickAdMobSub]
000063c0 t -[LoaderViewController mobiclickApplicationId]
000064f8 t -[LoaderViewController motionEnded:withEvent:]
00004bc0 t -[LoaderViewController navigationController:didShowViewController:animated:]
000033bc t -[LoaderViewController postLoadUI:]
0000662c t -[LoaderViewController setAppDeck:]
00005680 t -[LoaderViewController setAppIsBusy:]
00006544 t -[LoaderViewController setAppLogoUrl:]
000066d4 t -[LoaderViewController setBackgroundQueue:]
0000659c t -[LoaderViewController setBaseUrl:]
0000669c t -[LoaderViewController setConf:]
00005344 t -[LoaderViewController setFullScreen:animation:]
00006770 t -[LoaderViewController setGlobalTracker:]
000066f4 t -[LoaderViewController setHeight:]
00006794 t -[LoaderViewController setLaunchOptions:]
000067f4 t -[LoaderViewController setLog:]
00006738 t -[LoaderViewController setMobiclickAdMobSub:]
000067bc t -[LoaderViewController setMobiclickApplicationId:]
00006664 t -[LoaderViewController setSlidingViewController:]
000065d4 t -[LoaderViewController setSyncEmbedResource:]
00006714 t -[LoaderViewController setTracker:]
000065f4 t -[LoaderViewController setUrl:]
0000657c t -[LoaderViewController setWidth:]
000059f4 t -[LoaderViewController shouldAutorotate]
00004bc4 t -[LoaderViewController showStatusBarError:]
00004c8c t -[LoaderViewController showStatusBarMessage:color:]
00004c28 t -[LoaderViewController showStatusBarNotice:]
00006654 t -[LoaderViewController slidingViewController]
000059f8 t -[LoaderViewController supportedInterfaceOrientations]
000065c4 t -[LoaderViewController syncEmbedResource]
00003538 t -[LoaderViewController toggleMenu:]
00006704 t -[LoaderViewController tracker]
000065e4 t -[LoaderViewController url]
00000874 t -[LoaderViewController viewDidAppear:]
000000e0 t -[LoaderViewController viewDidLoad]
000056d8 t -[LoaderViewController viewWillLayoutSubviews]
00004bbc t -[LoaderViewController webView:shouldStartLoadWithRequest:navigationType:]
0000656c t -[LoaderViewController width]
0000a010 s EH_frame0
000069f4 s GCC_except_table10
         U _CGAffineTransformMakeTranslation
         U _CGRectEqualToRect
         U _CGRectZero
         U _NSLog
         U _OBJC_CLASS_$_AppDeck
         U _OBJC_CLASS_$_CAGradientLayer
         U _OBJC_CLASS_$_ECSlidingViewController
         U _OBJC_CLASS_$_EmbedResources
         U _OBJC_CLASS_$_GAI
         U _OBJC_CLASS_$_JSonHTTPApi
         U _OBJC_CLASS_$_LoaderConfiguration
00006a7c S _OBJC_CLASS_$_LoaderViewController
         U _OBJC_CLASS_$_LogViewController
         U _OBJC_CLASS_$_MenuViewController
         U _OBJC_CLASS_$_Mobclix
         U _OBJC_CLASS_$_MobilizeViewController
         U _OBJC_CLASS_$_NSArray
         U _OBJC_CLASS_$_NSBundle
         U _OBJC_CLASS_$_NSMutableURLRequest
         U _OBJC_CLASS_$_NSString
         U _OBJC_CLASS_$_NSThread
         U _OBJC_CLASS_$_NSTimer
         U _OBJC_CLASS_$_NSURL
         U _OBJC_CLASS_$_NSURLConnection
         U _OBJC_CLASS_$_PageViewController
         U _OBJC_CLASS_$_PhotoBrowserViewController
         U _OBJC_CLASS_$_RemoteAppCache
         U _OBJC_CLASS_$_ScreenConfiguration
         U _OBJC_CLASS_$_SwipeViewController
         U _OBJC_CLASS_$_UIActivityIndicatorView
         U _OBJC_CLASS_$_UIAlertView
         U _OBJC_CLASS_$_UIApplication
         U _OBJC_CLASS_$_UIBarButtonItem
         U _OBJC_CLASS_$_UIButton
         U _OBJC_CLASS_$_UIColor
         U _OBJC_CLASS_$_UIDevice
         U _OBJC_CLASS_$_UIFont
         U _OBJC_CLASS_$_UIImage
         U _OBJC_CLASS_$_UIImageView
         U _OBJC_CLASS_$_UILabel
         U _OBJC_CLASS_$_UINavigationBar
         U _OBJC_CLASS_$_UINavigationController
         U _OBJC_CLASS_$_UISegmentedControl
         U _OBJC_CLASS_$_UITabBar
         U _OBJC_CLASS_$_UIToolbar
         U _OBJC_CLASS_$_UIView
         U _OBJC_CLASS_$_UIViewController
         U _OBJC_CLASS_$_WebBrowserViewController
         U _OBJC_EHTYPE_$_NSException
000090a0 S _OBJC_IVAR_$_LoaderViewController._appDeck
0000908c S _OBJC_IVAR_$_LoaderViewController._appLogoUrl
000090ac S _OBJC_IVAR_$_LoaderViewController._backgroundQueue
00009094 S _OBJC_IVAR_$_LoaderViewController._baseUrl
000090a8 S _OBJC_IVAR_$_LoaderViewController._conf
000090bc S _OBJC_IVAR_$_LoaderViewController._globalTracker
000090b0 S _OBJC_IVAR_$_LoaderViewController._height
000090c0 S _OBJC_IVAR_$_LoaderViewController._launchOptions
000090c8 S _OBJC_IVAR_$_LoaderViewController._log
000090b8 S _OBJC_IVAR_$_LoaderViewController._mobiclickAdMobSub
000090c4 S _OBJC_IVAR_$_LoaderViewController._mobiclickApplicationId
000090a4 S _OBJC_IVAR_$_LoaderViewController._slidingViewController
00009098 S _OBJC_IVAR_$_LoaderViewController._syncEmbedResource
000090b4 S _OBJC_IVAR_$_LoaderViewController._tracker
0000909c S _OBJC_IVAR_$_LoaderViewController._url
00009090 S _OBJC_IVAR_$_LoaderViewController._width
00009080 S _OBJC_IVAR_$_LoaderViewController.appIsBusy
00009054 S _OBJC_IVAR_$_LoaderViewController.backgroundImageView
00009070 S _OBJC_IVAR_$_LoaderViewController.centerController
00009078 S _OBJC_IVAR_$_LoaderViewController.embed_compilation
0000907c S _OBJC_IVAR_$_LoaderViewController.embed_runtime
00009068 S _OBJC_IVAR_$_LoaderViewController.leftController
00009058 S _OBJC_IVAR_$_LoaderViewController.loadingView
00009088 S _OBJC_IVAR_$_LoaderViewController.mobiclickIsInit
00009060 S _OBJC_IVAR_$_LoaderViewController.navController
00009064 S _OBJC_IVAR_$_LoaderViewController.popUp
00009084 S _OBJC_IVAR_$_LoaderViewController.pushNotificationRegistered
00009074 S _OBJC_IVAR_$_LoaderViewController.remoteAppCache
0000906c S _OBJC_IVAR_$_LoaderViewController.rightController
0000905c S _OBJC_IVAR_$_LoaderViewController.statusBarInfo
00006a90 S _OBJC_METACLASS_$_LoaderViewController
         U _OBJC_METACLASS_$_NSObject
         U _OBJC_METACLASS_$_UIViewController
         U _UIApplicationLaunchOptionsRemoteNotificationKey
         U _UIGraphicsBeginImageContext
         U _UIGraphicsEndImageContext
         U _UIGraphicsGetCurrentContext
         U _UIGraphicsGetImageFromCurrentImageContext
         U __NSConcreteGlobalBlock
         U __NSConcreteStackBlock
         U __Unwind_SjLj_Register
         U __Unwind_SjLj_Resume
         U __Unwind_SjLj_Unregister
00003348 t ___30-[LoaderViewController loadUI]_block_invoke
000033b8 t ___30-[LoaderViewController loadUI]_block_invoke322
000009ac t ___32-[LoaderViewController loadConf]_block_invoke
000035e0 t ___35-[LoaderViewController closePopUp:]_block_invoke
00005628 t ___48-[LoaderViewController setFullScreen:animation:]_block_invoke
0000564c t ___48-[LoaderViewController setFullScreen:animation:]_block_invoke600
00004528 t ___50-[LoaderViewController loadChild:root:forcePopup:]_block_invoke
00004688 t ___50-[LoaderViewController loadChild:root:forcePopup:]_block_invoke_2
000050d8 t ___51-[LoaderViewController showStatusBarMessage:color:]_block_invoke
000051ac t ___51-[LoaderViewController showStatusBarMessage:color:]_block_invoke572
00005298 t ___51-[LoaderViewController showStatusBarMessage:color:]_block_invoke577
0000526c t ___51-[LoaderViewController showStatusBarMessage:color:]_block_invoke_2
00005a90 t ___85-[LoaderViewController application:didRegisterForRemoteNotificationsWithDeviceToken:]_block_invoke
         U ___CFConstantStringClassReference
00009170 s ___block_descriptor_tmp
00009190 s ___block_descriptor_tmp321
000091a8 s ___block_descriptor_tmp325
000091d0 s ___block_descriptor_tmp355
000091e8 s ___block_descriptor_tmp455
00009210 s ___block_descriptor_tmp462
00009230 s ___block_descriptor_tmp571
00009250 s ___block_descriptor_tmp576
00009270 s ___block_descriptor_tmp585
00009290 s ___block_descriptor_tmp589
000092b0 s ___block_descriptor_tmp595
000092d0 s ___block_descriptor_tmp604
000092f0 s ___block_descriptor_tmp688
000091b8 s ___block_literal_global
000091f8 s ___block_literal_global456
00000aa0 t ___copy_helper_block_
000033a8 t ___copy_helper_block_317
00003604 t ___copy_helper_block_352
0000468c t ___copy_helper_block_459
0000517c t ___copy_helper_block_568
00005288 t ___copy_helper_block_573
000052e4 t ___copy_helper_block_582
00005314 t ___copy_helper_block_586
0000563c t ___copy_helper_block_592
00005660 t ___copy_helper_block_601
00006274 t ___copy_helper_block_685
00000aa8 t ___destroy_helper_block_
000033b0 t ___destroy_helper_block_318
0000360c t ___destroy_helper_block_353
000046a4 t ___destroy_helper_block_460
00005194 t ___destroy_helper_block_569
00005290 t ___destroy_helper_block_574
000052fc t ___destroy_helper_block_583
0000532c t ___destroy_helper_block_587
00005644 t ___destroy_helper_block_593
00005668 t ___destroy_helper_block_602
0000628c t ___destroy_helper_block_686
         U ___objc_personality_v0
         U ___stack_chk_fail
         U ___stack_chk_guard
         U __objc_empty_cache
         U __objc_empty_vtable
         U _dispatch_async
         U _dispatch_queue_create
         U _glLog
         U _objc_autoreleaseReturnValue
         U _objc_begin_catch
         U _objc_end_catch
         U _objc_enumerationMutation
         U _objc_msgSend
         U _objc_msgSendSuper2
         U _objc_msgSend_stret
         U _objc_release
         U _objc_retain
         U _objc_retainAutorelease
         U _objc_retainAutoreleasedReturnValue
         U _objc_storeStrong
00008679 s l_.str13
000086d0 s l_.str151
000086de s l_.str160
000086f1 s l_.str170
000086f6 s l_.str185
00008685 s l_.str23
00008704 s l_.str230
0000869a s l_.str25
00008713 s l_.str289
00008725 s l_.str340
00008735 s l_.str373
0000873e s l_.str379
0000874a s l_.str381
00008752 s l_.str396
0000875a s l_.str422
0000875b s l_.str434
00008768 s l_.str446
0000876e s l_.str509
00008774 s l_.str513
0000877f s l_.str517
00008789 s l_.str521
00008796 s l_.str528
000087a4 s l_.str534
000087b6 s l_.str615
000087eb s l_.str617
000087ff s l_.str619
0000880f s l_.str623
00008818 s l_.str625
00008820 s l_.str635
00008827 s l_.str637
0000882c s l_.str641
0000882e s l_.str643
00008830 s l_.str645
00008832 s l_.str647
000088ea s l_.str651
000088f3 s l_.str658
000088f8 s l_.str675
00008909 s l_.str677
0000891b s l_.str679
0000892f s l_.str681
00008940 s l_.str683
00008950 s l_.str689
00008971 s l_.str693
00008977 s l_.str695
0000897b s l_.str697
00008983 s l_.str699
000089ad s l_.str701
000086b0 s l_.str73
000086bf s l_.str76
000086c2 s l_.str80
000098d8 s l_OBJC_$_INSTANCE_METHODS_LoaderViewController
00009c10 s l_OBJC_$_INSTANCE_VARIABLES_LoaderViewController
00009e70 s l_OBJC_$_PROP_LIST_LoaderViewController
00009698 s l_OBJC_$_PROTOCOL_INSTANCE_METHODS_NSObject
00009884 s l_OBJC_$_PROTOCOL_INSTANCE_METHODS_OPT_AppDeckApiCallDelegate
00009784 s l_OBJC_$_PROTOCOL_INSTANCE_METHODS_OPT_NSObject
0000984c s l_OBJC_$_PROTOCOL_INSTANCE_METHODS_OPT_UINavigationControllerDelegate
000097f4 s l_OBJC_$_PROTOCOL_INSTANCE_METHODS_OPT_UIWebViewDelegate
00009898 s l_OBJC_$_PROTOCOL_METHOD_TYPES_AppDeckApiCallDelegate
00009798 s l_OBJC_$_PROTOCOL_METHOD_TYPES_NSObject
00009870 s l_OBJC_$_PROTOCOL_METHOD_TYPES_UINavigationControllerDelegate
00009830 s l_OBJC_$_PROTOCOL_METHOD_TYPES_UIWebViewDelegate
00009878 s l_OBJC_$_PROTOCOL_REFS_AppDeckApiCallDelegate
00009840 s l_OBJC_$_PROTOCOL_REFS_UINavigationControllerDelegate
000097e8 s l_OBJC_$_PROTOCOL_REFS_UIWebViewDelegate
0000989c s l_OBJC_CLASS_PROTOCOLS_$_LoaderViewController
00009f00 s l_OBJC_CLASS_RO_$_LoaderViewController
00009fe4 S l_OBJC_LABEL_PROTOCOL_$_AppDeckApiCallDelegate
00009fd8 S l_OBJC_LABEL_PROTOCOL_$_NSObject
00009fe0 S l_OBJC_LABEL_PROTOCOL_$_UINavigationControllerDelegate
00009fdc S l_OBJC_LABEL_PROTOCOL_$_UIWebViewDelegate
000098b0 s l_OBJC_METACLASS_RO_$_LoaderViewController
00009fac S l_OBJC_PROTOCOL_$_AppDeckApiCallDelegate
00009f28 S l_OBJC_PROTOCOL_$_NSObject
00009f80 S l_OBJC_PROTOCOL_$_UINavigationControllerDelegate
00009f54 S l_OBJC_PROTOCOL_$_UIWebViewDelegate

build/AppDeck/AppDeck.a(ScreenConfiguration.o) (for architecture armv7):
00000000 t +[ScreenConfiguration defaultConfiguration]
00000798 t -[ScreenConfiguration .cxx_destruct]
00000758 t -[ScreenConfiguration enableShare]
000000cc t -[ScreenConfiguration initWithConfiguration:]
00000778 t -[ScreenConfiguration isPopUp]
00000454 t -[ScreenConfiguration isRelated:]
000006e8 t -[ScreenConfiguration logo]
000005c8 t -[ScreenConfiguration matchThisConfiguration:]
00000768 t -[ScreenConfiguration setEnableShare:]
00000788 t -[ScreenConfiguration setIsPopUp:]
000006f8 t -[ScreenConfiguration setLogo:]
00000730 t -[ScreenConfiguration setTitle:]
000006d8 t -[ScreenConfiguration setTtl:]
000006a0 t -[ScreenConfiguration setType:]
00000630 t -[ScreenConfiguration setUrlRegex:]
00000668 t -[ScreenConfiguration setUrlRegexStrings:]
00000720 t -[ScreenConfiguration title]
000006c8 t -[ScreenConfiguration ttl]
00000690 t -[ScreenConfiguration type]
00000658 t -[ScreenConfiguration urlRegexStrings]
00000620 t -[ScreenConfiguration urlRegex]
         U _NSLog
         U _OBJC_CLASS_$_NSMutableArray
         U _OBJC_CLASS_$_NSObject
         U _OBJC_CLASS_$_RE2Regexp
00000808 S _OBJC_CLASS_$_ScreenConfiguration
00000c60 S _OBJC_IVAR_$_ScreenConfiguration._enableShare
00000c64 S _OBJC_IVAR_$_ScreenConfiguration._isPopUp
00000c58 S _OBJC_IVAR_$_ScreenConfiguration._logo
00000c5c S _OBJC_IVAR_$_ScreenConfiguration._title
00000c54 S _OBJC_IVAR_$_ScreenConfiguration._ttl
00000c50 S _OBJC_IVAR_$_ScreenConfiguration._type
00000c48 S _OBJC_IVAR_$_ScreenConfiguration._urlRegex
00000c4c S _OBJC_IVAR_$_ScreenConfiguration._urlRegexStrings
         U _OBJC_METACLASS_$_NSObject
0000081c S _OBJC_METACLASS_$_ScreenConfiguration
         U ___CFConstantStringClassReference
         U ___stack_chk_fail
         U ___stack_chk_guard
         U __objc_empty_cache
         U __objc_empty_vtable
         U _objc_autoreleaseReturnValue
         U _objc_enumerationMutation
         U _objc_msgSend
         U _objc_release
         U _objc_retain
         U _objc_retainAutorelease
         U _objc_retainAutoreleasedReturnValue
         U _objc_storeStrong
00000a80 s l_.str
00000a86 s l_.str19
00000a8b s l_.str21
00000a90 s l_.str24
00000a95 s l_.str28
00000a9b s l_.str32
00000aa8 s l_.str34
00000aac s l_.str43
00000cf0 s l_OBJC_$_CLASS_METHODS_ScreenConfiguration
00000d2c s l_OBJC_$_INSTANCE_METHODS_ScreenConfiguration
00000e24 s l_OBJC_$_INSTANCE_VARIABLES_ScreenConfiguration
00000ed0 s l_OBJC_$_PROP_LIST_ScreenConfiguration
00000f18 s l_OBJC_CLASS_RO_$_ScreenConfiguration
00000d04 s l_OBJC_METACLASS_RO_$_ScreenConfiguration

build/AppDeck/AppDeck.a(LoaderChildViewController.o) (for architecture armv7):
00001398 t -[LoaderChildViewController .cxx_destruct]
0000047c t -[LoaderChildViewController apiCall:]
00000148 t -[LoaderChildViewController childIsMain:]
000011a0 t -[LoaderChildViewController focus]
00000000 t -[LoaderChildViewController initWithNibName:bundle:URL:content:header:footer:loader:]
00001388 t -[LoaderChildViewController isMain]
000012e0 t -[LoaderChildViewController isPopUp]
00001278 t -[LoaderChildViewController isVisible]
00000420 t -[LoaderChildViewController load:]
00001244 t -[LoaderChildViewController loader]
00001168 t -[LoaderChildViewController nextUrl]
00001110 t -[LoaderChildViewController parent]
000011d8 t -[LoaderChildViewController previousUrl]
000002ac t -[LoaderChildViewController progressEstimateChanged:]
00001148 t -[LoaderChildViewController progressIndeterminate]
000010f0 t -[LoaderChildViewController progressStart]
00001348 t -[LoaderChildViewController progress]
00001310 t -[LoaderChildViewController rightBarButtonItems]
000010bc t -[LoaderChildViewController screenConfiguration]
000011b0 t -[LoaderChildViewController setFocus:]
000012f8 t -[LoaderChildViewController setIsPopUp:]
00001290 t -[LoaderChildViewController setIsVisible:]
00001264 t -[LoaderChildViewController setLoader:]
00001178 t -[LoaderChildViewController setNextUrl:]
00001120 t -[LoaderChildViewController setParent:]
000011e8 t -[LoaderChildViewController setPreviousUrl:]
00001358 t -[LoaderChildViewController setProgress:]
00001158 t -[LoaderChildViewController setProgressIndeterminate:]
00001100 t -[LoaderChildViewController setProgressStart:]
00001320 t -[LoaderChildViewController setRightBarButtonItems:]
000010dc t -[LoaderChildViewController setScreenConfiguration:]
00001378 t -[LoaderChildViewController setShowProgress:]
00001230 t -[LoaderChildViewController setSwipeContainer:]
000012b8 t -[LoaderChildViewController setUrl:]
0000041c t -[LoaderChildViewController shouldReloadHistory]
00001368 t -[LoaderChildViewController showProgress]
00001210 t -[LoaderChildViewController swipeContainer]
000012a8 t -[LoaderChildViewController url]
000000ac t -[LoaderChildViewController viewDidLoad]
000000f0 t -[LoaderChildViewController viewWillAppear:]
0000011c t -[LoaderChildViewController viewWillDisappear:]
         U _NSLog
00001450 S _OBJC_CLASS_$_LoaderChildViewController
         U _OBJC_CLASS_$_NSMutableArray
         U _OBJC_CLASS_$_NSNumber
         U _OBJC_CLASS_$_NSString
         U _OBJC_CLASS_$_NSURL
         U _OBJC_CLASS_$_NSURLConnection
         U _OBJC_CLASS_$_NSURLRequest
         U _OBJC_CLASS_$_PopOverWebViewViewController
         U _OBJC_CLASS_$_UIActivityViewController
         U _OBJC_CLASS_$_UIDevice
         U _OBJC_CLASS_$_UIImage
         U _OBJC_CLASS_$_UIViewController
00001c94 S _OBJC_IVAR_$_LoaderChildViewController._focus
00001c7c S _OBJC_IVAR_$_LoaderChildViewController._isMain
00001cac S _OBJC_IVAR_$_LoaderChildViewController._isPopUp
00001ca4 S _OBJC_IVAR_$_LoaderChildViewController._isVisible
00001ca0 S _OBJC_IVAR_$_LoaderChildViewController._loader
00001c90 S _OBJC_IVAR_$_LoaderChildViewController._nextUrl
00001c88 S _OBJC_IVAR_$_LoaderChildViewController._parent
00001c98 S _OBJC_IVAR_$_LoaderChildViewController._previousUrl
00001cb4 S _OBJC_IVAR_$_LoaderChildViewController._progress
00001c8c S _OBJC_IVAR_$_LoaderChildViewController._progressIndeterminate
00001c84 S _OBJC_IVAR_$_LoaderChildViewController._progressStart
00001cb0 S _OBJC_IVAR_$_LoaderChildViewController._rightBarButtonItems
00001c80 S _OBJC_IVAR_$_LoaderChildViewController._screenConfiguration
00001cb8 S _OBJC_IVAR_$_LoaderChildViewController._showProgress
00001c9c S _OBJC_IVAR_$_LoaderChildViewController._swipeContainer
00001ca8 S _OBJC_IVAR_$_LoaderChildViewController._url
00001464 S _OBJC_METACLASS_$_LoaderChildViewController
         U _OBJC_METACLASS_$_NSObject
         U _OBJC_METACLASS_$_UIViewController
         U __NSConcreteGlobalBlock
         U __NSConcreteStackBlock
00000e50 t ___37-[LoaderChildViewController apiCall:]_block_invoke
00000fd8 t ___37-[LoaderChildViewController apiCall:]_block_invoke_2
00001040 t ___37-[LoaderChildViewController apiCall:]_block_invoke_3
         U ___CFConstantStringClassReference
00002180 s ___block_descriptor_tmp
000021b0 s ___block_descriptor_tmp106
000021d0 s ___block_descriptor_tmp110
00002190 s ___block_literal_global
00001044 t ___copy_helper_block_
00001074 t ___copy_helper_block_107
0000105c t ___destroy_helper_block_
00001098 t ___destroy_helper_block_108
         U __dispatch_main_q
         U __objc_empty_cache
         U __objc_empty_vtable
         U _dispatch_async
         U _dispatch_get_global_queue
         U _objc_autoreleaseReturnValue
         U _objc_destroyWeak
         U _objc_loadWeakRetained
         U _objc_msgSend
         U _objc_msgSendSuper2
         U _objc_release
         U _objc_retain
         U _objc_retainAutoreleasedReturnValue
         U _objc_storeStrong
         U _objc_storeWeak
00001cbc s l_.str
00001d02 s l_.str113
00001d09 s l_.str120
00001d22 s l_.str122
00001d2f s l_.str124
00001d3d s l_.str126
00001d47 s l_.str128
00001d49 s l_.str130
00001d4a s l_.str140
00001d57 s l_.str144
00001d60 s l_.str148
00001d68 s l_.str155
00001cdc s l_.str53
00001ce2 s l_.str61
00001ce6 s l_.str70
00001ce9 s l_.str72
00001cef s l_.str77
00001cf3 s l_.str81
00002518 s l_OBJC_$_INSTANCE_METHODS_LoaderChildViewController
0000270c s l_OBJC_$_INSTANCE_VARIABLES_LoaderChildViewController
00002858 s l_OBJC_$_PROP_LIST_LoaderChildViewController
00002370 s l_OBJC_$_PROTOCOL_INSTANCE_METHODS_NSObject
000024cc s l_OBJC_$_PROTOCOL_INSTANCE_METHODS_OPT_AppDeckApiCallDelegate
0000245c s l_OBJC_$_PROTOCOL_INSTANCE_METHODS_OPT_NSObject
000024e0 s l_OBJC_$_PROTOCOL_METHOD_TYPES_AppDeckApiCallDelegate
00002470 s l_OBJC_$_PROTOCOL_METHOD_TYPES_NSObject
000024c0 s l_OBJC_$_PROTOCOL_REFS_AppDeckApiCallDelegate
000024e4 s l_OBJC_CLASS_PROTOCOLS_$_LoaderChildViewController
000028e0 s l_OBJC_CLASS_RO_$_LoaderChildViewController
00002964 S l_OBJC_LABEL_PROTOCOL_$_AppDeckApiCallDelegate
00002960 S l_OBJC_LABEL_PROTOCOL_$_NSObject
000024f0 s l_OBJC_METACLASS_RO_$_LoaderChildViewController
00002934 S l_OBJC_PROTOCOL_$_AppDeckApiCallDelegate
00002908 S l_OBJC_PROTOCOL_$_NSObject

build/AppDeck/AppDeck.a(PageViewController.o) (for architecture armv7):
00005d60 t -[PageViewController .cxx_destruct]
000055e4 t -[PageViewController adView:didFailLoadWithError:]
00005728 t -[PageViewController adView:publisherKeyForSuballocationRequest:]
00005700 t -[PageViewController adView:shouldHandleSuballocationRequest:]
00005300 t -[PageViewController adViewDidFinishLoad:]
00005ce8 t -[PageViewController adView]
00002ea0 t -[PageViewController apiCall:]
00000540 t -[PageViewController childIsMain:]
00001608 t -[PageViewController contentCompleted:]
00000500 t -[PageViewController dealloc]
0000033c t -[PageViewController didReceiveMemoryWarning]
00003ee0 t -[PageViewController disablePullToRefresh:]
00004024 t -[PageViewController enablePullToRefresh:]
00005cb0 t -[PageViewController footer]
00005c78 t -[PageViewController header]
00000ba8 t -[PageViewController initialLoad]
000031a8 t -[PageViewController load:]
00004f50 t -[PageViewController loadAdView]
00001bd0 t -[PageViewController loadInBackgroungRequest:animated:seamless:]
00003520 t -[PageViewController managedUIWebViewController:shouldStartLoadWithRequest:navigationType:]
00002928 t -[PageViewController reLoadContent]
0000206c t -[PageViewController refreshCompleted:animated:seamless:]
00000368 t -[PageViewController removeFromParentViewController]
00003b9c t -[PageViewController restoreCleanPullToRefreshState:]
00004ef4 t -[PageViewController scrollViewDidEnd:]
00004c68 t -[PageViewController scrollViewDidEndDecelerating:]
00004c78 t -[PageViewController scrollViewDidEndDragging:willDecelerate:]
000047d4 t -[PageViewController scrollViewDidScroll:]
00004e98 t -[PageViewController scrollViewWillBegin:]
00004c58 t -[PageViewController scrollViewWillBeginDragging:]
00005cf8 t -[PageViewController setAdView:]
00005cc0 t -[PageViewController setFooter:]
00005c88 t -[PageViewController setHeader:]
00005d30 t -[PageViewController setShowAdView:]
00005d50 t -[PageViewController setShowAdViewOver:]
00000944 t -[PageViewController setupManagedWebView:]
00002b88 t -[PageViewController setupNextPreviousSwipe]
00005d40 t -[PageViewController showAdViewOver]
00005d20 t -[PageViewController showAdView]
00000144 t -[PageViewController viewDidAppear:]
000001a4 t -[PageViewController viewDidDisappear:]
00000238 t -[PageViewController viewDidLoad]
00000000 t -[PageViewController viewWillAppear:]
0000578c t -[PageViewController viewWillLayoutSubviews]
000033b8 t -[PageViewController webView:runPrompt:defaultText:initiatedByFrame:]
         U _CATransform3DIdentity
         U _CATransform3DIsIdentity
         U _CATransform3DMakeRotation
         U _CGAffineTransformScale
         U _NSLog
         U _OBJC_CLASS_$_LoaderChildViewController
         U _OBJC_CLASS_$_ManagedUIWebViewController
         U _OBJC_CLASS_$_MobclixAdViewiPad_728x90
         U _OBJC_CLASS_$_MobclixAdViewiPhone_320x50
         U _OBJC_CLASS_$_NSDate
         U _OBJC_CLASS_$_NSMutableArray
         U _OBJC_CLASS_$_NSNotificationCenter
         U _OBJC_CLASS_$_NSNumber
         U _OBJC_CLASS_$_NSString
         U _OBJC_CLASS_$_NSTimer
         U _OBJC_CLASS_$_NSURL
         U _OBJC_CLASS_$_NSURLRequest
         U _OBJC_CLASS_$_PageBarButtonContainer
00005e5c S _OBJC_CLASS_$_PageViewController
         U _OBJC_CLASS_$_UIBarButtonItem
         U _OBJC_CLASS_$_UIColor
         U _OBJC_CLASS_$_UIDevice
         U _OBJC_CLASS_$_UIImageView
         U _OBJC_CLASS_$_UIView
0000742c S _OBJC_IVAR_$_PageViewController._adView
00007428 S _OBJC_IVAR_$_PageViewController._footer
00007424 S _OBJC_IVAR_$_PageViewController._header
00007430 S _OBJC_IVAR_$_PageViewController._showAdView
00007434 S _OBJC_IVAR_$_PageViewController._showAdViewOver
000073fc S _OBJC_IVAR_$_PageViewController.contentCtl
0000740c S _OBJC_IVAR_$_PageViewController.errorImageView
00007410 S _OBJC_IVAR_$_PageViewController.errorView
000073f4 S _OBJC_IVAR_$_PageViewController.lastUpdate
00007408 S _OBJC_IVAR_$_PageViewController.loadingInprogress
00007438 S _OBJC_IVAR_$_PageViewController.progressHUD
0000743c S _OBJC_IVAR_$_PageViewController.progressHUDEnabled
00007420 S _OBJC_IVAR_$_PageViewController.pullLoadingPercent
0000741c S _OBJC_IVAR_$_PageViewController.pullTorefreshArrow
00007418 S _OBJC_IVAR_$_PageViewController.pullTorefreshLoading
00007400 S _OBJC_IVAR_$_PageViewController.refreshCtl
00007414 S _OBJC_IVAR_$_PageViewController.shouldAnimatedBackgroundReload
00007440 S _OBJC_IVAR_$_PageViewController.shouldReloadHistory
00007404 S _OBJC_IVAR_$_PageViewController.shouldReloadInBackground
000073f8 S _OBJC_IVAR_$_PageViewController.timer
         U _OBJC_METACLASS_$_LoaderChildViewController
         U _OBJC_METACLASS_$_NSObject
00005e70 S _OBJC_METACLASS_$_PageViewController
         U _UIEdgeInsetsZero
         U __NSConcreteStackBlock
00001380 t ___33-[PageViewController initialLoad]_block_invoke
00001428 t ___33-[PageViewController initialLoad]_block_invoke145
000014c4 t ___33-[PageViewController initialLoad]_block_invoke163
0000156c t ___33-[PageViewController initialLoad]_block_invoke168
00005554 t ___42-[PageViewController adViewDidFinishLoad:]_block_invoke
000055a4 t ___42-[PageViewController adViewDidFinishLoad:]_block_invoke486
0000465c t ___42-[PageViewController enablePullToRefresh:]_block_invoke
000046c8 t ___42-[PageViewController enablePullToRefresh:]_block_invoke435
00003d68 t ___53-[PageViewController restoreCleanPullToRefreshState:]_block_invoke
00003dd4 t ___53-[PageViewController restoreCleanPullToRefreshState:]_block_invoke412
00002210 t ___57-[PageViewController refreshCompleted:animated:seamless:]_block_invoke
000022cc t ___57-[PageViewController refreshCompleted:animated:seamless:]_block_invoke241
0000272c t ___57-[PageViewController refreshCompleted:animated:seamless:]_block_invoke_2
00001f3c t ___64-[PageViewController loadInBackgroungRequest:animated:seamless:]_block_invoke
00001fd0 t ___64-[PageViewController loadInBackgroungRequest:animated:seamless:]_block_invoke221
         U ___CFConstantStringClassReference
00007a90 s ___block_descriptor_tmp
00007ab0 s ___block_descriptor_tmp158
00007ad0 s ___block_descriptor_tmp167
00007af0 s ___block_descriptor_tmp172
00007b10 s ___block_descriptor_tmp220
00007b30 s ___block_descriptor_tmp227
00007b50 s ___block_descriptor_tmp240
00007b70 s ___block_descriptor_tmp279
00007b90 s ___block_descriptor_tmp285
00007bb0 s ___block_descriptor_tmp411
00007bd0 s ___block_descriptor_tmp416
00007bf0 s ___block_descriptor_tmp434
00007c10 s ___block_descriptor_tmp439
00007c30 s ___block_descriptor_tmp485
00007c50 s ___block_descriptor_tmp490
00001418 t ___copy_helper_block_
000014b4 t ___copy_helper_block_154
0000155c t ___copy_helper_block_164
000015f8 t ___copy_helper_block_169
00001fc0 t ___copy_helper_block_217
0000205c t ___copy_helper_block_224
000022bc t ___copy_helper_block_236
00002908 t ___copy_helper_block_275
00002918 t ___copy_helper_block_282
00003dc4 t ___copy_helper_block_408
00003eb0 t ___copy_helper_block_413
000046b8 t ___copy_helper_block_431
000047a4 t ___copy_helper_block_436
00005594 t ___copy_helper_block_482
000055d4 t ___copy_helper_block_487
00001420 t ___destroy_helper_block_
000014bc t ___destroy_helper_block_155
00001564 t ___destroy_helper_block_165
00001600 t ___destroy_helper_block_170
00001fc8 t ___destroy_helper_block_218
00002064 t ___destroy_helper_block_225
000022c4 t ___destroy_helper_block_237
00002910 t ___destroy_helper_block_276
00002920 t ___destroy_helper_block_283
00003dcc t ___destroy_helper_block_409
00003ec8 t ___destroy_helper_block_414
000046c0 t ___destroy_helper_block_432
000047bc t ___destroy_helper_block_437
0000559c t ___destroy_helper_block_483
000055dc t ___destroy_helper_block_488
         U ___stack_chk_fail
         U ___stack_chk_guard
         U __objc_empty_cache
         U __objc_empty_vtable
         U _objc_autorelease
         U _objc_autoreleaseReturnValue
         U _objc_enumerationMutation
         U _objc_msgSend
         U _objc_msgSendSuper2
         U _objc_msgSend_stret
         U _objc_release
         U _objc_retain
         U _objc_retainAutoreleasedReturnValue
         U _objc_storeStrong
00007488 s l_.str
0000748c s l_.str128
000074c1 s l_.str161
000074d7 s l_.str177
000074d8 s l_.str203
000074f1 s l_.str248
00007508 s l_.str253
00007521 s l_.str261
00007533 s l_.str267
00007562 s l_.str290
00007568 s l_.str292
0000756f s l_.str301
000075bc s l_.str305
000075ca s l_.str313
0000761b s l_.str315
0000762d s l_.str323
00007632 s l_.str354
0000763e s l_.str360
0000764d s l_.str364
00007659 s l_.str366
00007664 s l_.str370
00007673 s l_.str372
0000767b s l_.str374
00007687 s l_.str380
0000768c s l_.str456
000076d2 s l_.str458
00007719 s l_.str470
0000771c s l_.str472
0000772a s l_.str474
0000772f s l_.str491
00007736 s l_.str493
00008458 s l_OBJC_$_INSTANCE_METHODS_PageViewController
0000867c s l_OBJC_$_INSTANCE_VARIABLES_PageViewController
00008818 s l_OBJC_$_PROP_LIST_PageViewController
000080b0 s l_OBJC_$_PROTOCOL_INSTANCE_METHODS_NSObject
0000820c s l_OBJC_$_PROTOCOL_INSTANCE_METHODS_OPT_MBProgressHUDDelegate
00008318 s l_OBJC_$_PROTOCOL_INSTANCE_METHODS_OPT_ManagedUIWebViewDelegate
0000834c s l_OBJC_$_PROTOCOL_INSTANCE_METHODS_OPT_MobclixAdViewDelegate
0000819c s l_OBJC_$_PROTOCOL_INSTANCE_METHODS_OPT_NSObject
00008230 s l_OBJC_$_PROTOCOL_INSTANCE_METHODS_OPT_UIScrollViewDelegate
00008220 s l_OBJC_$_PROTOCOL_METHOD_TYPES_MBProgressHUDDelegate
00008338 s l_OBJC_$_PROTOCOL_METHOD_TYPES_ManagedUIWebViewDelegate
000083e8 s l_OBJC_$_PROTOCOL_METHOD_TYPES_MobclixAdViewDelegate
000081b0 s l_OBJC_$_PROTOCOL_METHOD_TYPES_NSObject
000082d8 s l_OBJC_$_PROTOCOL_METHOD_TYPES_UIScrollViewDelegate
00008200 s l_OBJC_$_PROTOCOL_REFS_MBProgressHUDDelegate
0000830c s l_OBJC_$_PROTOCOL_REFS_ManagedUIWebViewDelegate
00008340 s l_OBJC_$_PROTOCOL_REFS_MobclixAdViewDelegate
00008224 s l_OBJC_$_PROTOCOL_REFS_UIScrollViewDelegate
00008418 s l_OBJC_CLASS_PROTOCOLS_$_PageViewController
00008848 s l_OBJC_CLASS_RO_$_PageViewController
00008950 S l_OBJC_LABEL_PROTOCOL_$_MBProgressHUDDelegate
00008958 S l_OBJC_LABEL_PROTOCOL_$_ManagedUIWebViewDelegate
0000895c S l_OBJC_LABEL_PROTOCOL_$_MobclixAdViewDelegate
0000894c S l_OBJC_LABEL_PROTOCOL_$_NSObject
00008954 S l_OBJC_LABEL_PROTOCOL_$_UIScrollViewDelegate
00008430 s l_OBJC_METACLASS_RO_$_PageViewController
0000889c S l_OBJC_PROTOCOL_$_MBProgressHUDDelegate
000088f4 S l_OBJC_PROTOCOL_$_ManagedUIWebViewDelegate
00008920 S l_OBJC_PROTOCOL_$_MobclixAdViewDelegate
00008870 S l_OBJC_PROTOCOL_$_NSObject
000088c8 S l_OBJC_PROTOCOL_$_UIScrollViewDelegate

build/AppDeck/AppDeck.a(SwipeViewController.o) (for architecture armv7):
00002fc4 t -[SwipeViewController .cxx_destruct]
000007c0 t -[SwipeViewController apiCall:]
00001190 t -[SwipeViewController child:endProgressDuration:]
00000f18 t -[SwipeViewController child:startProgressWithExpectedProgress:inTime:]
00001054 t -[SwipeViewController child:updateProgressWithProgress:duration:]
00002fb4 t -[SwipeViewController current]
00000494 t -[SwipeViewController dealloc]
0000042c t -[SwipeViewController didReceiveMemoryWarning]
00000738 t -[SwipeViewController fullScreenAdIsReady:]
00000dd4 t -[SwipeViewController gotoNext]
00000ce0 t -[SwipeViewController gotoPrevious]
00000000 t -[SwipeViewController initWithNibName:bundle:]
0000209c t -[SwipeViewController insertNextChildView]
00002374 t -[SwipeViewController insertPreviousChildView]
000005e8 t -[SwipeViewController loadFullScreenAd]
00002f94 t -[SwipeViewController next]
00002fa4 t -[SwipeViewController previous]
00002054 t -[SwipeViewController scrollViewDidEndDecelerating:]
00002064 t -[SwipeViewController scrollViewDidEndDragging:willDecelerate:]
0000191c t -[SwipeViewController scrollViewDidScroll:]
00002f5c t -[SwipeViewController scrollView]
00000b00 t -[SwipeViewController setCurrent:]
000009a8 t -[SwipeViewController setNext:]
00000850 t -[SwipeViewController setPrevious:]
00002f6c t -[SwipeViewController setScrollView:]
000012a8 t -[SwipeViewController shouldSwipeViews]
00000050 t -[SwipeViewController viewDidLoad]
000005bc t -[SwipeViewController viewWillAppear:]
00000514 t -[SwipeViewController viewWillDisappear:]
000026fc t -[SwipeViewController viewWillLayoutSubviews]
         U _NSLog
         U _OBJC_CLASS_$_FullScreenAdChildViewController
         U _OBJC_CLASS_$_MBProgressHUD
         U _OBJC_CLASS_$_NSBundle
         U _OBJC_CLASS_$_NSNumber
00003048 S _OBJC_CLASS_$_SwipeViewController
         U _OBJC_CLASS_$_UIScrollView
         U _OBJC_CLASS_$_UIViewController
00003b40 S _OBJC_IVAR_$_SwipeViewController._current
00003b54 S _OBJC_IVAR_$_SwipeViewController._next
00003b50 S _OBJC_IVAR_$_SwipeViewController._previous
00003b58 S _OBJC_IVAR_$_SwipeViewController._scrollView
00003b44 S _OBJC_IVAR_$_SwipeViewController.fullScreenAd
00003b48 S _OBJC_IVAR_$_SwipeViewController.fullScreenAdDisplayed
00003b4c S _OBJC_IVAR_$_SwipeViewController.fullScreenAdReady
00003b3c S _OBJC_IVAR_$_SwipeViewController.progressHUD
         U _OBJC_METACLASS_$_NSObject
0000305c S _OBJC_METACLASS_$_SwipeViewController
         U _OBJC_METACLASS_$_UIViewController
         U ___CFConstantStringClassReference
         U __objc_empty_cache
         U __objc_empty_vtable
         U _objc_msgSend
         U _objc_msgSendSuper2
         U _objc_msgSend_stret
         U _objc_release
         U _objc_retain
         U _objc_retainAutoreleasedReturnValue
         U _objc_storeStrong
00003b5c s l_.str
00003b65 s l_.str134
00003b6b s l_.str136
00003b74 s l_.str151
00003b79 s l_.str173
00003b8e s l_.str175
00003ba0 s l_.str181
00003bb9 s l_.str183
00003b64 s l_.str43
00004308 s l_OBJC_$_INSTANCE_METHODS_SwipeViewController
00004478 s l_OBJC_$_INSTANCE_VARIABLES_SwipeViewController
00004520 s l_OBJC_$_PROP_LIST_SwipeViewController
00004048 s l_OBJC_$_PROTOCOL_INSTANCE_METHODS_NSObject
000042b0 s l_OBJC_$_PROTOCOL_INSTANCE_METHODS_OPT_AppDeckApiCallDelegate
00004288 s l_OBJC_$_PROTOCOL_INSTANCE_METHODS_OPT_MBProgressHUDDelegate
00004134 s l_OBJC_$_PROTOCOL_INSTANCE_METHODS_OPT_NSObject
000041a4 s l_OBJC_$_PROTOCOL_INSTANCE_METHODS_OPT_UIScrollViewDelegate
000042c8 s l_OBJC_$_PROTOCOL_METHOD_TYPES_AppDeckApiCallDelegate
000042a0 s l_OBJC_$_PROTOCOL_METHOD_TYPES_MBProgressHUDDelegate
00004148 s l_OBJC_$_PROTOCOL_METHOD_TYPES_NSObject
00004248 s l_OBJC_$_PROTOCOL_METHOD_TYPES_UIScrollViewDelegate
000042a4 s l_OBJC_$_PROTOCOL_REFS_AppDeckApiCallDelegate
0000427c s l_OBJC_$_PROTOCOL_REFS_MBProgressHUDDelegate
00004198 s l_OBJC_$_PROTOCOL_REFS_UIScrollViewDelegate
000042cc s l_OBJC_CLASS_PROTOCOLS_$_SwipeViewController
00004548 s l_OBJC_CLASS_RO_$_SwipeViewController
0000462c S l_OBJC_LABEL_PROTOCOL_$_AppDeckApiCallDelegate
00004628 S l_OBJC_LABEL_PROTOCOL_$_MBProgressHUDDelegate
00004620 S l_OBJC_LABEL_PROTOCOL_$_NSObject
00004624 S l_OBJC_LABEL_PROTOCOL_$_UIScrollViewDelegate
000042e0 s l_OBJC_METACLASS_RO_$_SwipeViewController
000045f4 S l_OBJC_PROTOCOL_$_AppDeckApiCallDelegate
000045c8 S l_OBJC_PROTOCOL_$_MBProgressHUDDelegate
00004570 S l_OBJC_PROTOCOL_$_NSObject
0000459c S l_OBJC_PROTOCOL_$_UIScrollViewDelegate

build/AppDeck/AppDeck.a(FullScreenAdChildViewController.o) (for architecture armv7):
00000bb0 t -[FullScreenAdChildViewController .cxx_destruct]
00000b58 t -[FullScreenAdChildViewController autoScroll]
000000e0 t -[FullScreenAdChildViewController childIsMain:]
000000b4 t -[FullScreenAdChildViewController didReceiveMemoryWarning]
00000658 t -[FullScreenAdChildViewController fullScreenAdViewController:didFailToLoadWithError:]
000007c0 t -[FullScreenAdChildViewController fullScreenAdViewControllerDidDismissAd:]
000004b8 t -[FullScreenAdChildViewController fullScreenAdViewControllerDidFinishLoad:]
00000718 t -[FullScreenAdChildViewController fullScreenAdViewControllerWillPresentAd:]
00000b78 t -[FullScreenAdChildViewController fullScreenAdViewController]
00000000 t -[FullScreenAdChildViewController initWithNibName:bundle:]
00000b38 t -[FullScreenAdChildViewController isInvalid]
00000b68 t -[FullScreenAdChildViewController setAutoScroll:]
00000b88 t -[FullScreenAdChildViewController setFullScreenAdViewController:]
00000b48 t -[FullScreenAdChildViewController setIsInvalid:]
000003f0 t -[FullScreenAdChildViewController startLoadAd]
00000088 t -[FullScreenAdChildViewController viewDidLoad]
000008f4 t -[FullScreenAdChildViewController viewWillLayoutSubviews]
         U _NSLog
00000bc4 S _OBJC_CLASS_$_FullScreenAdChildViewController
         U _OBJC_CLASS_$_LoaderChildViewController
         U _OBJC_CLASS_$_MobclixFullScreenAdViewController
         U _OBJC_CLASS_$_NSNumber
         U _OBJC_CLASS_$_UIApplication
00001158 S _OBJC_IVAR_$_FullScreenAdChildViewController._autoScroll
0000115c S _OBJC_IVAR_$_FullScreenAdChildViewController._fullScreenAdViewController
00001154 S _OBJC_IVAR_$_FullScreenAdChildViewController._isInvalid
00001150 S _OBJC_IVAR_$_FullScreenAdChildViewController.firstLoad
0000114c S _OBJC_IVAR_$_FullScreenAdChildViewController.requestFullScreen
00000bd8 S _OBJC_METACLASS_$_FullScreenAdChildViewController
         U _OBJC_METACLASS_$_LoaderChildViewController
         U _OBJC_METACLASS_$_NSObject
         U ___CFConstantStringClassReference
         U __objc_empty_cache
         U __objc_empty_vtable
         U _objc_msgSend
         U _objc_msgSendSuper2
         U _objc_msgSend_stret
         U _objc_release
         U _objc_retain
         U _objc_retainAutoreleasedReturnValue
         U _objc_storeStrong
00001160 s l_.str
0000116d s l_.str17
00001170 s l_.str19
00001192 s l_.str21
00001197 s l_.str43
0000119f s l_.str56
000011a4 s l_.str64
000011b9 s l_.str66
000011c0 s l_.str68
000016a4 s l_OBJC_$_INSTANCE_METHODS_FullScreenAdChildViewController
00001778 s l_OBJC_$_INSTANCE_VARIABLES_FullScreenAdChildViewController
000017e8 s l_OBJC_$_PROP_LIST_FullScreenAdChildViewController
000014c8 s l_OBJC_$_PROTOCOL_INSTANCE_METHODS_NSObject
00001624 s l_OBJC_$_PROTOCOL_INSTANCE_METHODS_OPT_MobclixFullScreenAdDelegate
000015b4 s l_OBJC_$_PROTOCOL_INSTANCE_METHODS_OPT_NSObject
00001660 s l_OBJC_$_PROTOCOL_METHOD_TYPES_MobclixFullScreenAdDelegate
000015c8 s l_OBJC_$_PROTOCOL_METHOD_TYPES_NSObject
00001618 s l_OBJC_$_PROTOCOL_REFS_MobclixFullScreenAdDelegate
00001670 s l_OBJC_CLASS_PROTOCOLS_$_FullScreenAdChildViewController
00001808 s l_OBJC_CLASS_RO_$_FullScreenAdChildViewController
0000188c S l_OBJC_LABEL_PROTOCOL_$_MobclixFullScreenAdDelegate
00001888 S l_OBJC_LABEL_PROTOCOL_$_NSObject
0000167c s l_OBJC_METACLASS_RO_$_FullScreenAdChildViewController
0000185c S l_OBJC_PROTOCOL_$_MobclixFullScreenAdDelegate
00001830 S l_OBJC_PROTOCOL_$_NSObject

build/AppDeck/AppDeck.a(ManagedUIWebViewController.o) (for architecture armv7):
00001ff8 t +[ManagedUIWebViewController addURLInHistory:]
000001a4 t +[ManagedUIWebViewController dataWithInjectedAppDeckJS:]
000002d0 t +[ManagedUIWebViewController sharedInstanceList]
00005f04 b +[ManagedUIWebViewController sharedInstanceList].array
000000f8 t +[ManagedUIWebViewController shouldInjectAppDeckJSInData:]
00000000 t +[ManagedUIWebViewController shouldInjectAppDeckJSInResponse:]
0000354c t -[ManagedUIWebViewController .cxx_destruct]
00002ef0 t -[ManagedUIWebViewController JSonObjectByEvaluatingJavascriptFromString:error:]
00005eec s -[ManagedUIWebViewController JSonObjectByEvaluatingJavascriptFromString:error:].eh
000020e4 t -[ManagedUIWebViewController addURLInOtherHistory:]
000013d0 t -[ManagedUIWebViewController apiCall:]
000034bc t -[ManagedUIWebViewController backgroundColor1]
00003484 t -[ManagedUIWebViewController backgroundColor2]
00002274 t -[ManagedUIWebViewController browser]
00000b18 t -[ManagedUIWebViewController checkWebViewLoad:]
00002c08 t -[ManagedUIWebViewController clean]
00001048 t -[ManagedUIWebViewController completed:]
0000246c t -[ManagedUIWebViewController coreWebView]
00003418 t -[ManagedUIWebViewController currentRequest]
000009dc t -[ManagedUIWebViewController dealloc]
00003450 t -[ManagedUIWebViewController delegate]
000009b0 t -[ManagedUIWebViewController didReceiveMemoryWarning]
00001d88 t -[ManagedUIWebViewController disableMask]
00001c98 t -[ManagedUIWebViewController executeJS:]
00000324 t -[ManagedUIWebViewController initWithNibName:bundle:]
00001c88 t -[ManagedUIWebViewController initialRequestDidFailWithError:]
00001c70 t -[ManagedUIWebViewController initialRequestDidFinishLoading]
00001c28 t -[ManagedUIWebViewController initialRequestDidReceiveData:offset:total:]
00001c10 t -[ManagedUIWebViewController initialRequestDidReceiveResponse:]
000026d0 t -[ManagedUIWebViewController loadRequest:progess:completed:]
0000296c t -[ManagedUIWebViewController loadRequest:withCachedResponse:progess:completed:]
000021d0 t -[ManagedUIWebViewController manualAddURLInHistory:]
00003058 t -[ManagedUIWebViewController postLoadSetupWebView:]
00000f3c t -[ManagedUIWebViewController progressEstimateChanged:]
0000352c t -[ManagedUIWebViewController ready]
000033c0 t -[ManagedUIWebViewController resourceCompletedCount]
000033a0 t -[ManagedUIWebViewController resourceCount]
000034cc t -[ManagedUIWebViewController setBackgroundColor1:]
00001cf8 t -[ManagedUIWebViewController setBackgroundColor1:color2:]
00003494 t -[ManagedUIWebViewController setBackgroundColor2:]
000024dc t -[ManagedUIWebViewController setChromeless:]
00003428 t -[ManagedUIWebViewController setCurrentRequest:]
00003470 t -[ManagedUIWebViewController setDelegate:]
00001dc0 t -[ManagedUIWebViewController setMaskColor:opcacity:anim:userInteractionEnabled:]
0000353c t -[ManagedUIWebViewController setReady:]
000033d0 t -[ManagedUIWebViewController setResourceCompletedCount:]
000033b0 t -[ManagedUIWebViewController setResourceCount:]
000033f4 t -[ManagedUIWebViewController setWebDataSource:]
00003504 t -[ManagedUIWebViewController setWebView:]
00000c38 t -[ManagedUIWebViewController syncCache]
00000fdc t -[ManagedUIWebViewController updateProgress:]
000003b4 t -[ManagedUIWebViewController viewDidLoad]
000031dc t -[ManagedUIWebViewController viewWillLayoutSubviews]
000033e0 t -[ManagedUIWebViewController webDataSource]
00001bfc t -[ManagedUIWebViewController webView:didFailLoadWithError:]
00001288 t -[ManagedUIWebViewController webView:didFailReceiveResourceNumber:totalResources:withError:]
00001220 t -[ManagedUIWebViewController webView:didReceiveResourceNumber:totalResources:]
000012c0 t -[ManagedUIWebViewController webView:runPrompt:defaultText:initiatedByFrame:]
000030b8 t -[ManagedUIWebViewController webView:shouldLoadUrl:withHTML:]
000014f0 t -[ManagedUIWebViewController webView:shouldStartLoadWithRequest:navigationType:]
00001be8 t -[ManagedUIWebViewController webViewDidFinishLoad:]
00001bd4 t -[ManagedUIWebViewController webViewDidStartLoad:]
000034f4 t -[ManagedUIWebViewController webView]
00005ed0 s EH_frame0
00003658 s GCC_except_table44
         U _NSClassFromString
         U _NSLog
         U _NSSelectorFromString
         U _OBJC_CLASS_$_AppDeck
         U _OBJC_CLASS_$_CookieStorage
00005144 S _OBJC_CLASS_$_ManagedUIWebViewController
         U _OBJC_CLASS_$_NSArray
         U _OBJC_CLASS_$_NSCachedURLResponse
         U _OBJC_CLASS_$_NSData
         U _OBJC_CLASS_$_NSHTTPURLResponse
         U _OBJC_CLASS_$_NSJSONSerialization
         U _OBJC_CLASS_$_NSMutableArray
         U _OBJC_CLASS_$_NSString
         U _OBJC_CLASS_$_NSTimer
         U _OBJC_CLASS_$_NSURLProtocol
         U _OBJC_CLASS_$_NSURLRequest
         U _OBJC_CLASS_$_NSURLResponse
         U _OBJC_CLASS_$_UIApplication
         U _OBJC_CLASS_$_UIColor
         U _OBJC_CLASS_$_UIDevice
         U _OBJC_CLASS_$_UIImageView
         U _OBJC_CLASS_$_UIScrollView
         U _OBJC_CLASS_$_UIView
         U _OBJC_CLASS_$_UIViewController
         U _OBJC_CLASS_$_WebViewHistory
         U _OBJC_EHTYPE_$_NSException
000051bc S _OBJC_IVAR_$_ManagedUIWebViewController._backgroundColor1
000051b8 S _OBJC_IVAR_$_ManagedUIWebViewController._backgroundColor2
000051b0 S _OBJC_IVAR_$_ManagedUIWebViewController._currentRequest
000051b4 S _OBJC_IVAR_$_ManagedUIWebViewController._delegate
000051c4 S _OBJC_IVAR_$_ManagedUIWebViewController._ready
000051c0 S _OBJC_IVAR_$_ManagedUIWebViewController._webView
00005170 S _OBJC_IVAR_$_ManagedUIWebViewController.appdeckapijs
00005174 S _OBJC_IVAR_$_ManagedUIWebViewController.backgroundQueue
00005184 S _OBJC_IVAR_$_ManagedUIWebViewController.completedCallback
00005188 S _OBJC_IVAR_$_ManagedUIWebViewController.completedDelay
00005198 S _OBJC_IVAR_$_ManagedUIWebViewController.first
00005194 S _OBJC_IVAR_$_ManagedUIWebViewController.loadingProgress
000051a0 S _OBJC_IVAR_$_ManagedUIWebViewController.mask
000051a4 S _OBJC_IVAR_$_ManagedUIWebViewController.me
00005180 S _OBJC_IVAR_$_ManagedUIWebViewController.progressCallback
000051ac S _OBJC_IVAR_$_ManagedUIWebViewController.resourceCompletedCount
000051a8 S _OBJC_IVAR_$_ManagedUIWebViewController.resourceCount
00005190 S _OBJC_IVAR_$_ManagedUIWebViewController.showProgress
00005178 S _OBJC_IVAR_$_ManagedUIWebViewController.topView
0000518c S _OBJC_IVAR_$_ManagedUIWebViewController.webDataSource
0000519c S _OBJC_IVAR_$_ManagedUIWebViewController.webViewLoadCount
0000517c S _OBJC_IVAR_$_ManagedUIWebViewController.webViewTimer
00005158 S _OBJC_METACLASS_$_ManagedUIWebViewController
         U _OBJC_METACLASS_$_NSObject
         U _OBJC_METACLASS_$_UIViewController
         U _UIScrollViewDecelerationRateNormal
         U __NSConcreteStackBlock
         U __Unwind_SjLj_Register
         U __Unwind_SjLj_Resume
         U __Unwind_SjLj_Unregister
000011ac t ___40-[ManagedUIWebViewController completed:]_block_invoke
00001fc4 t ___80-[ManagedUIWebViewController setMaskColor:opcacity:anim:userInteractionEnabled:]_block_invoke
         U ___CFConstantStringClassReference
00005250 s ___block_descriptor_tmp
00005270 s ___block_descriptor_tmp248
00001210 t ___copy_helper_block_
00001fe8 t ___copy_helper_block_245
00001218 t ___destroy_helper_block_
00001ff0 t ___destroy_helper_block_246
         U ___objc_personality_v0
         U ___stack_chk_fail
         U ___stack_chk_guard
         U ___udivsi3
         U __objc_empty_cache
         U __objc_empty_vtable
00003668 S _code
000036c0 S _codeblank
         U _dispatch_async
         U _dispatch_queue_create
         U _malloc
         U _memcpy
         U _objc_autoreleaseReturnValue
         U _objc_begin_catch
         U _objc_destroyWeak
         U _objc_end_catch
         U _objc_enumerationMutation
         U _objc_getProperty
         U _objc_loadWeakRetained
         U _objc_msgSend
         U _objc_msgSendSuper2
         U _objc_msgSend_stret
         U _objc_release
         U _objc_retain
         U _objc_retainAutorelease
         U _objc_retainAutoreleaseReturnValue
         U _objc_retainAutoreleasedReturnValue
         U _objc_retainBlock
         U _objc_setProperty
         U _objc_storeStrong
         U _objc_storeWeak
000036bc S _sizeofcode
00003704 S _sizeofcodeblank
000046f8 s l_.str
000049af s l_.str144
000049cf s l_.str149
000049f0 s l_.str176
00004a49 s l_.str184
00004a55 s l_.str188
00004a5b s l_.str197
00004a77 s l_.str201
00004a83 s l_.str203
00004a9d s l_.str205
00004ab5 s l_.str207
00004ad0 s l_.str209
00004afa s l_.str211
00004b1a s l_.str213
00004b1c s l_.str215
00004b28 s l_.str219
00004b30 s l_.str256
00004bc2 s l_.str263
00004bd3 s l_.str265
00004be1 s l_.str302
00004bfe s l_.str311
00004c43 s l_.str313
00004cae s l_.str315
00004d26 s l_.str317
0000470a s l_.str34
0000478a s l_.str36
000047e7 s l_.str38
0000498d s l_.str40
0000498e s l_.str42
000049ab s l_.str73
00004705 s l_.str9
000055e0 s l_OBJC_$_CLASS_METHODS_ManagedUIWebViewController
00005900 s l_OBJC_$_INSTANCE_METHODS_ManagedUIWebViewController
00005ba8 s l_OBJC_$_INSTANCE_VARIABLES_ManagedUIWebViewController
00005858 s l_OBJC_$_PROP_LIST_CustomUIWebViewProgressDelegate
00005d68 s l_OBJC_$_PROP_LIST_ManagedUIWebViewController
000057dc s l_OBJC_$_PROTOCOL_INSTANCE_METHODS_CustomUIWebViewProgressDelegate
00005624 s l_OBJC_$_PROTOCOL_INSTANCE_METHODS_NSObject
000058a8 s l_OBJC_$_PROTOCOL_INSTANCE_METHODS_OPT_AppDeckApiCallDelegate
00005844 s l_OBJC_$_PROTOCOL_INSTANCE_METHODS_OPT_CustomUIWebViewProgressDelegate
00005710 s l_OBJC_$_PROTOCOL_INSTANCE_METHODS_OPT_NSObject
00005784 s l_OBJC_$_PROTOCOL_INSTANCE_METHODS_OPT_UIWebViewDelegate
000058c0 s l_OBJC_$_PROTOCOL_METHOD_TYPES_AppDeckApiCallDelegate
00005878 s l_OBJC_$_PROTOCOL_METHOD_TYPES_CustomUIWebViewProgressDelegate
00005728 s l_OBJC_$_PROTOCOL_METHOD_TYPES_NSObject
000057c0 s l_OBJC_$_PROTOCOL_METHOD_TYPES_UIWebViewDelegate
0000589c s l_OBJC_$_PROTOCOL_REFS_AppDeckApiCallDelegate
000057d0 s l_OBJC_$_PROTOCOL_REFS_CustomUIWebViewProgressDelegate
00005778 s l_OBJC_$_PROTOCOL_REFS_UIWebViewDelegate
000058c4 s l_OBJC_CLASS_PROTOCOLS_$_ManagedUIWebViewController
00005dc8 s l_OBJC_CLASS_RO_$_ManagedUIWebViewController
00005eac S l_OBJC_LABEL_PROTOCOL_$_AppDeckApiCallDelegate
00005ea8 S l_OBJC_LABEL_PROTOCOL_$_CustomUIWebViewProgressDelegate
00005ea0 S l_OBJC_LABEL_PROTOCOL_$_NSObject
00005ea4 S l_OBJC_LABEL_PROTOCOL_$_UIWebViewDelegate
000058d8 s l_OBJC_METACLASS_RO_$_ManagedUIWebViewController
00005e74 S l_OBJC_PROTOCOL_$_AppDeckApiCallDelegate
00005e48 S l_OBJC_PROTOCOL_$_CustomUIWebViewProgressDelegate
00005df0 S l_OBJC_PROTOCOL_$_NSObject
00005e1c S l_OBJC_PROTOCOL_$_UIWebViewDelegate

build/AppDeck/AppDeck.a(MobilizeViewController.o) (for architecture armv7):
00000000 t -[MobilizeViewController getRequest]
000001c4 S _OBJC_CLASS_$_MobilizeViewController
         U _OBJC_CLASS_$_NSMutableURLRequest
         U _OBJC_CLASS_$_NSURLProtocol
         U _OBJC_CLASS_$_WebBrowserViewController
000001b0 S _OBJC_METACLASS_$_MobilizeViewController
         U _OBJC_METACLASS_$_NSObject
         U _OBJC_METACLASS_$_WebBrowserViewController
         U ___CFConstantStringClassReference
         U __objc_empty_cache
         U __objc_empty_vtable
         U _objc_autoreleaseReturnValue
         U _objc_msgSend
         U _objc_release
         U _objc_retainAutoreleasedReturnValue
00000104 s l_.str
00000174 s l_OBJC_$_INSTANCE_METHODS_MobilizeViewController
00000188 s l_OBJC_CLASS_RO_$_MobilizeViewController
0000014c s l_OBJC_METACLASS_RO_$_MobilizeViewController

build/AppDeck/AppDeck.a(MenuViewController.o) (for architecture armv7):
00000bf4 t -[MenuViewController .cxx_destruct]
000007f8 t -[MenuViewController apiCall:]
00000b4c t -[MenuViewController backgroundColor1]
00000b14 t -[MenuViewController backgroundColor2]
000007cc t -[MenuViewController didReceiveMemoryWarning]
00000000 t -[MenuViewController initWithNibName:bundle:URL:content:header:footer:loader:width:align:]
00000bbc t -[MenuViewController loader]
00000848 t -[MenuViewController managedUIWebViewController:shouldStartLoadWithRequest:navigationType:]
00000b5c t -[MenuViewController setBackgroundColor1:]
00000b24 t -[MenuViewController setBackgroundColor2:]
00000bcc t -[MenuViewController setLoader:]
00000b94 t -[MenuViewController setUrl:]
00000b84 t -[MenuViewController url]
000000e4 t -[MenuViewController viewDidLoad]
000007a0 t -[MenuViewController viewWillAppear:]
0000095c t -[MenuViewController viewWillLayoutSubviews]
         U _NSLog
         U _OBJC_CLASS_$_ManagedUIWebViewController
00000c78 S _OBJC_CLASS_$_MenuViewController
         U _OBJC_CLASS_$_NSURLRequest
         U _OBJC_CLASS_$_UIColor
         U _OBJC_CLASS_$_UIView
         U _OBJC_CLASS_$_UIViewController
000012bc S _OBJC_IVAR_$_MenuViewController._backgroundColor1
000012b8 S _OBJC_IVAR_$_MenuViewController._backgroundColor2
000012c4 S _OBJC_IVAR_$_MenuViewController._loader
000012c0 S _OBJC_IVAR_$_MenuViewController._url
000012a8 S _OBJC_IVAR_$_MenuViewController.align
000012b0 S _OBJC_IVAR_$_MenuViewController.container
000012b4 S _OBJC_IVAR_$_MenuViewController.content
000012ac S _OBJC_IVAR_$_MenuViewController.width
00000c8c S _OBJC_METACLASS_$_MenuViewController
         U _OBJC_METACLASS_$_NSObject
         U _OBJC_METACLASS_$_UIViewController
         U __NSConcreteGlobalBlock
00000790 t ___33-[MenuViewController viewDidLoad]_block_invoke
00000794 t ___33-[MenuViewController viewDidLoad]_block_invoke_2
00000798 t ___33-[MenuViewController viewDidLoad]_block_invoke_3
0000079c t ___33-[MenuViewController viewDidLoad]_block_invoke_4
         U ___CFConstantStringClassReference
0000140c s ___block_descriptor_tmp
00001430 s ___block_descriptor_tmp61
00001454 s ___block_descriptor_tmp66
00001478 s ___block_descriptor_tmp69
0000141c s ___block_literal_global
00001440 s ___block_literal_global62
00001464 s ___block_literal_global67
00001488 s ___block_literal_global70
         U __objc_empty_cache
         U __objc_empty_vtable
         U _objc_msgSend
         U _objc_msgSendSuper2
         U _objc_msgSend_stret
         U _objc_release
         U _objc_retain
         U _objc_retainAutoreleasedReturnValue
         U _objc_storeStrong
000012d8 s l_.str
0000186c s l_OBJC_$_INSTANCE_METHODS_MenuViewController
00001934 s l_OBJC_$_INSTANCE_VARIABLES_MenuViewController
000019e0 s l_OBJC_$_PROP_LIST_MenuViewController
00001688 s l_OBJC_$_PROTOCOL_INSTANCE_METHODS_NSObject
0000181c s l_OBJC_$_PROTOCOL_INSTANCE_METHODS_OPT_AppDeckApiCallDelegate
000017e4 s l_OBJC_$_PROTOCOL_INSTANCE_METHODS_OPT_ManagedUIWebViewDelegate
00001774 s l_OBJC_$_PROTOCOL_INSTANCE_METHODS_OPT_NSObject
00001830 s l_OBJC_$_PROTOCOL_METHOD_TYPES_AppDeckApiCallDelegate
00001808 s l_OBJC_$_PROTOCOL_METHOD_TYPES_ManagedUIWebViewDelegate
00001788 s l_OBJC_$_PROTOCOL_METHOD_TYPES_NSObject
00001810 s l_OBJC_$_PROTOCOL_REFS_AppDeckApiCallDelegate
000017d8 s l_OBJC_$_PROTOCOL_REFS_ManagedUIWebViewDelegate
00001834 s l_OBJC_CLASS_PROTOCOLS_$_MenuViewController
00001a08 s l_OBJC_CLASS_RO_$_MenuViewController
00001abc S l_OBJC_LABEL_PROTOCOL_$_AppDeckApiCallDelegate
00001ab8 S l_OBJC_LABEL_PROTOCOL_$_ManagedUIWebViewDelegate
00001ab4 S l_OBJC_LABEL_PROTOCOL_$_NSObject
00001844 s l_OBJC_METACLASS_RO_$_MenuViewController
00001a88 S l_OBJC_PROTOCOL_$_AppDeckApiCallDelegate
00001a5c S l_OBJC_PROTOCOL_$_ManagedUIWebViewDelegate
00001a30 S l_OBJC_PROTOCOL_$_NSObject

build/AppDeck/AppDeck.a(WebBrowserViewController.o) (for architecture armv7):
00001410 t -[WebBrowserViewController .cxx_destruct]
00000ca4 t -[WebBrowserViewController apiCall:]
000005ec t -[WebBrowserViewController childIsMain:]
000013d8 t -[WebBrowserViewController content]
000005c0 t -[WebBrowserViewController didReceiveMemoryWarning]
000000ac t -[WebBrowserViewController getRequest]
000008d8 t -[WebBrowserViewController initActionButton]
00000000 t -[WebBrowserViewController initWithNibName:bundle:URL:content:header:footer:loader:]
00000cd0 t -[WebBrowserViewController load:]
00000744 t -[WebBrowserViewController managedUIWebViewController:shouldStartLoadWithRequest:navigationType:]
00000794 t -[WebBrowserViewController refreshActionButton]
000013e8 t -[WebBrowserViewController setContent:]
00000118 t -[WebBrowserViewController viewDidLoad]
000012ec t -[WebBrowserViewController viewWillLayoutSubviews]
0000072c t -[WebBrowserViewController webView:runPrompt:defaultText:initiatedByFrame:]
         U _OBJC_CLASS_$_LoaderChildViewController
         U _OBJC_CLASS_$_ManagedUIWebViewController
         U _OBJC_CLASS_$_NSArray
         U _OBJC_CLASS_$_NSDictionary
         U _OBJC_CLASS_$_NSMutableArray
         U _OBJC_CLASS_$_NSMutableURLRequest
         U _OBJC_CLASS_$_NSNotificationCenter
         U _OBJC_CLASS_$_NSString
         U _OBJC_CLASS_$_NSTimer
         U _OBJC_CLASS_$_NSURL
         U _OBJC_CLASS_$_NSURLRequest
         U _OBJC_CLASS_$_PageBarButtonContainer
         U _OBJC_CLASS_$_UIActivityViewController
         U _OBJC_CLASS_$_UIBarButtonItem
         U _OBJC_CLASS_$_UIDevice
000014a8 S _OBJC_CLASS_$_WebBrowserViewController
00002200 S _OBJC_IVAR_$_WebBrowserViewController._content
000021fc S _OBJC_IVAR_$_WebBrowserViewController.buttonAction
000021f4 S _OBJC_IVAR_$_WebBrowserViewController.buttonCancel
000021f0 S _OBJC_IVAR_$_WebBrowserViewController.buttonNext
000021ec S _OBJC_IVAR_$_WebBrowserViewController.buttonPrevious
000021f8 S _OBJC_IVAR_$_WebBrowserViewController.buttonRefresh
000021e8 S _OBJC_IVAR_$_WebBrowserViewController.timer
         U _OBJC_METACLASS_$_LoaderChildViewController
         U _OBJC_METACLASS_$_NSObject
000014bc S _OBJC_METACLASS_$_WebBrowserViewController
         U _UIActivityTypeAssignToContact
         U _UIActivityTypePostToWeibo
         U __NSConcreteGlobalBlock
         U __NSConcreteStackBlock
00001210 t ___33-[WebBrowserViewController load:]_block_invoke
00001298 t ___33-[WebBrowserViewController load:]_block_invoke165
00000418 t ___39-[WebBrowserViewController viewDidLoad]_block_invoke
000004b0 t ___39-[WebBrowserViewController viewDidLoad]_block_invoke40
0000078c t ___97-[WebBrowserViewController managedUIWebViewController:shouldStartLoadWithRequest:navigationType:]_block_invoke
00000790 t ___97-[WebBrowserViewController managedUIWebViewController:shouldStartLoadWithRequest:navigationType:]_block_invoke_2
         U ___CFConstantStringClassReference
00002010 s ___block_descriptor_tmp
00002090 s ___block_descriptor_tmp164
000020b0 s ___block_descriptor_tmp169
00002030 s ___block_descriptor_tmp57
00002048 s ___block_descriptor_tmp83
0000206c s ___block_descriptor_tmp85
00002058 s ___block_literal_global
0000207c s ___block_literal_global86
000004a0 t ___copy_helper_block_
00001288 t ___copy_helper_block_161
000012dc t ___copy_helper_block_166
000005b0 t ___copy_helper_block_53
000004a8 t ___destroy_helper_block_
00001290 t ___destroy_helper_block_162
000012e4 t ___destroy_helper_block_167
000005b8 t ___destroy_helper_block_54
         U ___stack_chk_fail
         U ___stack_chk_guard
         U __objc_empty_cache
         U __objc_empty_vtable
         U _objc_autoreleaseReturnValue
         U _objc_msgSend
         U _objc_msgSendSuper2
         U _objc_msgSend_stret
         U _objc_release
         U _objc_retain
         U _objc_retainAutorelease
         U _objc_retainAutoreleasedReturnValue
         U _objc_storeStrong
00001ed3 s l_.str108
00001edb s l_.str110
00001eeb s l_.str112
00001ef0 s l_.str114
00001ef9 s l_.str121
00001f08 s l_.str123
00001f10 s l_.str125
00001f1d s l_.str127
00001f27 s l_.str129
00001f37 s l_.str131
00001f3d s l_.str133
00001f4b s l_.str135
00001f53 s l_.str149
00001f60 s l_.str153
00001f75 s l_.str175
00001e98 s l_.str48
00001ec7 s l_.str72
00001ed2 s l_.str80
0000279c s l_OBJC_$_INSTANCE_METHODS_WebBrowserViewController
00002858 s l_OBJC_$_INSTANCE_VARIABLES_WebBrowserViewController
000028f0 s l_OBJC_$_PROP_LIST_WebBrowserViewController
000024f8 s l_OBJC_$_PROTOCOL_INSTANCE_METHODS_NSObject
00002654 s l_OBJC_$_PROTOCOL_INSTANCE_METHODS_OPT_ManagedUIWebViewDelegate
000025e4 s l_OBJC_$_PROTOCOL_INSTANCE_METHODS_OPT_NSObject
0000268c s l_OBJC_$_PROTOCOL_INSTANCE_METHODS_OPT_UIScrollViewDelegate
00002678 s l_OBJC_$_PROTOCOL_METHOD_TYPES_ManagedUIWebViewDelegate
000025f8 s l_OBJC_$_PROTOCOL_METHOD_TYPES_NSObject
00002730 s l_OBJC_$_PROTOCOL_METHOD_TYPES_UIScrollViewDelegate
00002648 s l_OBJC_$_PROTOCOL_REFS_ManagedUIWebViewDelegate
00002680 s l_OBJC_$_PROTOCOL_REFS_UIScrollViewDelegate
00002764 s l_OBJC_CLASS_PROTOCOLS_$_WebBrowserViewController
00002900 s l_OBJC_CLASS_RO_$_WebBrowserViewController
000029b0 S l_OBJC_LABEL_PROTOCOL_$_ManagedUIWebViewDelegate
000029ac S l_OBJC_LABEL_PROTOCOL_$_NSObject
000029b4 S l_OBJC_LABEL_PROTOCOL_$_UIScrollViewDelegate
00002774 s l_OBJC_METACLASS_RO_$_WebBrowserViewController
00002954 S l_OBJC_PROTOCOL_$_ManagedUIWebViewDelegate
00002928 S l_OBJC_PROTOCOL_$_NSObject
00002980 S l_OBJC_PROTOCOL_$_UIScrollViewDelegate

build/AppDeck/AppDeck.a(WebViewHistory.o) (for architecture armv7):
00000000 t +[WebViewHistory getWebViewHistoryPath]
00000290 t +[WebViewHistory inHistory:lastVisited:]
000001d0 t +[WebViewHistory saveWebViewHistory:]
0000006c t +[WebViewHistory sharedInstance]
         U _NSClassFromString
         U _NSSearchPathForDirectoriesInDomains
         U _NSSelectorFromString
         U _OBJC_CLASS_$_NSInvocation
         U _OBJC_CLASS_$_NSObject
         U _OBJC_CLASS_$_NSURL
000006b4 S _OBJC_CLASS_$_WebViewHistory
         U _OBJC_METACLASS_$_NSObject
000006c8 S _OBJC_METACLASS_$_WebViewHistory
000007ac b __MergedGlobals
         U ___CFConstantStringClassReference
         U __objc_empty_cache
         U __objc_empty_vtable
         U _objc_autoreleaseReturnValue
         U _objc_msgSend
         U _objc_release
         U _objc_retain
         U _objc_retainAutoreleasedReturnValue
000005c8 s l_.str
000005f9 s l_.str15
0000060c s l_.str26
0000061d s l_.str28
000005d8 s l_.str3
00000629 s l_.str32
000005e3 s l_.str5
00000718 s l_OBJC_$_CLASS_METHODS_WebViewHistory
00000778 s l_OBJC_CLASS_RO_$_WebViewHistory
00000750 s l_OBJC_METACLASS_RO_$_WebViewHistory

build/AppDeck/AppDeck.a(CustomWebViewFactory.o) (for architecture armv7):
000001b8 t -[CustomWebViewFactory .cxx_destruct]
00000050 t -[CustomWebViewFactory addReusableWebView:]
00000114 t -[CustomWebViewFactory getReusableWebView]
00000000 t -[CustomWebViewFactory init]
0000004c t -[CustomWebViewFactory realAddReusableWebView:]
         U _NSLog
00000434 S _OBJC_CLASS_$_CustomWebViewFactory
         U _OBJC_CLASS_$_NSMutableArray
         U _OBJC_CLASS_$_NSObject
         U _OBJC_CLASS_$_NSTimer
         U _OBJC_CLASS_$_NSURL
         U _OBJC_CLASS_$_UIWebView
000002f4 S _OBJC_IVAR_$_CustomWebViewFactory.webViews
00000420 S _OBJC_METACLASS_$_CustomWebViewFactory
         U _OBJC_METACLASS_$_NSObject
         U ___CFConstantStringClassReference
         U __objc_empty_cache
         U __objc_empty_vtable
         U _objc_autoreleaseReturnValue
         U _objc_msgSend
         U _objc_release
         U _objc_retain
         U _objc_retainAutoreleasedReturnValue
         U _objc_storeStrong
000002f8 s l_.str
00000317 s l_.str21
000002f9 s l_.str4
00000398 s l_OBJC_$_INSTANCE_METHODS_CustomWebViewFactory
000003dc s l_OBJC_$_INSTANCE_VARIABLES_CustomWebViewFactory
000003f8 s l_OBJC_CLASS_RO_$_CustomWebViewFactory
00000370 s l_OBJC_METACLASS_RO_$_CustomWebViewFactory

build/AppDeck/AppDeck.a(LoaderConfiguration.o) (for architecture armv7):
00002718 t -[LoaderConfiguration .cxx_destruct]
000026e0 t -[LoaderConfiguration app_api_key]
00001ee8 t -[LoaderConfiguration app_background_color1]
00001e08 t -[LoaderConfiguration app_background_color2]
00002650 t -[LoaderConfiguration app_base_url]
00002330 t -[LoaderConfiguration app_color1]
00001f20 t -[LoaderConfiguration app_color2]
00002688 t -[LoaderConfiguration app_conf_url]
000026c0 t -[LoaderConfiguration app_version]
000022c0 t -[LoaderConfiguration bootstrapUrl]
00001c98 t -[LoaderConfiguration button_color]
00001d28 t -[LoaderConfiguration cache]
00002568 t -[LoaderConfiguration cdn_enabled]
000025c0 t -[LoaderConfiguration cdn_host]
000024a0 t -[LoaderConfiguration cdn_path]
00002038 t -[LoaderConfiguration control_color]
00001d98 t -[LoaderConfiguration embed_runtime_url]
00001d60 t -[LoaderConfiguration embed_url]
00002630 t -[LoaderConfiguration enable_debug]
00001d08 t -[LoaderConfiguration enable_mobilize]
00001e40 t -[LoaderConfiguration ga]
000024f8 t -[LoaderConfiguration icon_action]
000023d8 t -[LoaderConfiguration icon_cancel]
00002410 t -[LoaderConfiguration icon_close]
00002288 t -[LoaderConfiguration icon_down]
00002468 t -[LoaderConfiguration icon_menu]
000022f8 t -[LoaderConfiguration icon_next]
00002368 t -[LoaderConfiguration icon_previous]
00002150 t -[LoaderConfiguration icon_refresh]
00002218 t -[LoaderConfiguration icon_up]
000021c0 t -[LoaderConfiguration image_loader]
00001fc8 t -[LoaderConfiguration image_network_error_background_color1]
00002000 t -[LoaderConfiguration image_network_error_background_color2]
000020e0 t -[LoaderConfiguration image_network_error_url]
00002070 t -[LoaderConfiguration image_pull_arrow]
00000000 t -[LoaderConfiguration init]
00002188 t -[LoaderConfiguration leftMenuUrl]
000021f8 t -[LoaderConfiguration leftMenuWidth]
00001e78 t -[LoaderConfiguration leftmenu_background_color1]
000020a8 t -[LoaderConfiguration leftmenu_background_color2]
00001aa4 t -[LoaderConfiguration loadImageWithName:defaultURL:baseURL:height:result:]
00000140 t -[LoaderConfiguration loadWithURL:andResult:]
00001c28 t -[LoaderConfiguration logo]
00001dd0 t -[LoaderConfiguration mobiclickAdMobSub]
00001f58 t -[LoaderConfiguration mobiclickApplicationId]
000024d8 t -[LoaderConfiguration prefetch_ttl]
00002530 t -[LoaderConfiguration prefetch_url]
00002250 t -[LoaderConfiguration push_register_url]
00000004 t -[LoaderConfiguration readColor:intoColor1:intoColor2:]
000023a0 t -[LoaderConfiguration rightMenuUrl]
00002448 t -[LoaderConfiguration rightMenuWidth]
00002118 t -[LoaderConfiguration rightmenu_background_color1]
00001f90 t -[LoaderConfiguration rightmenu_background_color2]
000019fc t -[LoaderConfiguration scaledImage:]
00001eb0 t -[LoaderConfiguration screenConfigurations]
000026f0 t -[LoaderConfiguration setApp_api_key:]
00001ef8 t -[LoaderConfiguration setApp_background_color1:]
00001e18 t -[LoaderConfiguration setApp_background_color2:]
00002660 t -[LoaderConfiguration setApp_base_url:]
00002340 t -[LoaderConfiguration setApp_color1:]
00001f30 t -[LoaderConfiguration setApp_color2:]
00002698 t -[LoaderConfiguration setApp_conf_url:]
000026d0 t -[LoaderConfiguration setApp_version:]
000022d0 t -[LoaderConfiguration setBootstrapUrl:]
00001ca8 t -[LoaderConfiguration setButton_color:]
00001d38 t -[LoaderConfiguration setCache:]
00002578 t -[LoaderConfiguration setCdn_enabled:]
000025d0 t -[LoaderConfiguration setCdn_host:]
000024b0 t -[LoaderConfiguration setCdn_path:]
00002048 t -[LoaderConfiguration setControl_color:]
00001da8 t -[LoaderConfiguration setEmbed_runtime_url:]
00001d70 t -[LoaderConfiguration setEmbed_url:]
00002640 t -[LoaderConfiguration setEnable_debug:]
00001d18 t -[LoaderConfiguration setEnable_mobilize:]
00001e50 t -[LoaderConfiguration setGa:]
00002508 t -[LoaderConfiguration setIcon_action:]
000023e8 t -[LoaderConfiguration setIcon_cancel:]
00002420 t -[LoaderConfiguration setIcon_close:]
00002298 t -[LoaderConfiguration setIcon_down:]
00002478 t -[LoaderConfiguration setIcon_menu:]
00002308 t -[LoaderConfiguration setIcon_next:]
00002378 t -[LoaderConfiguration setIcon_previous:]
00002160 t -[LoaderConfiguration setIcon_refresh:]
00002228 t -[LoaderConfiguration setIcon_up:]
000021d0 t -[LoaderConfiguration setImage_loader:]
00001fd8 t -[LoaderConfiguration setImage_network_error_background_color1:]
00002010 t -[LoaderConfiguration setImage_network_error_background_color2:]
000020f0 t -[LoaderConfiguration setImage_network_error_url:]
00002080 t -[LoaderConfiguration setImage_pull_arrow:]
00002198 t -[LoaderConfiguration setLeftMenuUrl:]
00002208 t -[LoaderConfiguration setLeftMenuWidth:]
00001e88 t -[LoaderConfiguration setLeftmenu_background_color1:]
000020b8 t -[LoaderConfiguration setLeftmenu_background_color2:]
00001c38 t -[LoaderConfiguration setLogo:]
00001de0 t -[LoaderConfiguration setMobiclickAdMobSub:]
00001f68 t -[LoaderConfiguration setMobiclickApplicationId:]
000024e8 t -[LoaderConfiguration setPrefetch_ttl:]
00002540 t -[LoaderConfiguration setPrefetch_url:]
00002260 t -[LoaderConfiguration setPush_register_url:]
000023b0 t -[LoaderConfiguration setRightMenuUrl:]
00002458 t -[LoaderConfiguration setRightMenuWidth:]
00002128 t -[LoaderConfiguration setRightmenu_background_color1:]
00001fa0 t -[LoaderConfiguration setRightmenu_background_color2:]
00001ec0 t -[LoaderConfiguration setScreenConfigurations:]
00001ce0 t -[LoaderConfiguration setTitle:]
00002608 t -[LoaderConfiguration setTopbar_color1:]
00002598 t -[LoaderConfiguration setTopbar_color2:]
00001c70 t -[LoaderConfiguration setUrl:]
00001cd0 t -[LoaderConfiguration title]
000025f8 t -[LoaderConfiguration topbar_color1]
00002588 t -[LoaderConfiguration topbar_color2]
00001c60 t -[LoaderConfiguration url]
         U _NSLog
         U _OBJC_CLASS_$_AppDeck
         U _OBJC_CLASS_$_ImagePreload
00005944 S _OBJC_CLASS_$_LoaderConfiguration
         U _OBJC_CLASS_$_NSArray
         U _OBJC_CLASS_$_NSMutableArray
         U _OBJC_CLASS_$_NSObject
         U _OBJC_CLASS_$_NSString
         U _OBJC_CLASS_$_NSURL
         U _OBJC_CLASS_$_NSURLConnection
         U _OBJC_CLASS_$_NSURLRequest
         U _OBJC_CLASS_$_ScreenConfiguration
         U _OBJC_CLASS_$_UIDevice
         U _OBJC_CLASS_$_UIImage
00004d94 S _OBJC_IVAR_$_LoaderConfiguration._app_api_key
00004ccc S _OBJC_IVAR_$_LoaderConfiguration._app_background_color1
00004cd0 S _OBJC_IVAR_$_LoaderConfiguration._app_background_color2
00004d88 S _OBJC_IVAR_$_LoaderConfiguration._app_base_url
00004cc4 S _OBJC_IVAR_$_LoaderConfiguration._app_color1
00004cc8 S _OBJC_IVAR_$_LoaderConfiguration._app_color2
00004d8c S _OBJC_IVAR_$_LoaderConfiguration._app_conf_url
00004d90 S _OBJC_IVAR_$_LoaderConfiguration._app_version
00004d4c S _OBJC_IVAR_$_LoaderConfiguration._bootstrapUrl
00004cfc S _OBJC_IVAR_$_LoaderConfiguration._button_color
00004d08 S _OBJC_IVAR_$_LoaderConfiguration._cache
00004d7c S _OBJC_IVAR_$_LoaderConfiguration._cdn_enabled
00004d80 S _OBJC_IVAR_$_LoaderConfiguration._cdn_host
00004d6c S _OBJC_IVAR_$_LoaderConfiguration._cdn_path
00004d24 S _OBJC_IVAR_$_LoaderConfiguration._control_color
00004d10 S _OBJC_IVAR_$_LoaderConfiguration._embed_runtime_url
00004d0c S _OBJC_IVAR_$_LoaderConfiguration._embed_url
00004d84 S _OBJC_IVAR_$_LoaderConfiguration._enable_debug
00004d04 S _OBJC_IVAR_$_LoaderConfiguration._enable_mobilize
00004d18 S _OBJC_IVAR_$_LoaderConfiguration._ga
00004d74 S _OBJC_IVAR_$_LoaderConfiguration._icon_action
00004d5c S _OBJC_IVAR_$_LoaderConfiguration._icon_cancel
00004d60 S _OBJC_IVAR_$_LoaderConfiguration._icon_close
00004d48 S _OBJC_IVAR_$_LoaderConfiguration._icon_down
00004d68 S _OBJC_IVAR_$_LoaderConfiguration._icon_menu
00004d50 S _OBJC_IVAR_$_LoaderConfiguration._icon_next
00004d54 S _OBJC_IVAR_$_LoaderConfiguration._icon_previous
00004d30 S _OBJC_IVAR_$_LoaderConfiguration._icon_refresh
00004d40 S _OBJC_IVAR_$_LoaderConfiguration._icon_up
00004d38 S _OBJC_IVAR_$_LoaderConfiguration._image_loader
00004cec S _OBJC_IVAR_$_LoaderConfiguration._image_network_error_background_color1
00004cf0 S _OBJC_IVAR_$_LoaderConfiguration._image_network_error_background_color2
00004d2c S _OBJC_IVAR_$_LoaderConfiguration._image_network_error_url
00004d28 S _OBJC_IVAR_$_LoaderConfiguration._image_pull_arrow
00004d34 S _OBJC_IVAR_$_LoaderConfiguration._leftMenuUrl
00004d3c S _OBJC_IVAR_$_LoaderConfiguration._leftMenuWidth
00004cd4 S _OBJC_IVAR_$_LoaderConfiguration._leftmenu_background_color1
00004cd8 S _OBJC_IVAR_$_LoaderConfiguration._leftmenu_background_color2
00004cf4 S _OBJC_IVAR_$_LoaderConfiguration._logo
00004d14 S _OBJC_IVAR_$_LoaderConfiguration._mobiclickAdMobSub
00004d20 S _OBJC_IVAR_$_LoaderConfiguration._mobiclickApplicationId
00004d70 S _OBJC_IVAR_$_LoaderConfiguration._prefetch_ttl
00004d78 S _OBJC_IVAR_$_LoaderConfiguration._prefetch_url
00004d44 S _OBJC_IVAR_$_LoaderConfiguration._push_register_url
00004d58 S _OBJC_IVAR_$_LoaderConfiguration._rightMenuUrl
00004d64 S _OBJC_IVAR_$_LoaderConfiguration._rightMenuWidth
00004cdc S _OBJC_IVAR_$_LoaderConfiguration._rightmenu_background_color1
00004ce0 S _OBJC_IVAR_$_LoaderConfiguration._rightmenu_background_color2
00004d1c S _OBJC_IVAR_$_LoaderConfiguration._screenConfigurations
00004d00 S _OBJC_IVAR_$_LoaderConfiguration._title
00004ce4 S _OBJC_IVAR_$_LoaderConfiguration._topbar_color1
00004ce8 S _OBJC_IVAR_$_LoaderConfiguration._topbar_color2
00004cf8 S _OBJC_IVAR_$_LoaderConfiguration._url
00005930 S _OBJC_METACLASS_$_LoaderConfiguration
         U _OBJC_METACLASS_$_NSObject
         U _UIGraphicsBeginImageContext
         U _UIGraphicsEndImageContext
         U _UIGraphicsGetImageFromCurrentImageContext
         U ___CFConstantStringClassReference
         U ___stack_chk_fail
         U ___stack_chk_guard
         U __objc_empty_cache
         U __objc_empty_vtable
         U _objc_autoreleaseReturnValue
         U _objc_enumerationMutation
         U _objc_msgSend
         U _objc_msgSend_stret
         U _objc_release
         U _objc_retain
         U _objc_retainAutoreleasedReturnValue
         U _objc_storeStrong
00003954 s l_.str
00003a4a s l_.str104
00003a56 s l_.str111
00003a68 s l_.str117
00003a69 s l_.str121
00003a72 s l_.str123
00003a7b s l_.str131
00003a83 s l_.str138
00003a90 s l_.str151
00003aba s l_.str155
00003add s l_.str157
00003aea s l_.str165
00003b05 s l_.str169
0000395c s l_.str17
00003b1b s l_.str173
00003b1e s l_.str177
00003b2c s l_.str183
00003b4e s l_.str185
00003b58 s l_.str189
00003b6a s l_.str193
00003b7a s l_.str197
00003b7f s l_.str204
00003b89 s l_.str206
00003964 s l_.str21
00003bc3 s l_.str212
00003bd0 s l_.str214
00003c0d s l_.str218
00003c1e s l_.str220
00003c5f s l_.str224
00003c6b s l_.str226
00003ca7 s l_.str230
00003cb3 s l_.str232
00003cef s l_.str236
00003cfa s l_.str238
00003d35 s l_.str242
00003d3f s l_.str244
00003d79 s l_.str248
00003d87 s l_.str250
00003dc5 s l_.str254
00003dcd s l_.str256
00003e05 s l_.str260
00003e0f s l_.str262
00003e49 s l_.str266
00003e56 s l_.str268
00003e93 s l_.str272
00003ea7 s l_.str274
00003eeb s l_.str278
00003971 s l_.str28
0000397f s l_.str36
0000398c s l_.str40
0000399b s l_.str48
000039ad s l_.str50
000039bb s l_.str54
000039cb s l_.str60
000039d1 s l_.str64
000039db s l_.str68
000039f0 s l_.str70
00003a0a s l_.str72
00003a25 s l_.str74
00003a33 s l_.str80
00003a44 s l_.str92
00004de0 s l_OBJC_$_INSTANCE_METHODS_LoaderConfiguration
00005328 s l_OBJC_$_INSTANCE_VARIABLES_LoaderConfiguration
00005758 s l_OBJC_$_PROP_LIST_LoaderConfiguration
00005908 s l_OBJC_CLASS_RO_$_LoaderConfiguration
00004db8 s l_OBJC_METACLASS_RO_$_LoaderConfiguration

build/AppDeck/AppDeck.a(FPPopoverController.o) (for architecture armv7):
00002320 t -[FPPopoverController .cxx_destruct]
00000000 t -[FPPopoverController addObservers]
00002310 t -[FPPopoverController alpha]
000022e0 t -[FPPopoverController arrowDirection]
000018b0 t -[FPPopoverController bestArrowDirectionAndFrameFromView:]
00002300 t -[FPPopoverController border]
0000229c t -[FPPopoverController contentSize]
0000227c t -[FPPopoverController contentView]
000001e4 t -[FPPopoverController dealloc]
0000225c t -[FPPopoverController delegate]
000015a0 t -[FPPopoverController deviceOrientationDidChange:]
000013cc t -[FPPopoverController dismissPopoverAnimated:]
000013e0 t -[FPPopoverController dismissPopoverAnimated:completion:]
000012f0 t -[FPPopoverController dismissPopover]
00000274 t -[FPPopoverController initWithViewController:]
0000029c t -[FPPopoverController initWithViewController:delegate:]
000017f0 t -[FPPopoverController observeValueForKeyPath:ofObject:change:context:]
00000fe0 t -[FPPopoverController originFromView:]
000022c8 t -[FPPopoverController origin]
00000afc t -[FPPopoverController parentHeight]
00000ab8 t -[FPPopoverController parentWidth]
00000b40 t -[FPPopoverController presentPopoverFromPoint:]
00001290 t -[FPPopoverController presentPopoverFromView:]
000007f4 t -[FPPopoverController radius]
00000134 t -[FPPopoverController removeObservers]
00002210 t -[FPPopoverController setAlpha:]
000022f0 t -[FPPopoverController setArrowDirection:]
000021c8 t -[FPPopoverController setBorder:]
000022b4 t -[FPPopoverController setContentSize:]
0000226c t -[FPPopoverController setDelegate:]
0000158c t -[FPPopoverController setOrigin:]
000007b8 t -[FPPopoverController setRadius:]
00001fd0 t -[FPPopoverController setShadowsHidden:]
0000075c t -[FPPopoverController setTint:]
00000814 t -[FPPopoverController setTitle:]
00000870 t -[FPPopoverController setupView]
00000a64 t -[FPPopoverController shouldAutorotateToInterfaceOrientation:]
00000798 t -[FPPopoverController tint]
00000850 t -[FPPopoverController title]
0000228c t -[FPPopoverController touchView]
000009b0 t -[FPPopoverController viewDidLoad]
00001724 t -[FPPopoverController willPresentNewPopover:]
         U _CGColorRelease
         U _CGColorRetain
         U _NSLog
00002edc S _OBJC_CLASS_$_FPPopoverController
         U _OBJC_CLASS_$_FPPopoverView
         U _OBJC_CLASS_$_FPTouchView
         U _OBJC_CLASS_$_NSNotificationCenter
         U _OBJC_CLASS_$_UIApplication
         U _OBJC_CLASS_$_UIColor
         U _OBJC_CLASS_$_UIDevice
         U _OBJC_CLASS_$_UINavigationController
         U _OBJC_CLASS_$_UIView
         U _OBJC_CLASS_$_UIViewController
00002ec8 S _OBJC_IVAR_$_FPPopoverController._alpha
00002ed4 S _OBJC_IVAR_$_FPPopoverController._arrowDirection
00002ea4 S _OBJC_IVAR_$_FPPopoverController._border
00002ed0 S _OBJC_IVAR_$_FPPopoverController._contentSize
00002eb0 S _OBJC_IVAR_$_FPPopoverController._contentView
00002ecc S _OBJC_IVAR_$_FPPopoverController._delegate
00002e98 S _OBJC_IVAR_$_FPPopoverController._deviceOrientation
00002eb4 S _OBJC_IVAR_$_FPPopoverController._fromView
00002ec0 S _OBJC_IVAR_$_FPPopoverController._origin
00002eb8 S _OBJC_IVAR_$_FPPopoverController._parentView
00002ea8 S _OBJC_IVAR_$_FPPopoverController._radius
00002ea0 S _OBJC_IVAR_$_FPPopoverController._shadowColor
00002ec4 S _OBJC_IVAR_$_FPPopoverController._shadowsHidden
00002ed8 S _OBJC_IVAR_$_FPPopoverController._tint
00002eac S _OBJC_IVAR_$_FPPopoverController._touchView
00002e9c S _OBJC_IVAR_$_FPPopoverController._viewController
00002ebc S _OBJC_IVAR_$_FPPopoverController._window
00002ef0 S _OBJC_METACLASS_$_FPPopoverController
         U _OBJC_METACLASS_$_NSObject
         U _OBJC_METACLASS_$_UIViewController
         U __Block_object_assign
         U __NSConcreteStackBlock
00000f80 t ___47-[FPPopoverController presentPopoverFromPoint:]_block_invoke
00001700 t ___50-[FPPopoverController deviceOrientationDidChange:]_block_invoke
00000738 t ___55-[FPPopoverController initWithViewController:delegate:]_block_invoke
000014e0 t ___57-[FPPopoverController dismissPopoverAnimated:completion:]_block_invoke
0000152c t ___57-[FPPopoverController dismissPopoverAnimated:completion:]_block_invoke167
         U ___CFConstantStringClassReference
00002f30 s ___block_descriptor_tmp
00002f50 s ___block_descriptor_tmp137
00002f70 s ___block_descriptor_tmp166
00002f90 s ___block_descriptor_tmp174
00002fb0 s ___block_descriptor_tmp184
0000074c t ___copy_helper_block_
00000fd0 t ___copy_helper_block_134
0000151c t ___copy_helper_block_163
00001554 t ___copy_helper_block_170
00001714 t ___copy_helper_block_181
00000754 t ___destroy_helper_block_
00000fd8 t ___destroy_helper_block_135
00001524 t ___destroy_helper_block_164
00001574 t ___destroy_helper_block_171
0000171c t ___destroy_helper_block_182
         U __objc_empty_cache
         U __objc_empty_vtable
         U _objc_msgSend
         U _objc_msgSendSuper2
         U _objc_msgSend_stret
         U _objc_release
         U _objc_retain
         U _objc_retainAutoreleasedReturnValue
         U _objc_retainBlock
         U _objc_storeStrong
00002c98 s l_.str
00002cc1 s l_.str12
00002cd7 s l_.str20
00002cdd s l_.str26
00002ff0 s l_OBJC_$_INSTANCE_METHODS_FPPopoverController
000031f0 s l_OBJC_$_INSTANCE_VARIABLES_FPPopoverController
00003350 s l_OBJC_$_PROP_LIST_FPPopoverController
000033a8 s l_OBJC_CLASS_RO_$_FPPopoverController
00002fc8 s l_OBJC_METACLASS_RO_$_FPPopoverController

build/AppDeck/AppDeck.a(FPPopoverView.o) (for architecture armv7):
00001b8c t -[FPPopoverView .cxx_destruct]
00000364 t -[FPPopoverView addContentView:]
00000354 t -[FPPopoverView arrowDirection]
00001b6c t -[FPPopoverView border]
00000000 t -[FPPopoverView dealloc]
00001b4c t -[FPPopoverView draw3dBorder]
00000c38 t -[FPPopoverView drawRect:]
0000003c t -[FPPopoverView initWithFrame:]
000019f8 t -[FPPopoverView layoutSubviews]
000004fc t -[FPPopoverView newContentPathWithBorderWidth:arrowDirection:]
00000a54 t -[FPPopoverView newGradient]
00001b7c t -[FPPopoverView radius]
00001b00 t -[FPPopoverView relativeOrigin]
00000334 t -[FPPopoverView setArrowDirection:]
000003d4 t -[FPPopoverView setBorder:]
00001a80 t -[FPPopoverView setBounds:]
00001b5c t -[FPPopoverView setDraw3dBorder:]
00001a38 t -[FPPopoverView setFrame:]
00000488 t -[FPPopoverView setRadius:]
00001b18 t -[FPPopoverView setRelativeOrigin:]
00001b3c t -[FPPopoverView setTint:]
00001ad8 t -[FPPopoverView setTitle:]
00001038 t -[FPPopoverView setupViews]
00001b2c t -[FPPopoverView tint]
00001ac8 t -[FPPopoverView title]
         U _CFRelease
         U _CGColorSpaceCreateDeviceRGB
         U _CGContextAddPath
         U _CGContextBeginPath
         U _CGContextClip
         U _CGContextDrawLinearGradient
         U _CGContextFillRect
         U _CGContextRestoreGState
         U _CGContextSaveGState
         U _CGContextSetLineCap
         U _CGContextSetLineJoin
         U _CGContextSetLineWidth
         U _CGContextSetRGBFillColor
         U _CGContextSetRGBStrokeColor
         U _CGContextStrokePath
         U _CGContextStrokeRect
         U _CGGradientCreateWithColorComponents
         U _CGGradientRelease
         U _CGPathAddArcToPoint
         U _CGPathAddLineToPoint
         U _CGPathCloseSubpath
         U _CGPathCreateMutable
         U _CGPathMoveToPoint
         U _CGPathRelease
         U _CGRectInset
         U _CGRectZero
         U _NSLog
00001cc4 S _OBJC_CLASS_$_FPPopoverView
         U _OBJC_CLASS_$_UIColor
         U _OBJC_CLASS_$_UIFont
         U _OBJC_CLASS_$_UILabel
         U _OBJC_CLASS_$_UIView
00002064 S _OBJC_IVAR_$_FPPopoverView._arrowDirection
0000206c S _OBJC_IVAR_$_FPPopoverView._border
00002068 S _OBJC_IVAR_$_FPPopoverView._contentView
00002080 S _OBJC_IVAR_$_FPPopoverView._draw3dBorder
00002070 S _OBJC_IVAR_$_FPPopoverView._radius
0000207c S _OBJC_IVAR_$_FPPopoverView._tint
00002060 S _OBJC_IVAR_$_FPPopoverView._titleLabel
00002078 S _OBJC_IVAR_$_FPPopoverView.relativeOrigin
00002074 S _OBJC_IVAR_$_FPPopoverView.title
00001cd8 S _OBJC_METACLASS_$_FPPopoverView
         U _OBJC_METACLASS_$_NSObject
         U _OBJC_METACLASS_$_UIView
         U _UIGraphicsGetCurrentContext
         U ___CFConstantStringClassReference
         U ___stack_chk_fail
         U ___stack_chk_guard
         U __objc_empty_cache
         U __objc_empty_vtable
         U _objc_msgSend
         U _objc_msgSendSuper2
         U _objc_msgSend_stret
         U _objc_release
         U _objc_retain
         U _objc_retainAutoreleasedReturnValue
         U _objc_storeStrong
00001bd2 s l_.str
00001be8 s l_.str35
000020c0 s l_OBJC_$_INSTANCE_METHODS_FPPopoverView
000021f4 s l_OBJC_$_INSTANCE_VARIABLES_FPPopoverView
000022b0 s l_OBJC_$_PROP_LIST_FPPopoverView
000022e8 s l_OBJC_CLASS_RO_$_FPPopoverView
00002098 s l_OBJC_METACLASS_RO_$_FPPopoverView

build/AppDeck/AppDeck.a(FPTouchView.o) (for architecture armv7):
00000210 t -[FPTouchView .cxx_destruct]
00000000 t -[FPTouchView dealloc]
000000a4 t -[FPTouchView hitTest:withEvent:]
00000070 t -[FPTouchView setTouchedInsideBlock:]
0000003c t -[FPTouchView setTouchedOutsideBlock:]
         U _NSLog
00000268 S _OBJC_CLASS_$_FPTouchView
         U _OBJC_CLASS_$_UIView
00000364 S _OBJC_IVAR_$_FPTouchView._insideBlock
00000360 S _OBJC_IVAR_$_FPTouchView._outsideBlock
0000027c S _OBJC_METACLASS_$_FPTouchView
         U _OBJC_METACLASS_$_NSObject
         U _OBJC_METACLASS_$_UIView
         U ___CFConstantStringClassReference
         U ___stack_chk_fail
         U ___stack_chk_guard
         U __objc_empty_cache
         U __objc_empty_vtable
         U _objc_autoreleaseReturnValue
         U _objc_enumerationMutation
         U _objc_msgSend
         U _objc_msgSendSuper2
         U _objc_release
         U _objc_retain
         U _objc_retainAutoreleasedReturnValue
         U _objc_storeStrong
00000242 s l_.str
000003a0 s l_OBJC_$_INSTANCE_METHODS_FPTouchView
000003e4 s l_OBJC_$_INSTANCE_VARIABLES_FPTouchView
00000414 s l_OBJC_CLASS_RO_$_FPTouchView
00000378 s l_OBJC_METACLASS_RO_$_FPTouchView

build/AppDeck/AppDeck.a(OpenUDID.o) (for architecture armv7):
000001a4 t +[OpenUDID _generateFreshOpenUDID]
00000044 t +[OpenUDID _getDictFromPasteboard:]
00001244 s +[OpenUDID _getDictFromPasteboard:].eh
00000000 t +[OpenUDID _setDict:forPasteboard:]
000009bc t +[OpenUDID setOptOut:]
000002d8 t +[OpenUDID valueWithError:]
000002b8 t +[OpenUDID value]
00001228 s EH_frame0
00000b10 s GCC_except_table1
         U _CC_MD5
         U _CFRelease
         U _CFStringGetCStringPtr
         U _CFStringGetFastestEncoding
         U _CFUUIDCreate
         U _CFUUIDCreateString
         U _OBJC_CLASS_$_NSDate
         U _OBJC_CLASS_$_NSDictionary
         U _OBJC_CLASS_$_NSError
         U _OBJC_CLASS_$_NSKeyedArchiver
         U _OBJC_CLASS_$_NSKeyedUnarchiver
         U _OBJC_CLASS_$_NSMutableDictionary
         U _OBJC_CLASS_$_NSNumber
         U _OBJC_CLASS_$_NSObject
         U _OBJC_CLASS_$_NSString
         U _OBJC_CLASS_$_NSUserDefaults
00001108 S _OBJC_CLASS_$_OpenUDID
         U _OBJC_CLASS_$_UIPasteboard
         U _OBJC_EHTYPE_$_NSException
         U _OBJC_METACLASS_$_NSObject
0000111c S _OBJC_METACLASS_$_OpenUDID
         U __Unwind_SjLj_Register
         U __Unwind_SjLj_Resume
         U __Unwind_SjLj_Unregister
         U ___CFConstantStringClassReference
         U ___objc_personality_v0
         U ___stack_chk_fail
         U ___stack_chk_guard
         U __objc_empty_cache
         U __objc_empty_vtable
         U _arc4random
         U _kCFAllocatorDefault
0000125c b _kOpenUDIDSessionCache
         U _objc_begin_catch
         U _objc_end_catch
         U _objc_msgSend
         U _strlen
00000e30 s l_.str
00000fe2 s l_.str100
00000ff0 s l_.str102
00000ff9 s l_.str104
00001009 s l_.str106
00000e75 s l_.str23
00000e97 s l_.str25
00000ea3 s l_.str40
00000ea8 s l_.str75
00000eea s l_.str77
00000ef0 s l_.str81
00000f8b s l_.str83
00000faa s l_.str94
00000fbd s l_.str96
00000fd0 s l_.str98
0000116c s l_OBJC_$_CLASS_METHODS_OpenUDID
000011e4 s l_OBJC_CLASS_RO_$_OpenUDID
000011bc s l_OBJC_METACLASS_RO_$_OpenUDID

build/AppDeck/AppDeck.a(PageBarButton.o) (for architecture armv7):
00001350 t -[PageBarButton .cxx_destruct]
00001118 t -[PageBarButton buttonAction:]
0000131c t -[PageBarButton child]
000012e4 t -[PageBarButton content]
00001204 t -[PageBarButton contentalt]
000004c4 t -[PageBarButton downloadImage:forState:]
0000123c t -[PageBarButton icon]
00001274 t -[PageBarButton iconalt]
00000000 t -[PageBarButton initWithInfos:andChild:]
000008a0 t -[PageBarButton loadInfos]
0000133c t -[PageBarButton setChild:]
000012f4 t -[PageBarButton setContent:]
00001214 t -[PageBarButton setContentalt:]
0000124c t -[PageBarButton setIcon:]
00001284 t -[PageBarButton setIconalt:]
00000318 t -[PageBarButton setImageFromData:forState:]
000012bc t -[PageBarButton setType:]
000012ac t -[PageBarButton type]
         U _NSLog
         U _OBJC_CLASS_$_NSOperationQueue
         U _OBJC_CLASS_$_NSURL
         U _OBJC_CLASS_$_NSURLConnection
         U _OBJC_CLASS_$_NSURLRequest
000013e4 S _OBJC_CLASS_$_PageBarButton
         U _OBJC_CLASS_$_UIButton
         U _OBJC_CLASS_$_UIImage
00001bdc S _OBJC_IVAR_$_PageBarButton._child
00001bd8 S _OBJC_IVAR_$_PageBarButton._content
00001bc8 S _OBJC_IVAR_$_PageBarButton._contentalt
00001bcc S _OBJC_IVAR_$_PageBarButton._icon
00001bd0 S _OBJC_IVAR_$_PageBarButton._iconalt
00001bd4 S _OBJC_IVAR_$_PageBarButton._type
00001be0 S _OBJC_IVAR_$_PageBarButton.button
         U _OBJC_METACLASS_$_NSObject
000013f8 S _OBJC_METACLASS_$_PageBarButton
         U _OBJC_METACLASS_$_UIButton
         U __NSConcreteStackBlock
000007f4 t ___40-[PageBarButton downloadImage:forState:]_block_invoke
         U ___CFConstantStringClassReference
00001bb0 s ___block_descriptor_tmp
00000870 t ___copy_helper_block_
00000888 t ___destroy_helper_block_
         U __objc_empty_cache
         U __objc_empty_vtable
         U _objc_autoreleaseReturnValue
         U _objc_destroyWeak
         U _objc_loadWeakRetained
         U _objc_msgSend
         U _objc_msgSendSuper2
         U _objc_msgSend_stret
         U _objc_release
         U _objc_retain
         U _objc_retainAutoreleasedReturnValue
         U _objc_storeStrong
         U _objc_storeWeak
0000185c s l_.str
000018e6 s l_.str112
000018e8 s l_.str122
000018f0 s l_.str124
000018f8 s l_.str128
00001869 s l_.str13
000018ff s l_.str132
00001905 s l_.str136
0000190b s l_.str140
00001915 s l_.str144
00001919 s l_.str148
0000191f s l_.str152
00001874 s l_.str17
00001879 s l_.str21
00001881 s l_.str25
00001889 s l_.str27
0000188c s l_.str31
00001892 s l_.str33
00001894 s l_.str39
0000189b s l_.str41
000018a2 s l_.str43
000018a9 s l_.str65
00001861 s l_.str9
000018b8 s l_.str99
00001c10 s l_OBJC_$_INSTANCE_METHODS_PageBarButton
00001cf0 s l_OBJC_$_INSTANCE_VARIABLES_PageBarButton
00001d88 s l_OBJC_$_PROP_LIST_PageBarButton
00001dc0 s l_OBJC_CLASS_RO_$_PageBarButton
00001be8 s l_OBJC_METACLASS_RO_$_PageBarButton

build/AppDeck/AppDeck.a(PageBarButtonContainer.o) (for architecture armv7):
0000039c t -[PageBarButtonContainer .cxx_destruct]
000000dc t -[PageBarButtonContainer addButton:]
000000bc t -[PageBarButtonContainer count]
00000000 t -[PageBarButtonContainer initWithChild:]
00000180 t -[PageBarButtonContainer layoutSubviews]
         U _OBJC_CLASS_$_NSMutableArray
         U _OBJC_CLASS_$_PageBarButton
000003d0 S _OBJC_CLASS_$_PageBarButtonContainer
         U _OBJC_CLASS_$_UIView
00000510 S _OBJC_IVAR_$_PageBarButtonContainer.buttons
00000514 S _OBJC_IVAR_$_PageBarButtonContainer.child
         U _OBJC_METACLASS_$_NSObject
000003e4 S _OBJC_METACLASS_$_PageBarButtonContainer
         U _OBJC_METACLASS_$_UIView
         U ___stack_chk_fail
         U ___stack_chk_guard
         U __objc_empty_cache
         U __objc_empty_vtable
         U _objc_autoreleaseReturnValue
         U _objc_enumerationMutation
         U _objc_msgSend
         U _objc_msgSendSuper2
         U _objc_msgSend_stret
         U _objc_release
         U _objc_retain
         U _objc_retainAutoreleasedReturnValue
         U _objc_storeStrong
0000055c s l_OBJC_$_INSTANCE_METHODS_PageBarButtonContainer
000005a0 s l_OBJC_$_INSTANCE_VARIABLES_PageBarButtonContainer
000005d0 s l_OBJC_CLASS_RO_$_PageBarButtonContainer
00000534 s l_OBJC_METACLASS_RO_$_PageBarButtonContainer

build/AppDeck/AppDeck.a(FPPopoverController+JSon.o) (for architecture armv7):
00000000 t +[FPPopoverController(JSon) popoverControllerFromJSon:fromView:relativeToURL:error:]
         U _OBJC_CLASS_$_FPPopoverController
         U _OBJC_CLASS_$_ManagedUIWebViewController
         U _OBJC_CLASS_$_NSCharacterSet
         U _OBJC_CLASS_$_NSError
         U _OBJC_CLASS_$_NSMutableDictionary
         U _OBJC_CLASS_$_NSURL
         U _OBJC_CLASS_$_NSURLRequest
         U _OBJC_CLASS_$_UIColor
         U __NSConcreteGlobalBlock
         U __NSConcreteStackBlock
00000848 t ___84+[FPPopoverController(JSon) popoverControllerFromJSon:fromView:relativeToURL:error:]_block_invoke
0000084c t ___84+[FPPopoverController(JSon) popoverControllerFromJSon:fromView:relativeToURL:error:]_block_invoke_2
         U ___CFConstantStringClassReference
00000d80 s ___block_descriptor_tmp
00000db0 s ___block_descriptor_tmp113
00000d90 s ___block_literal_global
00000868 t ___copy_helper_block_
00000870 t ___destroy_helper_block_
         U ___stack_chk_fail
         U ___stack_chk_guard
         U _objc_autorelease
         U _objc_autoreleaseReturnValue
         U _objc_enumerationMutation
         U _objc_msgSend
         U _objc_release
         U _objc_retain
         U _objc_retainAutoreleasedReturnValue
00000b84 s l_.str
00000b88 s l_.str20
00000b8c s l_.str25
00000ba4 s l_.str29
00000baa s l_.str33
00000bb1 s l_.str35
00000bb7 s l_.str37
00000bbc s l_.str39
00000bc2 s l_.str41
00000bc8 s l_.str43
00000bd0 s l_.str47
00000bd7 s l_.str49
00000bde s l_.str57
00000be4 s l_.str63
00000bea s l_.str65
00000bf0 s l_.str67
00000bf4 s l_.str69
00000b86 s l_.str7
00000bfa s l_.str71
00000bfd s l_.str75
00000c02 s l_.str77
00000ddc s l_OBJC_$_CATEGORY_CLASS_METHODS_FPPopoverController_$_JSon
00000df0 s l_OBJC_$_CATEGORY_FPPopoverController_$_JSon

build/AppDeck/AppDeck.a(NSError+errorWithFormat.o) (for architecture armv7):
00000000 t +[NSError(errorWithFormat) errorWithFormat:]
         U _NSLocalizedDescriptionKey
         U _OBJC_CLASS_$_NSError
         U _OBJC_CLASS_$_NSMutableDictionary
         U _OBJC_CLASS_$_NSString
         U ___CFConstantStringClassReference
         U _objc_autoreleaseReturnValue
         U _objc_msgSend
         U _objc_release
         U _objc_retain
         U _objc_retainAutoreleasedReturnValue
00000174 s l_.str
000001ac s l_OBJC_$_CATEGORY_CLASS_METHODS_NSError_$_errorWithFormat
000001c0 s l_OBJC_$_CATEGORY_NSError_$_errorWithFormat

build/AppDeck/AppDeck.a(UIImage+RoundedCorner.o) (for architecture armv7):
00000220 t -[UIImage(RoundedCorner) addRoundedRectToPath:context:ovalWidth:ovalHeight:]
00000000 t -[UIImage(RoundedCorner) roundedCornerImage:borderSize:]
         U _CGBitmapContextCreate
         U _CGBitmapContextCreateImage
         U _CGContextAddArcToPoint
         U _CGContextAddRect
         U _CGContextBeginPath
         U _CGContextClip
         U _CGContextClosePath
         U _CGContextDrawImage
         U _CGContextMoveToPoint
         U _CGContextRelease
         U _CGContextRestoreGState
         U _CGContextSaveGState
         U _CGContextScaleCTM
         U _CGContextTranslateCTM
         U _CGImageGetBitmapInfo
         U _CGImageGetBitsPerComponent
         U _CGImageGetColorSpace
         U _CGImageRelease
         U _CGRectGetHeight
         U _CGRectGetMinX
         U _CGRectGetMinY
         U _CGRectGetWidth
         U _OBJC_CLASS_$_UIImage
         U _objc_autoreleaseReturnValue
         U _objc_msgSend
         U _objc_msgSend_stret
         U _objc_release
         U _objc_retainAutoreleasedReturnValue
00000484 s l_OBJC_$_CATEGORY_INSTANCE_METHODS_UIImage_$_RoundedCorner
000004a4 s l_OBJC_$_CATEGORY_UIImage_$_RoundedCorner

build/AppDeck/AppDeck.a(UIImage+Alpha.o) (for architecture armv7):
00000000 t -[UIImage(Alpha) hasAlpha]
00000030 t -[UIImage(Alpha) imageWithAlpha]
0000030c t -[UIImage(Alpha) newBorderMask:size:]
00000110 t -[UIImage(Alpha) transparentBorderImage:]
         U _CGBitmapContextCreate
         U _CGBitmapContextCreateImage
         U _CGColorSpaceCreateDeviceGray
         U _CGColorSpaceRelease
         U _CGContextDrawImage
         U _CGContextFillRect
         U _CGContextRelease
         U _CGContextSetFillColorWithColor
         U _CGImageCreateWithMask
         U _CGImageGetAlphaInfo
         U _CGImageGetBitmapInfo
         U _CGImageGetBitsPerComponent
         U _CGImageGetColorSpace
         U _CGImageGetHeight
         U _CGImageGetWidth
         U _CGImageRelease
         U _OBJC_CLASS_$_UIColor
         U _OBJC_CLASS_$_UIImage
         U _objc_autoreleaseReturnValue
         U _objc_msgSend
         U _objc_msgSend_stret
         U _objc_release
         U _objc_retain
         U _objc_retainAutoreleasedReturnValue
00000534 s l_OBJC_$_CATEGORY_INSTANCE_METHODS_UIImage_$_Alpha
0000056c s l_OBJC_$_CATEGORY_UIImage_$_Alpha

build/AppDeck/AppDeck.a(PopOverWebViewViewController.o) (for architecture armv7):
000005e8 t +[PopOverWebViewViewController showWithConfig:fromView:withParent:error:]
00000f58 t -[PopOverWebViewViewController .cxx_destruct]
000004f4 t -[PopOverWebViewViewController apiCall:]
00000e78 t -[PopOverWebViewViewController backgroundColor]
0000007c t -[PopOverWebViewViewController didReceiveMemoryWarning]
00000000 t -[PopOverWebViewViewController initWithNibName:bundle:]
000000a8 t -[PopOverWebViewViewController loadWebView]
00000510 t -[PopOverWebViewViewController managedUIWebViewController:shouldStartLoadWithRequest:navigationType:]
00000f20 t -[PopOverWebViewViewController parent]
000005e0 t -[PopOverWebViewViewController popoverControllerDidDismissPopover:]
00000ee8 t -[PopOverWebViewViewController popover]
000005e4 t -[PopOverWebViewViewController presentedNewPopoverController:shouldDismissVisiblePopover:]
00000e88 t -[PopOverWebViewViewController setBackgroundColor:]
00000f30 t -[PopOverWebViewViewController setParent:]
00000ef8 t -[PopOverWebViewViewController setPopover:]
00000ec0 t -[PopOverWebViewViewController setUrl:]
00000eb0 t -[PopOverWebViewViewController url]
00000050 t -[PopOverWebViewViewController viewDidLoad]
00000bd8 t -[PopOverWebViewViewController viewWillLayoutSubviews]
000004f8 t -[PopOverWebViewViewController webView:runPrompt:defaultText:initiatedByFrame:]
         U _NSLog
         U _OBJC_CLASS_$_FPPopoverController
         U _OBJC_CLASS_$_ManagedUIWebViewController
         U _OBJC_CLASS_$_NSError
         U _OBJC_CLASS_$_NSURL
         U _OBJC_CLASS_$_NSURLRequest
00000fc8 S _OBJC_CLASS_$_PopOverWebViewViewController
         U _OBJC_CLASS_$_UIViewController
00001608 S _OBJC_IVAR_$_PopOverWebViewViewController._backgroundColor
00001614 S _OBJC_IVAR_$_PopOverWebViewViewController._parent
00001610 S _OBJC_IVAR_$_PopOverWebViewViewController._popover
0000160c S _OBJC_IVAR_$_PopOverWebViewViewController._url
00001604 S _OBJC_IVAR_$_PopOverWebViewViewController.ctl
         U _OBJC_METACLASS_$_NSObject
00000fdc S _OBJC_METACLASS_$_PopOverWebViewViewController
         U _OBJC_METACLASS_$_UIViewController
         U __NSConcreteGlobalBlock
         U __NSConcreteStackBlock
0000049c t ___43-[PopOverWebViewViewController loadWebView]_block_invoke
000004a0 t ___43-[PopOverWebViewViewController loadWebView]_block_invoke_2
         U ___CFConstantStringClassReference
00001820 s ___block_descriptor_tmp
00001850 s ___block_descriptor_tmp53
00001830 s ___block_literal_global
000004e4 t ___copy_helper_block_
000004ec t ___destroy_helper_block_
         U __objc_empty_cache
         U __objc_empty_vtable
         U _objc_autorelease
         U _objc_autoreleaseReturnValue
         U _objc_msgSend
         U _objc_msgSendSuper2
         U _objc_msgSend_stret
         U _objc_release
         U _objc_retain
         U _objc_retainAutorelease
         U _objc_retainAutoreleasedReturnValue
         U _objc_storeStrong
000016ae s l_.str106
000016b4 s l_.str112
000016ba s l_.str114
000016c0 s l_.str116
000016c4 s l_.str118
000016ca s l_.str120
000016cd s l_.str124
000016d2 s l_.str126
000016d7 s l_.str148
00001628 s l_.str56
00001629 s l_.str64
00001637 s l_.str72
00001658 s l_.str74
0000165c s l_.str76
00001674 s l_.str78
0000167a s l_.str82
00001681 s l_.str84
00001687 s l_.str86
0000168c s l_.str88
00001692 s l_.str90
00001698 s l_.str92
000016a0 s l_.str96
000016a7 s l_.str98
00001c28 s l_OBJC_$_CLASS_METHODS_PopOverWebViewViewController
00001e60 s l_OBJC_$_INSTANCE_METHODS_PopOverWebViewViewController
00001f4c s l_OBJC_$_INSTANCE_VARIABLES_PopOverWebViewViewController
00001fb8 s l_OBJC_$_PROP_LIST_PopOverWebViewViewController
00001c3c s l_OBJC_$_PROTOCOL_INSTANCE_METHODS_NSObject
00001e0c s l_OBJC_$_PROTOCOL_INSTANCE_METHODS_OPT_AppDeckApiCallDelegate
00001dd4 s l_OBJC_$_PROTOCOL_INSTANCE_METHODS_OPT_FPPopoverControllerDelegate
00001d9c s l_OBJC_$_PROTOCOL_INSTANCE_METHODS_OPT_ManagedUIWebViewDelegate
00001d28 s l_OBJC_$_PROTOCOL_INSTANCE_METHODS_OPT_NSObject
00001e20 s l_OBJC_$_PROTOCOL_METHOD_TYPES_AppDeckApiCallDelegate
00001df8 s l_OBJC_$_PROTOCOL_METHOD_TYPES_FPPopoverControllerDelegate
00001dc0 s l_OBJC_$_PROTOCOL_METHOD_TYPES_ManagedUIWebViewDelegate
00001d40 s l_OBJC_$_PROTOCOL_METHOD_TYPES_NSObject
00001e00 s l_OBJC_$_PROTOCOL_REFS_AppDeckApiCallDelegate
00001dc8 s l_OBJC_$_PROTOCOL_REFS_FPPopoverControllerDelegate
00001d90 s l_OBJC_$_PROTOCOL_REFS_ManagedUIWebViewDelegate
00001e24 s l_OBJC_CLASS_PROTOCOLS_$_PopOverWebViewViewController
00001fe0 s l_OBJC_CLASS_RO_$_PopOverWebViewViewController
000020c4 S l_OBJC_LABEL_PROTOCOL_$_AppDeckApiCallDelegate
000020c0 S l_OBJC_LABEL_PROTOCOL_$_FPPopoverControllerDelegate
000020bc S l_OBJC_LABEL_PROTOCOL_$_ManagedUIWebViewDelegate
000020b8 S l_OBJC_LABEL_PROTOCOL_$_NSObject
00001e38 s l_OBJC_METACLASS_RO_$_PopOverWebViewViewController
0000208c S l_OBJC_PROTOCOL_$_AppDeckApiCallDelegate
00002060 S l_OBJC_PROTOCOL_$_FPPopoverControllerDelegate
00002034 S l_OBJC_PROTOCOL_$_ManagedUIWebViewDelegate
00002008 S l_OBJC_PROTOCOL_$_NSObject

build/AppDeck/AppDeck.a(UIColor+Gradient.o) (for architecture armv7):
00000170 t +[UIColor(gradient) colorWithGradientHeight:startColor:endColor:]
00000000 t -[UIColor(gradient) isEqualToColor:]
         U _CGColorCreate
         U _CGColorGetColorSpace
         U _CGColorGetComponents
         U _CGColorSpaceCreateDeviceRGB
         U _CGColorSpaceGetModel
         U _CGColorSpaceRelease
         U _CGContextDrawLinearGradient
         U _CGGradientCreateWithColors
         U _OBJC_CLASS_$_NSArray
         U _OBJC_CLASS_$_UIColor
         U _UIGraphicsBeginImageContext
         U _UIGraphicsEndImageContext
         U _UIGraphicsGetCurrentContext
         U _UIGraphicsGetImageFromCurrentImageContext
         U _UIGraphicsPopContext
         U _UIGraphicsPushContext
         U __NSConcreteStackBlock
000000b0 t ___36-[UIColor(gradient) isEqualToColor:]_block_invoke
00000368 s ___block_descriptor_tmp
         U ___stack_chk_fail
         U ___stack_chk_guard
         U _objc_autoreleaseReturnValue
         U _objc_msgSend
         U _objc_release
         U _objc_retain
         U _objc_retainAutoreleasedReturnValue
000003a8 s l_OBJC_$_CATEGORY_CLASS_METHODS_UIColor_$_gradient
00000394 s l_OBJC_$_CATEGORY_INSTANCE_METHODS_UIColor_$_gradient
000003bc s l_OBJC_$_CATEGORY_UIColor_$_gradient

build/AppDeck/AppDeck.a(LogViewController.o) (for architecture armv7):
00003e84 t -[LogViewController .cxx_destruct]
00001b9c t -[LogViewController addLog:content:]
0000197c t -[LogViewController alertView:clickedButtonAtIndex:]
00001670 t -[LogViewController buttonClose:]
000017d8 t -[LogViewController buttonCloseMini:]
000018a8 t -[LogViewController buttonCode:]
000014a8 t -[LogViewController buttonDebug:]
00002260 t -[LogViewController checkAutoScroll]
00001a74 t -[LogViewController clear:]
000000e0 t -[LogViewController dealloc]
00002374 t -[LogViewController debug:]
00001b70 t -[LogViewController didReceiveMemoryWarning]
00002728 t -[LogViewController error:]
00003e4c t -[LogViewController host]
000024a8 t -[LogViewController info:]
00000000 t -[LogViewController initWithNibName:bundle:loader:]
00003dd8 t -[LogViewController isOpen]
00003df8 t -[LogViewController loader]
00003e2c t -[LogViewController position]
00002320 t -[LogViewController scrollViewDidEndDecelerating:]
00002330 t -[LogViewController scrollViewDidEndDragging:willDecelerate:]
00003e5c t -[LogViewController setHost:]
00003de8 t -[LogViewController setIsOpen:]
00003e18 t -[LogViewController setLoader:]
00003e3c t -[LogViewController setPosition:]
00000130 t -[LogViewController viewDidLoad]
00002874 t -[LogViewController viewWillLayoutSubviews]
000025dc t -[LogViewController warning:]
         U _NSLog
0000406c S _OBJC_CLASS_$_LogViewController
         U _OBJC_CLASS_$_NSArray
         U _OBJC_CLASS_$_NSMutableArray
         U _OBJC_CLASS_$_NSString
         U _OBJC_CLASS_$_UIAlertView
         U _OBJC_CLASS_$_UIBarButtonItem
         U _OBJC_CLASS_$_UIButton
         U _OBJC_CLASS_$_UIColor
         U _OBJC_CLASS_$_UIFont
         U _OBJC_CLASS_$_UILabel
         U _OBJC_CLASS_$_UIScrollView
         U _OBJC_CLASS_$_UISegmentedControl
         U _OBJC_CLASS_$_UIToolbar
         U _OBJC_CLASS_$_UIView
         U _OBJC_CLASS_$_UIViewController
00004e40 S _OBJC_IVAR_$_LogViewController._host
00004e34 S _OBJC_IVAR_$_LogViewController._isOpen
00004e38 S _OBJC_IVAR_$_LogViewController._loader
00004e3c S _OBJC_IVAR_$_LogViewController._position
00004de4 S _OBJC_IVAR_$_LogViewController.autoScroll
00004e28 S _OBJC_IVAR_$_LogViewController.clear
00004e2c S _OBJC_IVAR_$_LogViewController.close
00004e24 S _OBJC_IVAR_$_LogViewController.code
00004dc8 S _OBJC_IVAR_$_LogViewController.color1
00004dcc S _OBJC_IVAR_$_LogViewController.color2
00004e30 S _OBJC_IVAR_$_LogViewController.colorAlt
00004e14 S _OBJC_IVAR_$_LogViewController.debug
00004e04 S _OBJC_IVAR_$_LogViewController.debugColor
00004e20 S _OBJC_IVAR_$_LogViewController.error
00004e10 S _OBJC_IVAR_$_LogViewController.errorColor
00004dc4 S _OBJC_IVAR_$_LogViewController.font
00004e18 S _OBJC_IVAR_$_LogViewController.info
00004e08 S _OBJC_IVAR_$_LogViewController.infoColor
00004de0 S _OBJC_IVAR_$_LogViewController.lastJS
00004dec S _OBJC_IVAR_$_LogViewController.logs
00004de8 S _OBJC_IVAR_$_LogViewController.maxlogs
00004dd4 S _OBJC_IVAR_$_LogViewController.miniButton
00004ddc S _OBJC_IVAR_$_LogViewController.miniInfo
00004dd8 S _OBJC_IVAR_$_LogViewController.miniLabel
00004dd0 S _OBJC_IVAR_$_LogViewController.miniView
00004dc0 S _OBJC_IVAR_$_LogViewController.nbError
00004dbc S _OBJC_IVAR_$_LogViewController.nbWarning
00004db8 S _OBJC_IVAR_$_LogViewController.scrollView
00004df4 S _OBJC_IVAR_$_LogViewController.showDebug
00004e00 S _OBJC_IVAR_$_LogViewController.showError
00004df8 S _OBJC_IVAR_$_LogViewController.showInfo
00004dfc S _OBJC_IVAR_$_LogViewController.showWarn
00004df0 S _OBJC_IVAR_$_LogViewController.toolbar
00004e1c S _OBJC_IVAR_$_LogViewController.warn
00004e0c S _OBJC_IVAR_$_LogViewController.warnColor
00004080 S _OBJC_METACLASS_$_LogViewController
         U _OBJC_METACLASS_$_NSObject
         U _OBJC_METACLASS_$_UIViewController
         U __NSConcreteStackBlock
00002588 t ___26-[LogViewController info:]_block_invoke
00002454 t ___27-[LogViewController debug:]_block_invoke
00002808 t ___27-[LogViewController error:]_block_invoke
000026bc t ___29-[LogViewController warning:]_block_invoke
         U ___CFConstantStringClassReference
00005120 s ___block_descriptor_tmp
00005140 s ___block_descriptor_tmp255
00005160 s ___block_descriptor_tmp261
00005180 s ___block_descriptor_tmp267
00002478 t ___copy_helper_block_
000025ac t ___copy_helper_block_252
000026f8 t ___copy_helper_block_258
00002844 t ___copy_helper_block_264
00002490 t ___destroy_helper_block_
000025c4 t ___destroy_helper_block_253
00002710 t ___destroy_helper_block_259
0000285c t ___destroy_helper_block_265
         U ___stack_chk_fail
         U ___stack_chk_guard
         U __dispatch_main_q
         U __objc_empty_cache
         U __objc_empty_vtable
         U _dispatch_async
00005cb8 S _glLog
         U _objc_autoreleaseReturnValue
         U _objc_destroyWeak
         U _objc_enumerationMutation
         U _objc_loadWeakRetained
         U _objc_msgSend
         U _objc_msgSendSuper2
         U _objc_msgSend_stret
         U _objc_release
         U _objc_retain
         U _objc_retainAutoreleasedReturnValue
         U _objc_storeStrong
         U _objc_storeWeak
00004e78 s l_.str
00004e93 s l_.str106
00004ea0 s l_.str119
00004ea2 s l_.str127
00004ea4 s l_.str131
00004ea6 s l_.str133
00004ea8 s l_.str135
00004eab s l_.str139
00004ead s l_.str180
00004ec3 s l_.str182
00004eca s l_.str184
00004ed2 s l_.str199
00004ee4 s l_.str231
00004ee7 s l_.str245
00004ef7 s l_.str250
00004f00 s l_.str256
00004f0c s l_.str262
00004e8c s l_.str72
00004e90 s l_.str88
000057a4 s l_OBJC_$_INSTANCE_METHODS_LogViewController
000058fc s l_OBJC_$_INSTANCE_VARIABLES_LogViewController
00005bc0 s l_OBJC_$_PROP_LIST_LogViewController
000054b0 s l_OBJC_$_PROTOCOL_INSTANCE_METHODS_NSObject
0000559c s l_OBJC_$_PROTOCOL_INSTANCE_METHODS_OPT_NSObject
000056f0 s l_OBJC_$_PROTOCOL_INSTANCE_METHODS_OPT_UIAlertViewDelegate
0000560c s l_OBJC_$_PROTOCOL_INSTANCE_METHODS_OPT_UIScrollViewDelegate
000055b0 s l_OBJC_$_PROTOCOL_METHOD_TYPES_NSObject
00005750 s l_OBJC_$_PROTOCOL_METHOD_TYPES_UIAlertViewDelegate
000056b0 s l_OBJC_$_PROTOCOL_METHOD_TYPES_UIScrollViewDelegate
000056e4 s l_OBJC_$_PROTOCOL_REFS_UIAlertViewDelegate
00005600 s l_OBJC_$_PROTOCOL_REFS_UIScrollViewDelegate
0000576c s l_OBJC_CLASS_PROTOCOLS_$_LogViewController
00005be8 s l_OBJC_CLASS_RO_$_LogViewController
00005c94 S l_OBJC_LABEL_PROTOCOL_$_NSObject
00005c9c S l_OBJC_LABEL_PROTOCOL_$_UIAlertViewDelegate
00005c98 S l_OBJC_LABEL_PROTOCOL_$_UIScrollViewDelegate
0000577c s l_OBJC_METACLASS_RO_$_LogViewController
00005c10 S l_OBJC_PROTOCOL_$_NSObject
00005c68 S l_OBJC_PROTOCOL_$_UIAlertViewDelegate
00005c3c S l_OBJC_PROTOCOL_$_UIScrollViewDelegate

build/AppDeck/AppDeck.a(UIImageView+fromURL.o) (for architecture armv7):
00000000 t +[UIImageView(fromURL) imageViewFromURL:height:]
00000380 t +[UIImageView(fromURL) imageViewFromURL:width:]
         U _OBJC_CLASS_$_AppDeck
         U _OBJC_CLASS_$_NSOperationQueue
         U _OBJC_CLASS_$_NSURLConnection
         U _OBJC_CLASS_$_NSURLRequest
         U _OBJC_CLASS_$_UIImage
         U _OBJC_CLASS_$_UIImageView
         U __NSConcreteStackBlock
00000594 t ___47+[UIImageView(fromURL) imageViewFromURL:width:]_block_invoke
00000214 t ___48+[UIImageView(fromURL) imageViewFromURL:height:]_block_invoke
         U ___CFConstantStringClassReference
000009e0 s ___block_descriptor_tmp
00000a00 s ___block_descriptor_tmp54
00000350 t ___copy_helper_block_
00000768 t ___copy_helper_block_51
00000368 t ___destroy_helper_block_
00000780 t ___destroy_helper_block_52
         U _glLog
         U _objc_msgSend
         U _objc_msgSend_stret
         U _objc_release
         U _objc_retain
         U _objc_retainAutoreleaseReturnValue
         U _objc_retainAutoreleasedReturnValue
00000978 s l_.str
00000993 s l_.str12
00000a28 s l_OBJC_$_CATEGORY_CLASS_METHODS_UIImageView_$_fromURL
00000a48 s l_OBJC_$_CATEGORY_UIImageView_$_fromURL

build/AppDeck/AppDeck.a(UIButton+fromURL.o) (for architecture armv7):
00000000 t +[UIButton(fromURL) buttonFromURL:height:]
         U _OBJC_CLASS_$_AppDeck
         U _OBJC_CLASS_$_NSOperationQueue
         U _OBJC_CLASS_$_NSURLConnection
         U _OBJC_CLASS_$_NSURLRequest
         U _OBJC_CLASS_$_UIButton
         U _OBJC_CLASS_$_UIImage
         U __NSConcreteStackBlock
000001fc t ___42+[UIButton(fromURL) buttonFromURL:height:]_block_invoke
         U ___CFConstantStringClassReference
00000570 s ___block_descriptor_tmp
00000344 t ___copy_helper_block_
0000035c t ___destroy_helper_block_
         U _glLog
         U _objc_msgSend
         U _objc_msgSend_stret
         U _objc_release
         U _objc_retain
         U _objc_retainAutoreleaseReturnValue
         U _objc_retainAutoreleasedReturnValue
000004f8 s l_.str
0000051a s l_.str6
00000598 s l_OBJC_$_CATEGORY_CLASS_METHODS_UIButton_$_fromURL
000005ac s l_OBJC_$_CATEGORY_UIButton_$_fromURL

build/AppDeck/AppDeck.a(AppDeckApiCall.o) (for architecture armv7):
00000ddc t -[AppDeckApiCall .cxx_destruct]
00000d84 t -[AppDeckApiCall app]
00000dbc t -[AppDeckApiCall callBackSend]
00000bec t -[AppDeckApiCall child]
00000ccc t -[AppDeckApiCall command]
00000d04 t -[AppDeckApiCall container]
00000548 t -[AppDeckApiCall dealloc]
00000a7c t -[AppDeckApiCall eventID]
00000000 t -[AppDeckApiCall init]
00000bb4 t -[AppDeckApiCall inputJSON]
000005dc t -[AppDeckApiCall input]
00001ea0 s -[AppDeckApiCall input].eh
00000c5c t -[AppDeckApiCall loader]
00000b1c t -[AppDeckApiCall managedWebView]
00000c94 t -[AppDeckApiCall origin]
00000810 t -[AppDeckApiCall param]
00000b7c t -[AppDeckApiCall resultJSON]
00000af8 t -[AppDeckApiCall result]
00000450 t -[AppDeckApiCall sendCallBackWithError:]
00000030 t -[AppDeckApiCall sendCallBackWithType:params:]
00001e88 s -[AppDeckApiCall sendCallBackWithType:params:].eh
000004fc t -[AppDeckApiCall sendCallbackWithResult:]
00000d94 t -[AppDeckApiCall setApp:]
00000dcc t -[AppDeckApiCall setCallBackSend:]
00000bfc t -[AppDeckApiCall setChild:]
00000cdc t -[AppDeckApiCall setCommand:]
00000d14 t -[AppDeckApiCall setContainer:]
00000d3c t -[AppDeckApiCall setEventID:]
00000b54 t -[AppDeckApiCall setInput:]
00000bc4 t -[AppDeckApiCall setInputJSON:]
00000c6c t -[AppDeckApiCall setLoader:]
00000b2c t -[AppDeckApiCall setManagedWebView:]
00000ca4 t -[AppDeckApiCall setOrigin:]
00000b08 t -[AppDeckApiCall setParam:]
0000088c t -[AppDeckApiCall setResult:]
00001eb8 s -[AppDeckApiCall setResult:].eh
00000b8c t -[AppDeckApiCall setResultJSON:]
00000d74 t -[AppDeckApiCall setSuccess:]
00000c34 t -[AppDeckApiCall setWebview:]
00000d64 t -[AppDeckApiCall success]
00000c24 t -[AppDeckApiCall webview]
00001e6c s EH_frame0
00000f00 s GCC_except_table1
00000f10 s GCC_except_table5
00000f20 s GCC_except_table7
         U _NSLog
0000193c S _OBJC_CLASS_$_AppDeckApiCall
         U _OBJC_CLASS_$_NSArray
         U _OBJC_CLASS_$_NSDictionary
         U _OBJC_CLASS_$_NSJSONSerialization
         U _OBJC_CLASS_$_NSObject
         U _OBJC_CLASS_$_NSString
         U _OBJC_CLASS_$_UIDevice
         U _OBJC_EHTYPE_$_NSException
00001508 S _OBJC_IVAR_$_AppDeckApiCall._app
0000150c S _OBJC_IVAR_$_AppDeckApiCall._callBackSend
000014ec S _OBJC_IVAR_$_AppDeckApiCall._child
000014fc S _OBJC_IVAR_$_AppDeckApiCall._command
00001500 S _OBJC_IVAR_$_AppDeckApiCall._container
000014e4 S _OBJC_IVAR_$_AppDeckApiCall._eventID
000014d4 S _OBJC_IVAR_$_AppDeckApiCall._input
000014d8 S _OBJC_IVAR_$_AppDeckApiCall._inputJSON
000014f4 S _OBJC_IVAR_$_AppDeckApiCall._loader
000014e8 S _OBJC_IVAR_$_AppDeckApiCall._managedWebView
000014f8 S _OBJC_IVAR_$_AppDeckApiCall._origin
000014dc S _OBJC_IVAR_$_AppDeckApiCall._param
000014e0 S _OBJC_IVAR_$_AppDeckApiCall._result
000014d0 S _OBJC_IVAR_$_AppDeckApiCall._resultJSON
00001504 S _OBJC_IVAR_$_AppDeckApiCall._success
000014f0 S _OBJC_IVAR_$_AppDeckApiCall._webview
00001950 S _OBJC_METACLASS_$_AppDeckApiCall
         U _OBJC_METACLASS_$_NSObject
         U __Unwind_SjLj_Register
         U __Unwind_SjLj_Resume
         U __Unwind_SjLj_Unregister
         U ___CFConstantStringClassReference
         U ___objc_personality_v0
         U ___stack_chk_fail
         U ___stack_chk_guard
         U __objc_empty_cache
         U __objc_empty_vtable
         U _objc_autoreleaseReturnValue
         U _objc_begin_catch
         U _objc_end_catch
         U _objc_msgSend
         U _objc_msgSendSuper2
         U _objc_release
         U _objc_retain
         U _objc_retainAutoreleaseReturnValue
         U _objc_retainAutoreleasedReturnValue
         U _objc_storeStrong
00000f34 s l_.str
00000f39 s l_.str1
00000f4c s l_.str12
00000f7f s l_.str14
00000fae s l_.str26
00000f40 s l_.str3
00000fb2 s l_.str30
00000fe5 s l_.str38
0000105a s l_.str42
00000f45 s l_.str5
00001060 s l_.str51
00001068 s l_.str55
0000106f s l_.str63
0000109b s l_.str65
000010c3 s l_.str71
000010f2 s l_.str75
000010f8 s l_.str81
00001124 s l_.str83
0000114c s l_.str85
000019a8 s l_OBJC_$_INSTANCE_METHODS_AppDeckApiCall
00001b78 s l_OBJC_$_INSTANCE_VARIABLES_AppDeckApiCall
00001cc0 s l_OBJC_$_PROP_LIST_AppDeckApiCall
00001d48 s l_OBJC_CLASS_RO_$_AppDeckApiCall
00001980 s l_OBJC_METACLASS_RO_$_AppDeckApiCall

build/AppDeck/AppDeck.a(PhotoBrowserViewController.o) (for architecture armv7):
00001d5c t +[PhotoBrowserViewController photoBrowserWithConfig:baseURL:error:]
00002358 t -[PhotoBrowserViewController .cxx_destruct]
000016dc t -[PhotoBrowserViewController addPhoto:]
00000dd4 t -[PhotoBrowserViewController apiCall:]
00002320 t -[PhotoBrowserViewController bgColor]
000008b8 t -[PhotoBrowserViewController cancelControlHiding]
00000984 t -[PhotoBrowserViewController checkButton]
00000264 t -[PhotoBrowserViewController didReceiveMemoryWarning]
00000c38 t -[PhotoBrowserViewController doPhotoChange:]
00001644 t -[PhotoBrowserViewController getCurrentPhoto]
000006f4 t -[PhotoBrowserViewController handleDoubleTap:]
00000694 t -[PhotoBrowserViewController handleTap:]
00000808 t -[PhotoBrowserViewController hideControls:]
000008f0 t -[PhotoBrowserViewController hideControlsAfterDelay]
00001524 t -[PhotoBrowserViewController index]
00000290 t -[PhotoBrowserViewController initActionButton]
00000000 t -[PhotoBrowserViewController initWithNibName:bundle:]
00000e00 t -[PhotoBrowserViewController load:]
000022c8 t -[PhotoBrowserViewController photos]
00000d4c t -[PhotoBrowserViewController scrollViewDidEndDecelerating:]
00000d7c t -[PhotoBrowserViewController scrollViewDidEndDragging:willDecelerate:]
00000d3c t -[PhotoBrowserViewController scrollViewDidScroll:]
00002330 t -[PhotoBrowserViewController setBgColor:]
0000149c t -[PhotoBrowserViewController setIndex:]
000022d8 t -[PhotoBrowserViewController setPhotos:]
00002310 t -[PhotoBrowserViewController setStartingIndex:]
00000758 t -[PhotoBrowserViewController showControls:]
00002300 t -[PhotoBrowserViewController startingIndex]
0000009c t -[PhotoBrowserViewController viewDidLoad]
00001748 t -[PhotoBrowserViewController viewWillLayoutSubviews]
         U _NSLog
         U _OBJC_CLASS_$_LoaderChildViewController
         U _OBJC_CLASS_$_NSArray
         U _OBJC_CLASS_$_NSDictionary
         U _OBJC_CLASS_$_NSError
         U _OBJC_CLASS_$_NSMutableArray
         U _OBJC_CLASS_$_NSNumber
         U _OBJC_CLASS_$_NSTimer
         U _OBJC_CLASS_$_NSURL
         U _OBJC_CLASS_$_PageBarButtonContainer
00002454 S _OBJC_CLASS_$_PhotoBrowserViewController
         U _OBJC_CLASS_$_PhotoViewController
         U _OBJC_CLASS_$_UIActivityViewController
         U _OBJC_CLASS_$_UIApplication
         U _OBJC_CLASS_$_UIBarButtonItem
         U _OBJC_CLASS_$_UIColor
         U _OBJC_CLASS_$_UIDevice
         U _OBJC_CLASS_$_UIScrollView
         U _OBJC_CLASS_$_UITapGestureRecognizer
00003164 S _OBJC_IVAR_$_PhotoBrowserViewController._bgColor
0000315c S _OBJC_IVAR_$_PhotoBrowserViewController._photos
00003160 S _OBJC_IVAR_$_PhotoBrowserViewController._startingIndex
00003168 S _OBJC_IVAR_$_PhotoBrowserViewController.actionSheet
00003150 S _OBJC_IVAR_$_PhotoBrowserViewController.areControlsHidden
00003144 S _OBJC_IVAR_$_PhotoBrowserViewController.buttonAction
0000316c S _OBJC_IVAR_$_PhotoBrowserViewController.buttonCancel
00003140 S _OBJC_IVAR_$_PhotoBrowserViewController.buttonNext
0000313c S _OBJC_IVAR_$_PhotoBrowserViewController.buttonPrevious
00003170 S _OBJC_IVAR_$_PhotoBrowserViewController.buttonRefresh
00003154 S _OBJC_IVAR_$_PhotoBrowserViewController.controlVisibilityTimer
00003158 S _OBJC_IVAR_$_PhotoBrowserViewController.currentIndex
00003148 S _OBJC_IVAR_$_PhotoBrowserViewController.doubleTapRecognizer
00003138 S _OBJC_IVAR_$_PhotoBrowserViewController.scrollView
0000314c S _OBJC_IVAR_$_PhotoBrowserViewController.tapRecognizer
         U _OBJC_METACLASS_$_LoaderChildViewController
         U _OBJC_METACLASS_$_NSObject
00002468 S _OBJC_METACLASS_$_PhotoBrowserViewController
         U _UIActivityTypeAssignToContact
         U _UIActivityTypePostToWeibo
         U ___CFConstantStringClassReference
         U ___stack_chk_fail
         U ___stack_chk_guard
         U __objc_empty_cache
         U __objc_empty_vtable
         U _objc_autorelease
         U _objc_autoreleaseReturnValue
         U _objc_enumerationMutation
         U _objc_msgSend
         U _objc_msgSendSuper2
         U _objc_msgSend_stret
         U _objc_release
         U _objc_retain
         U _objc_retainAutoreleasedReturnValue
         U _objc_storeStrong
00003174 s l_.str
000031be s l_.str130
000031c4 s l_.str132
000031cb s l_.str159
000031d2 s l_.str161
000031d8 s l_.str168
000031dc s l_.str214
000031ea s l_.str222
0000320b s l_.str224
00003212 s l_.str226
0000322d s l_.str229
0000325a s l_.str231
0000325e s l_.str233
00003276 s l_.str235
00003280 s l_.str237
00003288 s l_.str239
00003289 s l_.str251
00003291 s l_.str261
0000317c s l_.str49
00003187 s l_.str51
0000318c s l_.str53
00003196 s l_.str60
000031a4 s l_.str62
000031aa s l_.str64
000031b6 s l_.str66
00003780 s l_OBJC_$_CLASS_METHODS_PhotoBrowserViewController
00003a00 s l_OBJC_$_INSTANCE_METHODS_PhotoBrowserViewController
00003b64 s l_OBJC_$_INSTANCE_VARIABLES_PhotoBrowserViewController
00003c98 s l_OBJC_$_PROP_LIST_PhotoBrowserViewController
00003794 s l_OBJC_$_PROTOCOL_INSTANCE_METHODS_NSObject
00003880 s l_OBJC_$_PROTOCOL_INSTANCE_METHODS_OPT_NSObject
000038f4 s l_OBJC_$_PROTOCOL_INSTANCE_METHODS_OPT_UIScrollViewDelegate
00003898 s l_OBJC_$_PROTOCOL_METHOD_TYPES_NSObject
00003998 s l_OBJC_$_PROTOCOL_METHOD_TYPES_UIScrollViewDelegate
000038e8 s l_OBJC_$_PROTOCOL_REFS_UIScrollViewDelegate
000039cc s l_OBJC_CLASS_PROTOCOLS_$_PhotoBrowserViewController
00003cc0 s l_OBJC_CLASS_RO_$_PhotoBrowserViewController
00003d40 S l_OBJC_LABEL_PROTOCOL_$_NSObject
00003d44 S l_OBJC_LABEL_PROTOCOL_$_UIScrollViewDelegate
000039d8 s l_OBJC_METACLASS_RO_$_PhotoBrowserViewController
00003ce8 S l_OBJC_PROTOCOL_$_NSObject
00003d14 S l_OBJC_PROTOCOL_$_UIScrollViewDelegate

build/AppDeck/AppDeck.a(PhotoViewController.o) (for architecture armv7):
000001a0 t +[PhotoViewController photoViewWithUrl:thumbnail:caption:]
00001a74 t -[PhotoViewController .cxx_destruct]
00001a04 t -[PhotoViewController caption]
000013a0 t -[PhotoViewController centerImage]
00000174 t -[PhotoViewController didReceiveMemoryWarning]
000008a8 t -[PhotoViewController getFinalProgressImage:placeholderImage:]
00001380 t -[PhotoViewController image]
00000000 t -[PhotoViewController initWithNibName:bundle:]
00000ab8 t -[PhotoViewController loadImage]
00002e54 s -[PhotoViewController loadImage].eh
000019b8 t -[PhotoViewController scrollViewDidEndZooming:withView:atScale:]
000019bc t -[PhotoViewController scrollViewDidZoom:]
00001a14 t -[PhotoViewController setCaption:]
000006dc t -[PhotoViewController setState:]
000019dc t -[PhotoViewController setUrl:]
00001a4c t -[PhotoViewController setUrlThumbnail:]
000003a8 t -[PhotoViewController setupCaption]
00000250 t -[PhotoViewController sizeThatFits:]
00000780 t -[PhotoViewController toggleZoom:]
0000082c t -[PhotoViewController unLoadImage]
00001a3c t -[PhotoViewController urlThumbnail]
000019cc t -[PhotoViewController url]
00000050 t -[PhotoViewController viewDidLoad]
000019a4 t -[PhotoViewController viewForZoomingInScrollView:]
000014c0 t -[PhotoViewController viewWillLayoutSubviews]
00002e38 s EH_frame0
00001b20 s GCC_except_table10
         U _CGContextDrawImage
         U _CGContextRestoreGState
         U _CGContextSaveGState
         U _CGContextScaleCTM
         U _CGContextTranslateCTM
         U _OBJC_CLASS_$_AppDeck
         U _OBJC_CLASS_$_NSURLRequest
00001b2c S _OBJC_CLASS_$_PhotoViewController
         U _OBJC_CLASS_$_SDWebImageManager
         U _OBJC_CLASS_$_UIColor
         U _OBJC_CLASS_$_UIFont
         U _OBJC_CLASS_$_UIImage
         U _OBJC_CLASS_$_UIImageView
         U _OBJC_CLASS_$_UILabel
         U _OBJC_CLASS_$_UIScrollView
         U _OBJC_CLASS_$_UIView
         U _OBJC_CLASS_$_UIViewController
000024f8 S _OBJC_IVAR_$_PhotoViewController._caption
000024f4 S _OBJC_IVAR_$_PhotoViewController._url
000024fc S _OBJC_IVAR_$_PhotoViewController._urlThumbnail
000024e0 S _OBJC_IVAR_$_PhotoViewController.captionContainer
000024dc S _OBJC_IVAR_$_PhotoViewController.captionLabel
000024e4 S _OBJC_IVAR_$_PhotoViewController.imageLoaded
000024e8 S _OBJC_IVAR_$_PhotoViewController.imageView
000024ec S _OBJC_IVAR_$_PhotoViewController.imageWasSet
000024f0 S _OBJC_IVAR_$_PhotoViewController.operation
000024d8 S _OBJC_IVAR_$_PhotoViewController.scrollview
         U _OBJC_METACLASS_$_NSObject
00001b40 S _OBJC_METACLASS_$_PhotoViewController
         U _OBJC_METACLASS_$_UIViewController
         U _UIGraphicsBeginImageContext
         U _UIGraphicsEndImageContext
         U _UIGraphicsGetCurrentContext
         U _UIGraphicsGetImageFromCurrentImageContext
         U __Block_object_assign
         U __Block_object_dispose
         U __NSConcreteGlobalBlock
         U __NSConcreteStackBlock
         U __Unwind_SjLj_Register
         U __Unwind_SjLj_Resume
         U __Unwind_SjLj_Unregister
00000f58 t ___32-[PhotoViewController loadImage]_block_invoke
00000f5c t ___32-[PhotoViewController loadImage]_block_invoke_2
000010c8 t ___32-[PhotoViewController loadImage]_block_invoke_3
00001194 t ___32-[PhotoViewController loadImage]_block_invoke_4
         U ___CFConstantStringClassReference
000025e0 s ___block_descriptor_tmp
00002610 s ___block_descriptor_tmp144
00002630 s ___block_descriptor_tmp148
00002650 s ___block_descriptor_tmp153
000025f0 s ___block_literal_global
00001204 t ___copy_helper_block_
0000127c t ___copy_helper_block_145
00001300 t ___copy_helper_block_149
00001248 t ___destroy_helper_block_
000012c4 t ___destroy_helper_block_146
00001348 t ___destroy_helper_block_150
         U ___objc_personality_v0
         U __dispatch_main_q
         U __objc_empty_cache
         U __objc_empty_vtable
         U _dispatch_async
         U _dispatch_get_global_queue
         U _objc_autoreleaseReturnValue
         U _objc_copyWeak
         U _objc_destroyWeak
         U _objc_initWeak
         U _objc_loadWeak
         U _objc_loadWeakRetained
         U _objc_msgSend
         U _objc_msgSendSuper2
         U _objc_msgSend_stret
         U _objc_release
         U _objc_retain
         U _objc_retainAutoreleaseReturnValue
         U _objc_retainAutoreleasedReturnValue
         U _objc_storeStrong
00002500 s l_.str
00002908 s l_OBJC_$_CLASS_METHODS_PhotoViewController
00002b88 s l_OBJC_$_INSTANCE_METHODS_PhotoViewController
00002ca4 s l_OBJC_$_INSTANCE_VARIABLES_PhotoViewController
00002d78 s l_OBJC_$_PROP_LIST_PhotoViewController
0000291c s l_OBJC_$_PROTOCOL_INSTANCE_METHODS_NSObject
00002a08 s l_OBJC_$_PROTOCOL_INSTANCE_METHODS_OPT_NSObject
00002a7c s l_OBJC_$_PROTOCOL_INSTANCE_METHODS_OPT_UIScrollViewDelegate
00002a20 s l_OBJC_$_PROTOCOL_METHOD_TYPES_NSObject
00002b20 s l_OBJC_$_PROTOCOL_METHOD_TYPES_UIScrollViewDelegate
00002a70 s l_OBJC_$_PROTOCOL_REFS_UIScrollViewDelegate
00002b54 s l_OBJC_CLASS_PROTOCOLS_$_PhotoViewController
00002d98 s l_OBJC_CLASS_RO_$_PhotoViewController
00002e18 S l_OBJC_LABEL_PROTOCOL_$_NSObject
00002e1c S l_OBJC_LABEL_PROTOCOL_$_UIScrollViewDelegate
00002b60 s l_OBJC_METACLASS_RO_$_PhotoViewController
00002dc0 S l_OBJC_PROTOCOL_$_NSObject
00002dec S l_OBJC_PROTOCOL_$_UIScrollViewDelegate

build/AppDeck/AppDeck.a(MKAnnotationView+WebCache.o) (for architecture armv7):
000003bc t -[MKAnnotationView(WebCache) cancelCurrentImageLoad]
00000000 t -[MKAnnotationView(WebCache) setImageWithURL:]
0000009c t -[MKAnnotationView(WebCache) setImageWithURL:completed:]
00000024 t -[MKAnnotationView(WebCache) setImageWithURL:placeholderImage:]
000000e0 t -[MKAnnotationView(WebCache) setImageWithURL:placeholderImage:completed:]
00000060 t -[MKAnnotationView(WebCache) setImageWithURL:placeholderImage:options:]
0000012c t -[MKAnnotationView(WebCache) setImageWithURL:placeholderImage:options:completed:]
000006b0 s -[MKAnnotationView(WebCache) setImageWithURL:placeholderImage:options:completed:].eh
00000694 s EH_frame0
0000040c s GCC_except_table5
         U _OBJC_CLASS_$_MKAnnotationView
         U _OBJC_CLASS_$_SDWebImageManager
         U __Block_object_assign
         U __NSConcreteStackBlock
         U __Unwind_SjLj_Register
         U __Unwind_SjLj_Resume
         U __Unwind_SjLj_Unregister
0000030c t ___81-[MKAnnotationView(WebCache) setImageWithURL:placeholderImage:options:completed:]_block_invoke
00000590 s ___block_descriptor_tmp
00000380 t ___copy_helper_block_
000003a4 t ___destroy_helper_block_
         U ___objc_personality_v0
         U _objc_copyWeak
         U _objc_destroyWeak
         U _objc_getAssociatedObject
         U _objc_initWeak
         U _objc_loadWeak
         U _objc_loadWeakRetained
         U _objc_msgSend
         U _objc_release
         U _objc_retain
         U _objc_retainAutoreleasedReturnValue
         U _objc_retainBlock
         U _objc_setAssociatedObject
000006c8 b _operationKey
0000060c s l_OBJC_$_CATEGORY_INSTANCE_METHODS_MKAnnotationView_$_WebCache
00000668 s l_OBJC_$_CATEGORY_MKAnnotationView_$_WebCache

build/AppDeck/AppDeck.a(NSData+GIF.o) (for architecture armv7):
00000000 t -[NSData(GIF) sd_isGIF]
         U _OBJC_CLASS_$_NSData
         U _objc_msgSend
00000054 s l_OBJC_$_CATEGORY_INSTANCE_METHODS_NSData_$_GIF
00000068 s l_OBJC_$_CATEGORY_NSData_$_GIF

build/AppDeck/AppDeck.a(SDImageCache.o) (for architecture armv7):
00000000 t +[SDImageCache sharedImageCache]
00001aa0 t -[SDImageCache .cxx_destruct]
00000370 t -[SDImageCache cachePathForKey:]
00001078 t -[SDImageCache cleanDisk]
00000f34 t -[SDImageCache clearDisk]
00000efc t -[SDImageCache clearMemory]
000002f0 t -[SDImageCache dealloc]
00001a30 t -[SDImageCache diskCachePath]
00000958 t -[SDImageCache diskImageForKey:]
0000189c t -[SDImageCache getDiskCount]
000016c8 t -[SDImageCache getSize]
0000084c t -[SDImageCache imageFromDiskCacheForKey:]
000007e4 t -[SDImageCache imageFromMemoryCacheForKey:]
000000d0 t -[SDImageCache initWithNamespace:]
000000a0 t -[SDImageCache init]
000019c4 t -[SDImageCache ioQueue]
000019e4 t -[SDImageCache maxCacheAge]
00001a04 t -[SDImageCache maxCacheSize]
00001a68 t -[SDImageCache memCache]
00000ad0 t -[SDImageCache queryDiskCacheForKey:done:]
00000d7c t -[SDImageCache removeImageForKey:]
00000d90 t -[SDImageCache removeImageForKey:fromDisk:]
00000aa4 t -[SDImageCache scaledImageForKey:image:]
00001a40 t -[SDImageCache setDiskCachePath:]
000019d4 t -[SDImageCache setIoQueue:]
000019f4 t -[SDImageCache setMaxCacheAge:]
00001a1c t -[SDImageCache setMaxCacheSize:]
00001a78 t -[SDImageCache setMemCache:]
0000075c t -[SDImageCache storeImage:forKey:]
000007a0 t -[SDImageCache storeImage:forKey:toDisk:]
000004ac t -[SDImageCache storeImage:imageData:forKey:toDisk:]
         U _CC_MD5
         U _NSSearchPathForDirectoriesInDomains
         U _NSURLContentModificationDateKey
         U _NSURLIsDirectoryKey
         U _NSURLTotalFileAllocatedSizeKey
         U _OBJC_CLASS_$_NSArray
         U _OBJC_CLASS_$_NSCache
         U _OBJC_CLASS_$_NSData
         U _OBJC_CLASS_$_NSDate
         U _OBJC_CLASS_$_NSFileManager
         U _OBJC_CLASS_$_NSMutableDictionary
         U _OBJC_CLASS_$_NSNotificationCenter
         U _OBJC_CLASS_$_NSObject
         U _OBJC_CLASS_$_NSString
         U _OBJC_CLASS_$_NSURL
000024a8 S _OBJC_CLASS_$_SDImageCache
         U _OBJC_CLASS_$_UIImage
000024e0 S _OBJC_IVAR_$_SDImageCache._diskCachePath
000024d4 S _OBJC_IVAR_$_SDImageCache._ioQueue
000024d8 S _OBJC_IVAR_$_SDImageCache._maxCacheAge
000024e4 S _OBJC_IVAR_$_SDImageCache._maxCacheSize
000024dc S _OBJC_IVAR_$_SDImageCache._memCache
         U _OBJC_METACLASS_$_NSObject
000024bc S _OBJC_METACLASS_$_SDImageCache
         U _SDScaledImageForKey
         U _UIApplicationDidReceiveMemoryWarningNotification
         U _UIApplicationWillTerminateNotification
         U _UIImageJPEGRepresentation
         U __Block_object_assign
000028b4 b __MergedGlobals
         U __NSConcreteGlobalBlock
         U __NSConcreteStackBlock
000010e0 t ___25-[SDImageCache cleanDisk]_block_invoke
00001628 t ___25-[SDImageCache cleanDisk]_block_invoke_2
00000f9c t ___25-[SDImageCache clearDisk]_block_invoke
00000068 t ___32+[SDImageCache sharedImageCache]_block_invoke
00000bc0 t ___42-[SDImageCache queryDiskCacheForKey:done:]_block_invoke
00000cfc t ___42-[SDImageCache queryDiskCacheForKey:done:]_block_invoke_2
00000e5c t ___43-[SDImageCache removeImageForKey:fromDisk:]_block_invoke
00000614 t ___51-[SDImageCache storeImage:imageData:forKey:toDisk:]_block_invoke
         U ___CFConstantStringClassReference
00002380 s ___block_descriptor_tmp
00002400 s ___block_descriptor_tmp105
00002420 s ___block_descriptor_tmp111
00002438 s ___block_descriptor_tmp152
00002460 s ___block_descriptor_tmp158
000023a0 s ___block_descriptor_tmp63
000023c0 s ___block_descriptor_tmp89
000023e0 s ___block_descriptor_tmp93
00002448 s ___block_literal_global
00000098 t ___copy_helper_block_
00000ecc t ___copy_helper_block_102
00001068 t ___copy_helper_block_108
000016b8 t ___copy_helper_block_155
00000714 t ___copy_helper_block_60
00000d08 t ___copy_helper_block_86
00000d3c t ___copy_helper_block_90
0000009c t ___destroy_helper_block_
00000ee4 t ___destroy_helper_block_103
00001070 t ___destroy_helper_block_109
000016c0 t ___destroy_helper_block_156
00000738 t ___destroy_helper_block_61
00000d24 t ___destroy_helper_block_87
00000d60 t ___destroy_helper_block_91
         U ___stack_chk_fail
         U ___stack_chk_guard
         U __dispatch_main_q
         U __objc_empty_cache
         U __objc_empty_vtable
         U _dispatch_async
         U _dispatch_once
         U _dispatch_queue_create
         U _dispatch_release
         U _objc_autoreleasePoolPop
         U _objc_autoreleasePoolPush
         U _objc_autoreleaseReturnValue
         U _objc_enumerationMutation
         U _objc_msgSend
         U _objc_msgSendSuper2
         U _objc_msgSend_stret
         U _objc_release
         U _objc_retain
         U _objc_retainAutorelease
         U _objc_retainAutoreleaseReturnValue
         U _objc_retainAutoreleasedReturnValue
         U _objc_retainBlock
         U _objc_storeStrong
         U _strlen
000021fe s l_.str1
00002243 s l_.str35
00002206 s l_.str6
00002618 s l_OBJC_$_CLASS_METHODS_SDImageCache
00002654 s l_OBJC_$_INSTANCE_METHODS_SDImageCache
000027c4 s l_OBJC_$_INSTANCE_VARIABLES_SDImageCache
00002830 s l_OBJC_$_PROP_LIST_SDImageCache
00002860 s l_OBJC_CLASS_RO_$_SDImageCache
0000262c s l_OBJC_METACLASS_RO_$_SDImageCache

build/AppDeck/AppDeck.a(SDWebImageCompat.o) (for architecture armv7):
         U _OBJC_CLASS_$_NSMutableArray
         U _OBJC_CLASS_$_UIImage
         U _OBJC_CLASS_$_UIScreen
00000000 T _SDScaledImageForKey
         U ___CFConstantStringClassReference
         U ___stack_chk_fail
         U ___stack_chk_guard
         U _objc_autoreleaseReturnValue
         U _objc_enumerationMutation
         U _objc_msgSend
         U _objc_msgSend_stret
         U _objc_release
         U _objc_retain
         U _objc_retainAutoreleasedReturnValue
00000450 s l_.str

build/AppDeck/AppDeck.a(SDWebImageDecoder.o) (for architecture armv7):
00000000 t +[UIImage(ForceDecode) decodedImageWithImage:]
         U _CGBitmapContextCreate
         U _CGBitmapContextCreateImage
         U _CGColorSpaceCreateDeviceRGB
         U _CGColorSpaceGetNumberOfComponents
         U _CGColorSpaceRelease
         U _CGContextDrawImage
         U _CGContextRelease
         U _CGImageGetBitmapInfo
         U _CGImageGetBitsPerComponent
         U _CGImageGetHeight
         U _CGImageGetWidth
         U _CGImageRelease
         U _CGPointZero
         U _OBJC_CLASS_$_UIImage
         U _objc_autoreleaseReturnValue
         U _objc_msgSend
         U _objc_release
         U _objc_retain
         U _objc_retainAutoreleasedReturnValue
00000218 s l_OBJC_$_CATEGORY_CLASS_METHODS_UIImage_$_ForceDecode
0000022c s l_OBJC_$_CATEGORY_UIImage_$_ForceDecode

build/AppDeck/AppDeck.a(SDWebImageDownloader.o) (for architecture armv7):
00000000 t +[SDWebImageDownloader initialize]
00000180 t +[SDWebImageDownloader sharedDownloader]
00001574 t -[SDWebImageDownloader .cxx_destruct]
000014c4 t -[SDWebImageDownloader HTTPHeaders]
000014fc t -[SDWebImageDownloader URLCallbacks]
00000e2c t -[SDWebImageDownloader addProgressCallback:andCompletedBlock:forURL:createCallback:]
00001534 t -[SDWebImageDownloader barrierQueue]
00001160 t -[SDWebImageDownloader callbacksForURL:]
00002340 s -[SDWebImageDownloader callbacksForURL:].eh
00000348 t -[SDWebImageDownloader dealloc]
000004e8 t -[SDWebImageDownloader downloadImageWithURL:options:progress:completed:]
00002310 s -[SDWebImageDownloader downloadImageWithURL:options:progress:completed:].eh
0000148c t -[SDWebImageDownloader downloadQueue]
00001554 t -[SDWebImageDownloader executionOrder]
00000220 t -[SDWebImageDownloader init]
00001458 t -[SDWebImageDownloader lastAddedOperation]
000004c8 t -[SDWebImageDownloader maxConcurrentDownloads]
00001364 t -[SDWebImageDownloader removeCallbacksForURL:]
00001544 t -[SDWebImageDownloader setBarrierQueue:]
0000149c t -[SDWebImageDownloader setDownloadQueue:]
00001564 t -[SDWebImageDownloader setExecutionOrder:]
000014d4 t -[SDWebImageDownloader setHTTPHeaders:]
00001478 t -[SDWebImageDownloader setLastAddedOperation:]
000004a8 t -[SDWebImageDownloader setMaxConcurrentDownloads:]
0000150c t -[SDWebImageDownloader setURLCallbacks:]
000003bc t -[SDWebImageDownloader setValue:forHTTPHeaderField:]
00000440 t -[SDWebImageDownloader valueForHTTPHeaderField:]
000022f4 s EH_frame0
000015cc s GCC_except_table11
000015d4 s GCC_except_table14
000015e8 s GCC_except_table30
         U _NSClassFromString
         U _NSSelectorFromString
         U _OBJC_CLASS_$_NSMutableArray
         U _OBJC_CLASS_$_NSMutableDictionary
         U _OBJC_CLASS_$_NSMutableURLRequest
         U _OBJC_CLASS_$_NSNotificationCenter
         U _OBJC_CLASS_$_NSObject
         U _OBJC_CLASS_$_NSOperationQueue
00001f4c S _OBJC_CLASS_$_SDWebImageDownloader
         U _OBJC_CLASS_$_SDWebImageDownloaderOperation
00001f84 S _OBJC_IVAR_$_SDWebImageDownloader._HTTPHeaders
00001f80 S _OBJC_IVAR_$_SDWebImageDownloader._URLCallbacks
00001f88 S _OBJC_IVAR_$_SDWebImageDownloader._barrierQueue
00001f7c S _OBJC_IVAR_$_SDWebImageDownloader._downloadQueue
00001f78 S _OBJC_IVAR_$_SDWebImageDownloader._executionOrder
00001f8c S _OBJC_IVAR_$_SDWebImageDownloader._lastAddedOperation
         U _OBJC_METACLASS_$_NSObject
00001f60 S _OBJC_METACLASS_$_SDWebImageDownloader
000018f0 S _SDWebImageDownloadStartNotification
000018f4 S _SDWebImageDownloadStopNotification
         U __Block_object_assign
         U __Block_object_dispose
00002358 b __MergedGlobals
         U __NSConcreteStackBlock
         U __Unwind_SjLj_Register
         U __Unwind_SjLj_Resume
         U __Unwind_SjLj_Unregister
000001e8 t ___40+[SDWebImageDownloader sharedDownloader]_block_invoke
000012d0 t ___40-[SDWebImageDownloader callbacksForURL:]_block_invoke
000013e8 t ___46-[SDWebImageDownloader removeCallbacksForURL:]_block_invoke
000006c0 t ___72-[SDWebImageDownloader downloadImageWithURL:options:progress:completed:]_block_invoke
00002328 s ___72-[SDWebImageDownloader downloadImageWithURL:options:progress:completed:]_block_invoke.eh
00000ba8 t ___72-[SDWebImageDownloader downloadImageWithURL:options:progress:completed:]_block_invoke70
00000d50 t ___72-[SDWebImageDownloader downloadImageWithURL:options:progress:completed:]_block_invoke78
00000a54 t ___72-[SDWebImageDownloader downloadImageWithURL:options:progress:completed:]_block_invoke_2
00000f28 t ___84-[SDWebImageDownloader addProgressCallback:andCompletedBlock:forURL:createCallback:]_block_invoke
000006ac t ___Block_byref_object_copy_
000006b8 t ___Block_byref_object_dispose_
         U ___CFConstantStringClassReference
00001900 s ___block_descriptor_tmp
000019a0 s ___block_descriptor_tmp113
000019c0 s ___block_descriptor_tmp117
000019e0 s ___block_descriptor_tmp121
00001920 s ___block_descriptor_tmp69
00001940 s ___block_descriptor_tmp77
00001960 s ___block_descriptor_tmp82
00001980 s ___block_descriptor_tmp98
00000218 t ___copy_helper_block_
000010fc t ___copy_helper_block_110
00001324 t ___copy_helper_block_114
00001428 t ___copy_helper_block_118
00000b74 t ___copy_helper_block_65
00000d1c t ___copy_helper_block_73
00000dac t ___copy_helper_block_79
00000de0 t ___copy_helper_block_95
0000021c t ___destroy_helper_block_
00001138 t ___destroy_helper_block_111
00001344 t ___destroy_helper_block_115
00001440 t ___destroy_helper_block_119
00000b90 t ___destroy_helper_block_66
00000d38 t ___destroy_helper_block_74
00000dc8 t ___destroy_helper_block_80
00000e0c t ___destroy_helper_block_96
         U ___objc_personality_v0
         U ___stack_chk_fail
         U ___stack_chk_guard
         U __dispatch_queue_attr_concurrent
         U __objc_empty_cache
         U __objc_empty_vtable
         U _dispatch_barrier_async
         U _dispatch_barrier_sync
         U _dispatch_once
         U _dispatch_queue_create
         U _dispatch_release
         U _dispatch_sync
         U _objc_autoreleaseReturnValue
         U _objc_copyWeak
         U _objc_destroyWeak
         U _objc_enumerationMutation
         U _objc_initWeak
         U _objc_loadWeak
         U _objc_loadWeakRetained
         U _objc_msgSend
         U _objc_msgSendSuper2
         U _objc_release
         U _objc_retain
         U _objc_retainAutoreleaseReturnValue
         U _objc_retainAutoreleasedReturnValue
         U _objc_retainBlock
         U _objc_storeStrong
         U _objc_storeWeak
000015f0 s l_.str
00001614 s l_.str1
0000166a s l_.str11
00001678 s l_.str15
0000183b s l_.str172
00001845 s l_.str174
0000168b s l_.str26
00001693 s l_.str28
00001637 s l_.str3
00001652 s l_.str5
00002088 s l_OBJC_$_CLASS_METHODS_SDWebImageDownloader
000020d0 s l_OBJC_$_INSTANCE_METHODS_SDWebImageDownloader
000021ec s l_OBJC_$_INSTANCE_VARIABLES_SDWebImageDownloader
00002270 s l_OBJC_$_PROP_LIST_SDWebImageDownloader
000022b0 s l_OBJC_CLASS_RO_$_SDWebImageDownloader
000020a8 s l_OBJC_METACLASS_RO_$_SDWebImageDownloader

build/AppDeck/AppDeck.a(SDWebImageDownloaderOperation.o) (for architecture armv7):
000015b0 t -[SDWebImageDownloaderOperation .cxx_destruct]
000014d8 t -[SDWebImageDownloaderOperation cancelBlock]
00000430 t -[SDWebImageDownloaderOperation cancel]
0000142c t -[SDWebImageDownloaderOperation completedBlock]
000012d0 t -[SDWebImageDownloaderOperation connection:didFailWithError:]
00000960 t -[SDWebImageDownloaderOperation connection:didReceiveData:]
00000700 t -[SDWebImageDownloaderOperation connection:didReceiveResponse:]
000013a4 t -[SDWebImageDownloaderOperation connection:willCacheResponse:]
00000ef4 t -[SDWebImageDownloaderOperation connectionDidFinishLoading:]
00001520 t -[SDWebImageDownloaderOperation connection]
000005b0 t -[SDWebImageDownloaderOperation done]
0000149c t -[SDWebImageDownloaderOperation expectedSize]
00001558 t -[SDWebImageDownloaderOperation imageData]
00000000 t -[SDWebImageDownloaderOperation initWithRequest:options:progress:completed:cancelled:]
000006fc t -[SDWebImageDownloaderOperation isConcurrent]
000015a0 t -[SDWebImageDownloaderOperation isExecuting]
00001510 t -[SDWebImageDownloaderOperation isFinished]
00001590 t -[SDWebImageDownloaderOperation lastOperation]
000014c8 t -[SDWebImageDownloaderOperation options]
00001464 t -[SDWebImageDownloaderOperation progressBlock]
0000141c t -[SDWebImageDownloaderOperation request]
000005f4 t -[SDWebImageDownloaderOperation reset]
00000ec8 t -[SDWebImageDownloaderOperation scaledImageForKey:image:]
000014ec t -[SDWebImageDownloaderOperation setCancelBlock:]
00001440 t -[SDWebImageDownloaderOperation setCompletedBlock:]
00001530 t -[SDWebImageDownloaderOperation setConnection:]
000006b0 t -[SDWebImageDownloaderOperation setExecuting:]
000014b4 t -[SDWebImageDownloaderOperation setExpectedSize:]
00000664 t -[SDWebImageDownloaderOperation setFinished:]
00001568 t -[SDWebImageDownloaderOperation setImageData:]
00001478 t -[SDWebImageDownloaderOperation setProgressBlock:]
00000194 t -[SDWebImageDownloaderOperation start]
         U _CFDictionaryGetValue
         U _CFNumberGetValue
         U _CFRelease
         U _CFRunLoopGetCurrent
         U _CFRunLoopRun
         U _CFRunLoopStop
         U _CGBitmapContextCreate
         U _CGBitmapContextCreateImage
         U _CGColorSpaceCreateDeviceRGB
         U _CGColorSpaceRelease
         U _CGContextDrawImage
         U _CGContextRelease
         U _CGImageGetHeight
         U _CGImageRelease
         U _CGImageSourceCopyPropertiesAtIndex
         U _CGImageSourceCreateImageAtIndex
         U _CGImageSourceCreateIncremental
         U _CGImageSourceUpdateData
         U _CGSizeZero
         U _NSLocalizedDescriptionKey
         U _NSURLErrorDomain
         U _OBJC_CLASS_$_NSDate
         U _OBJC_CLASS_$_NSDictionary
         U _OBJC_CLASS_$_NSError
         U _OBJC_CLASS_$_NSMutableData
         U _OBJC_CLASS_$_NSNotificationCenter
         U _OBJC_CLASS_$_NSOperation
         U _OBJC_CLASS_$_NSURLConnection
00001648 S _OBJC_CLASS_$_SDWebImageDownloaderOperation
         U _OBJC_CLASS_$_UIImage
00001cf0 S _OBJC_IVAR_$_SDWebImageDownloaderOperation._cancelBlock
00001cec S _OBJC_IVAR_$_SDWebImageDownloaderOperation._completedBlock
00001d10 S _OBJC_IVAR_$_SDWebImageDownloaderOperation._connection
00001cf4 S _OBJC_IVAR_$_SDWebImageDownloaderOperation._executing
00001cfc S _OBJC_IVAR_$_SDWebImageDownloaderOperation._expectedSize
00001cf8 S _OBJC_IVAR_$_SDWebImageDownloaderOperation._finished
00001d14 S _OBJC_IVAR_$_SDWebImageDownloaderOperation._imageData
00001d04 S _OBJC_IVAR_$_SDWebImageDownloaderOperation._lastOperation
00001ce4 S _OBJC_IVAR_$_SDWebImageDownloaderOperation._options
00001ce8 S _OBJC_IVAR_$_SDWebImageDownloaderOperation._progressBlock
00001ce0 S _OBJC_IVAR_$_SDWebImageDownloaderOperation._request
00001d0c S _OBJC_IVAR_$_SDWebImageDownloaderOperation.height
00001d00 S _OBJC_IVAR_$_SDWebImageDownloaderOperation.responseFromCached
00001d08 S _OBJC_IVAR_$_SDWebImageDownloaderOperation.width
         U _OBJC_METACLASS_$_NSObject
         U _OBJC_METACLASS_$_NSOperation
0000165c S _OBJC_METACLASS_$_SDWebImageDownloaderOperation
         U _SDScaledImageForKey
         U _SDWebImageDownloadStartNotification
         U _SDWebImageDownloadStopNotification
         U __NSConcreteStackBlock
00000e3c t ___59-[SDWebImageDownloaderOperation connection:didReceiveData:]_block_invoke
         U ___CFConstantStringClassReference
00001fe0 s ___block_descriptor_tmp
00000e98 t ___copy_helper_block_
00000eb0 t ___destroy_helper_block_
         U __dispatch_main_q
         U __objc_empty_cache
         U __objc_empty_vtable
         U _dispatch_async
         U _kCGImagePropertyPixelHeight
         U _kCGImagePropertyPixelWidth
         U _objc_autoreleaseReturnValue
         U _objc_getProperty
         U _objc_msgSend
         U _objc_msgSendSuper2
         U _objc_msgSend_stret
         U _objc_release
         U _objc_retain
         U _objc_retainAutoreleasedReturnValue
         U _objc_setProperty
         U _objc_storeStrong
00001d34 s l_.str
00001d71 s l_.str112
00001d87 s l_.str114
00001d54 s l_.str57
00001d5f s l_.str63
00002308 s l_OBJC_$_INSTANCE_METHODS_SDWebImageDownloaderOperation
00002490 s l_OBJC_$_INSTANCE_VARIABLES_SDWebImageDownloaderOperation
000025b0 s l_OBJC_$_PROP_LIST_SDWebImageDownloaderOperation
00002160 s l_OBJC_$_PROTOCOL_INSTANCE_METHODS_NSObject
0000224c s l_OBJC_$_PROTOCOL_INSTANCE_METHODS_OPT_NSObject
000022bc s l_OBJC_$_PROTOCOL_INSTANCE_METHODS_SDWebImageOperation
00002260 s l_OBJC_$_PROTOCOL_METHOD_TYPES_NSObject
000022d0 s l_OBJC_$_PROTOCOL_METHOD_TYPES_SDWebImageOperation
000022b0 s l_OBJC_$_PROTOCOL_REFS_SDWebImageOperation
000022d4 s l_OBJC_CLASS_PROTOCOLS_$_SDWebImageDownloaderOperation
00002610 s l_OBJC_CLASS_RO_$_SDWebImageDownloaderOperation
00002690 S l_OBJC_LABEL_PROTOCOL_$_NSObject
00002694 S l_OBJC_LABEL_PROTOCOL_$_SDWebImageOperation
000022e0 s l_OBJC_METACLASS_RO_$_SDWebImageDownloaderOperation
00002638 S l_OBJC_PROTOCOL_$_NSObject
00002664 S l_OBJC_PROTOCOL_$_SDWebImageOperation

build/AppDeck/AppDeck.a(SDWebImageManager.o) (for architecture armv7):
00000000 t +[SDWebImageManager sharedManager]
000016c8 t -[SDWebImageCombinedOperation .cxx_destruct]
000016b4 t -[SDWebImageCombinedOperation cancelBlock]
00001620 t -[SDWebImageCombinedOperation cancel]
00001694 t -[SDWebImageCombinedOperation isCancelled]
000015bc t -[SDWebImageCombinedOperation setCancelBlock:]
000016a4 t -[SDWebImageCombinedOperation setCancelled:]
0000153c t -[SDWebImageManager .cxx_destruct]
00001460 t -[SDWebImageManager cacheKeyFilter]
000001a4 t -[SDWebImageManager cacheKeyForURL:]
00001278 t -[SDWebImageManager cancelAll]
00002600 s -[SDWebImageManager cancelAll].eh
00000188 t -[SDWebImageManager createCache]
000014d0 t -[SDWebImageManager delegate]
0000022c t -[SDWebImageManager downloadWithURL:options:progress:completed:]
000025b8 s -[SDWebImageManager downloadWithURL:options:progress:completed:].eh
00001498 t -[SDWebImageManager failedURLs]
00001428 t -[SDWebImageManager imageCache]
000013f0 t -[SDWebImageManager imageDownloader]
000000a0 t -[SDWebImageManager init]
000013b0 t -[SDWebImageManager isRunning]
00001504 t -[SDWebImageManager runningOperations]
00001474 t -[SDWebImageManager setCacheKeyFilter:]
000014f0 t -[SDWebImageManager setDelegate:]
000014a8 t -[SDWebImageManager setFailedURLs:]
00001438 t -[SDWebImageManager setImageCache:]
00001400 t -[SDWebImageManager setImageDownloader:]
00001514 t -[SDWebImageManager setRunningOperations:]
0000259c s EH_frame0
000016f4 s GCC_except_table10
00001708 s GCC_except_table11
00001714 s GCC_except_table25
000016dc s GCC_except_table7
         U _OBJC_CLASS_$_NSMutableArray
         U _OBJC_CLASS_$_NSObject
         U _OBJC_CLASS_$_NSString
         U _OBJC_CLASS_$_NSURL
         U _OBJC_CLASS_$_SDImageCache
00001eec S _OBJC_CLASS_$_SDWebImageCombinedOperation
         U _OBJC_CLASS_$_SDWebImageDownloader
00001ed8 S _OBJC_CLASS_$_SDWebImageManager
00001f44 S _OBJC_IVAR_$_SDWebImageCombinedOperation._cancelBlock
00001f48 S _OBJC_IVAR_$_SDWebImageCombinedOperation._cancelled
00001f3c S _OBJC_IVAR_$_SDWebImageManager._cacheKeyFilter
00001f40 S _OBJC_IVAR_$_SDWebImageManager._delegate
00001f34 S _OBJC_IVAR_$_SDWebImageManager._failedURLs
00001f2c S _OBJC_IVAR_$_SDWebImageManager._imageCache
00001f30 S _OBJC_IVAR_$_SDWebImageManager._imageDownloader
00001f38 S _OBJC_IVAR_$_SDWebImageManager._runningOperations
         U _OBJC_METACLASS_$_NSObject
00001f14 S _OBJC_METACLASS_$_SDWebImageCombinedOperation
00001f00 S _OBJC_METACLASS_$_SDWebImageManager
         U __Block_object_assign
         U __Block_object_dispose
00002618 b __MergedGlobals
         U __NSConcreteStackBlock
         U __Unwind_SjLj_Register
         U __Unwind_SjLj_Resume
         U __Unwind_SjLj_Unregister
00000068 t ___34+[SDWebImageManager sharedManager]_block_invoke
00000698 t ___64-[SDWebImageManager downloadWithURL:options:progress:completed:]_block_invoke
000025d0 s ___64-[SDWebImageManager downloadWithURL:options:progress:completed:]_block_invoke.eh
000011c4 t ___64-[SDWebImageManager downloadWithURL:options:progress:completed:]_block_invoke71
00000b40 t ___64-[SDWebImageManager downloadWithURL:options:progress:completed:]_block_invoke_2
000025e8 s ___64-[SDWebImageManager downloadWithURL:options:progress:completed:]_block_invoke_2.eh
00000f1c t ___64-[SDWebImageManager downloadWithURL:options:progress:completed:]_block_invoke_3
00001088 t ___64-[SDWebImageManager downloadWithURL:options:progress:completed:]_block_invoke_4
00000684 t ___Block_byref_object_copy_
00000690 t ___Block_byref_object_dispose_
00001e20 s ___block_descriptor_tmp
00001e40 s ___block_descriptor_tmp53
00001e60 s ___block_descriptor_tmp61
00001e80 s ___block_descriptor_tmp68
00001ea0 s ___block_descriptor_tmp77
00001ec0 s ___block_descriptor_tmp84
00000098 t ___copy_helper_block_
000010a8 t ___copy_helper_block_50
000010dc t ___copy_helper_block_58
00001144 t ___copy_helper_block_64
000011dc t ___copy_helper_block_74
000011f0 t ___copy_helper_block_80
0000009c t ___destroy_helper_block_
000010c4 t ___destroy_helper_block_51
00001114 t ___destroy_helper_block_59
0000118c t ___destroy_helper_block_65
000011e8 t ___destroy_helper_block_75
00001240 t ___destroy_helper_block_81
         U ___objc_personality_v0
         U __dispatch_main_q
         U __objc_empty_cache
         U __objc_empty_vtable
         U _dispatch_async
         U _dispatch_get_global_queue
         U _dispatch_once
         U _objc_autoreleaseReturnValue
         U _objc_copyWeak
         U _objc_destroyWeak
         U _objc_getProperty
         U _objc_initWeak
         U _objc_loadWeak
         U _objc_loadWeakRetained
         U _objc_msgSend
         U _objc_msgSendSuper2
         U _objc_release
         U _objc_retain
         U _objc_retainAutoreleaseReturnValue
         U _objc_retainAutoreleasedReturnValue
         U _objc_retainBlock
         U _objc_setProperty
         U _objc_storeStrong
         U _objc_storeWeak
         U _objc_sync_enter
         U _objc_sync_exit
000020b0 s l_OBJC_$_CLASS_METHODS_SDWebImageManager
00002460 s l_OBJC_$_INSTANCE_METHODS_SDWebImageCombinedOperation
000020ec s l_OBJC_$_INSTANCE_METHODS_SDWebImageManager
000024b0 s l_OBJC_$_INSTANCE_VARIABLES_SDWebImageCombinedOperation
000021d8 s l_OBJC_$_INSTANCE_VARIABLES_SDWebImageManager
000024e0 s l_OBJC_$_PROP_LIST_SDWebImageCombinedOperation
00002258 s l_OBJC_$_PROP_LIST_SDWebImageManager
000022b8 s l_OBJC_$_PROTOCOL_INSTANCE_METHODS_NSObject
000023a4 s l_OBJC_$_PROTOCOL_INSTANCE_METHODS_OPT_NSObject
00002414 s l_OBJC_$_PROTOCOL_INSTANCE_METHODS_SDWebImageOperation
000023b8 s l_OBJC_$_PROTOCOL_METHOD_TYPES_NSObject
00002428 s l_OBJC_$_PROTOCOL_METHOD_TYPES_SDWebImageOperation
00002408 s l_OBJC_$_PROTOCOL_REFS_SDWebImageOperation
0000242c s l_OBJC_CLASS_PROTOCOLS_$_SDWebImageCombinedOperation
000024f8 s l_OBJC_CLASS_RO_$_SDWebImageCombinedOperation
00002290 s l_OBJC_CLASS_RO_$_SDWebImageManager
00002578 S l_OBJC_LABEL_PROTOCOL_$_NSObject
0000257c S l_OBJC_LABEL_PROTOCOL_$_SDWebImageOperation
00002438 s l_OBJC_METACLASS_RO_$_SDWebImageCombinedOperation
000020c4 s l_OBJC_METACLASS_RO_$_SDWebImageManager
00002520 S l_OBJC_PROTOCOL_$_NSObject
0000254c S l_OBJC_PROTOCOL_$_SDWebImageOperation

build/AppDeck/AppDeck.a(SDWebImagePrefetcher.o) (for architecture armv7):
00000000 t +[SDWebImagePrefetcher sharedImagePrefetcher]
000008f8 t -[SDWebImagePrefetcher .cxx_destruct]
00000718 t -[SDWebImagePrefetcher cancelPrefetching]
00000810 t -[SDWebImagePrefetcher completionBlock]
000007c4 t -[SDWebImagePrefetcher finishedCount]
000000a0 t -[SDWebImagePrefetcher init]
00000868 t -[SDWebImagePrefetcher manager]
00000190 t -[SDWebImagePrefetcher maxConcurrentDownloads]
000007a4 t -[SDWebImagePrefetcher options]
000005f4 t -[SDWebImagePrefetcher prefetchURLs:]
00000608 t -[SDWebImagePrefetcher prefetchURLs:completed:]
000008c0 t -[SDWebImagePrefetcher prefetchURLs]
0000054c t -[SDWebImagePrefetcher reportStatus]
000008a0 t -[SDWebImagePrefetcher requestedCount]
00000824 t -[SDWebImagePrefetcher setCompletionBlock:]
000007d4 t -[SDWebImagePrefetcher setFinishedCount:]
00000878 t -[SDWebImagePrefetcher setManager:]
00000134 t -[SDWebImagePrefetcher setMaxConcurrentDownloads:]
000007b4 t -[SDWebImagePrefetcher setOptions:]
000008d0 t -[SDWebImagePrefetcher setPrefetchURLs:]
000008b0 t -[SDWebImagePrefetcher setRequestedCount:]
00000858 t -[SDWebImagePrefetcher setSkippedCount:]
000007fc t -[SDWebImagePrefetcher setStartedTime:]
00000848 t -[SDWebImagePrefetcher skippedCount]
000001ec t -[SDWebImagePrefetcher startPrefetchingAtIndex:]
000007e4 t -[SDWebImagePrefetcher startedTime]
         U _CFAbsoluteTimeGetCurrent
         U _NSLog
         U _OBJC_CLASS_$_NSObject
         U _OBJC_CLASS_$_SDWebImageManager
00000e48 S _OBJC_CLASS_$_SDWebImagePrefetcher
00000e88 S _OBJC_IVAR_$_SDWebImagePrefetcher._completionBlock
00000e80 S _OBJC_IVAR_$_SDWebImagePrefetcher._finishedCount
00000e78 S _OBJC_IVAR_$_SDWebImagePrefetcher._manager
00000e7c S _OBJC_IVAR_$_SDWebImagePrefetcher._options
00000e94 S _OBJC_IVAR_$_SDWebImagePrefetcher._prefetchURLs
00000e90 S _OBJC_IVAR_$_SDWebImagePrefetcher._requestedCount
00000e8c S _OBJC_IVAR_$_SDWebImagePrefetcher._skippedCount
00000e84 S _OBJC_IVAR_$_SDWebImagePrefetcher._startedTime
         U _OBJC_METACLASS_$_NSObject
00000e5c S _OBJC_METACLASS_$_SDWebImagePrefetcher
00001200 b __MergedGlobals
         U __NSConcreteStackBlock
00000068 t ___45+[SDWebImagePrefetcher sharedImagePrefetcher]_block_invoke
0000033c t ___48-[SDWebImagePrefetcher startPrefetchingAtIndex:]_block_invoke
         U ___CFConstantStringClassReference
00000e10 s ___block_descriptor_tmp
00000e30 s ___block_descriptor_tmp46
00000098 t ___copy_helper_block_
0000053c t ___copy_helper_block_42
0000009c t ___destroy_helper_block_
00000544 t ___destroy_helper_block_43
         U __objc_empty_cache
         U __objc_empty_vtable
         U _dispatch_once
         U _objc_getProperty
         U _objc_msgSend
         U _objc_msgSendSuper2
         U _objc_release
         U _objc_retain
         U _objc_retainAutoreleaseReturnValue
         U _objc_retainAutoreleasedReturnValue
         U _objc_setProperty
         U _objc_storeStrong
00000c26 s l_.str27
00000c3e s l_.str28
00000c70 s l_.str49
00000f60 s l_OBJC_$_CLASS_METHODS_SDWebImagePrefetcher
00000f9c s l_OBJC_$_INSTANCE_METHODS_SDWebImagePrefetcher
000010d0 s l_OBJC_$_INSTANCE_VARIABLES_SDWebImagePrefetcher
00001178 s l_OBJC_$_PROP_LIST_SDWebImagePrefetcher
000011c8 s l_OBJC_CLASS_RO_$_SDWebImagePrefetcher
00000f74 s l_OBJC_METACLASS_RO_$_SDWebImagePrefetcher

build/AppDeck/AppDeck.a(UIButton+WebCache.o) (for architecture armv7):
000007b8 t -[UIButton(WebCache) cancelCurrentImageLoad]
000003dc t -[UIButton(WebCache) setBackgroundImageWithURL:forState:]
00000488 t -[UIButton(WebCache) setBackgroundImageWithURL:forState:completed:]
00000408 t -[UIButton(WebCache) setBackgroundImageWithURL:forState:placeholderImage:]
000004c8 t -[UIButton(WebCache) setBackgroundImageWithURL:forState:placeholderImage:completed:]
00000448 t -[UIButton(WebCache) setBackgroundImageWithURL:forState:placeholderImage:options:]
0000051c t -[UIButton(WebCache) setBackgroundImageWithURL:forState:placeholderImage:options:completed:]
00000d00 s -[UIButton(WebCache) setBackgroundImageWithURL:forState:placeholderImage:options:completed:].eh
00000000 t -[UIButton(WebCache) setImageWithURL:forState:]
000000ac t -[UIButton(WebCache) setImageWithURL:forState:completed:]
0000002c t -[UIButton(WebCache) setImageWithURL:forState:placeholderImage:]
000000ec t -[UIButton(WebCache) setImageWithURL:forState:placeholderImage:completed:]
0000006c t -[UIButton(WebCache) setImageWithURL:forState:placeholderImage:options:]
00000140 t -[UIButton(WebCache) setImageWithURL:forState:placeholderImage:options:completed:]
00000ce8 s -[UIButton(WebCache) setImageWithURL:forState:placeholderImage:options:completed:].eh
00000ccc s EH_frame0
00000814 s GCC_except_table14
00000808 s GCC_except_table5
         U _OBJC_CLASS_$_SDWebImageManager
         U _OBJC_CLASS_$_UIButton
         U __Block_object_assign
         U __NSConcreteStackBlock
         U __Unwind_SjLj_Register
         U __Unwind_SjLj_Resume
         U __Unwind_SjLj_Unregister
0000032c t ___82-[UIButton(WebCache) setImageWithURL:forState:placeholderImage:options:completed:]_block_invoke
00000708 t ___92-[UIButton(WebCache) setBackgroundImageWithURL:forState:placeholderImage:options:completed:]_block_invoke
00000b50 s ___block_descriptor_tmp
00000b70 s ___block_descriptor_tmp16
000003a0 t ___copy_helper_block_
0000077c t ___copy_helper_block_13
000003c4 t ___destroy_helper_block_
000007a0 t ___destroy_helper_block_14
         U ___objc_personality_v0
         U _objc_copyWeak
         U _objc_destroyWeak
         U _objc_getAssociatedObject
         U _objc_initWeak
         U _objc_loadWeak
         U _objc_loadWeakRetained
         U _objc_msgSend
         U _objc_release
         U _objc_retain
         U _objc_retainAutoreleasedReturnValue
         U _objc_retainBlock
         U _objc_setAssociatedObject
00000d18 b _operationKey
00000bfc s l_OBJC_$_CATEGORY_INSTANCE_METHODS_UIButton_$_WebCache
00000ca0 s l_OBJC_$_CATEGORY_UIButton_$_WebCache

build/AppDeck/AppDeck.a(UIImage+GIF.o) (for architecture armv7):
0000022c t +[UIImage(GIF) sd_animatedGIFNamed:]
00000000 t +[UIImage(GIF) sd_animatedGIFWithData:]
000004d0 t -[UIImage(GIF) sd_animatedImageByScalingAndCroppingToSize:]
         U _CFRelease
         U _CGImageRelease
         U _CGImageSourceCopyPropertiesAtIndex
         U _CGImageSourceCreateImageAtIndex
         U _CGImageSourceCreateWithData
         U _CGImageSourceGetCount
         U _CGPointZero
         U _CGSizeZero
         U _OBJC_CLASS_$_NSBundle
         U _OBJC_CLASS_$_NSData
         U _OBJC_CLASS_$_NSMutableArray
         U _OBJC_CLASS_$_UIImage
         U _OBJC_CLASS_$_UIScreen
         U _UIGraphicsBeginImageContextWithOptions
         U _UIGraphicsEndImageContext
         U _UIGraphicsGetImageFromCurrentImageContext
         U ___CFConstantStringClassReference
         U ___stack_chk_fail
         U ___stack_chk_guard
         U _kCGImagePropertyGIFDelayTime
         U _kCGImagePropertyGIFDictionary
         U _objc_autoreleaseReturnValue
         U _objc_enumerationMutation
         U _objc_msgSend
         U _objc_msgSend_stret
         U _objc_release
         U _objc_retain
         U _objc_retainAutoreleasedReturnValue
00000a00 s l_.str
00000a04 s l_.str22
00000a60 s l_OBJC_$_CATEGORY_CLASS_METHODS_UIImage_$_GIF
00000a4c s l_OBJC_$_CATEGORY_INSTANCE_METHODS_UIImage_$_GIF
00000a80 s l_OBJC_$_CATEGORY_UIImage_$_GIF

build/AppDeck/AppDeck.a(UIImageView+WebCache.o) (for architecture armv7):
00000aa4 t -[UIImageView(WebCache) cancelCurrentImageLoad]
00000178 t -[UIImageView(WebCache) getFinalProgressImage:placeholderImage:]
00000000 t -[UIImageView(WebCache) setImageWithURL:]
000000a0 t -[UIImageView(WebCache) setImageWithURL:completed:]
00000024 t -[UIImageView(WebCache) setImageWithURL:placeholderImage:]
000000dc t -[UIImageView(WebCache) setImageWithURL:placeholderImage:completed:]
00000060 t -[UIImageView(WebCache) setImageWithURL:placeholderImage:options:]
00000128 t -[UIImageView(WebCache) setImageWithURL:placeholderImage:options:completed:]
00000388 t -[UIImageView(WebCache) setImageWithURL:placeholderImage:options:progress:completed:]
00000f10 s -[UIImageView(WebCache) setImageWithURL:placeholderImage:options:progress:completed:].eh
00000ef4 s EH_frame0
00000af4 s GCC_except_table7
         U _CGContextDrawImage
         U _CGContextRestoreGState
         U _CGContextSaveGState
         U _CGContextScaleCTM
         U _CGContextTranslateCTM
         U _OBJC_CLASS_$_SDWebImageManager
         U _OBJC_CLASS_$_UIImageView
         U _UIGraphicsBeginImageContext
         U _UIGraphicsEndImageContext
         U _UIGraphicsGetCurrentContext
         U _UIGraphicsGetImageFromCurrentImageContext
         U __Block_object_assign
         U __Block_object_dispose
         U __NSConcreteStackBlock
         U __Unwind_SjLj_Register
         U __Unwind_SjLj_Resume
         U __Unwind_SjLj_Unregister
000005cc t ___85-[UIImageView(WebCache) setImageWithURL:placeholderImage:options:progress:completed:]_block_invoke
000008b8 t ___85-[UIImageView(WebCache) setImageWithURL:placeholderImage:options:progress:completed:]_block_invoke21
00000748 t ___85-[UIImageView(WebCache) setImageWithURL:placeholderImage:options:progress:completed:]_block_invoke_2
0000094c t ___85-[UIImageView(WebCache) setImageWithURL:placeholderImage:options:progress:completed:]_block_invoke_222
000007dc t ___85-[UIImageView(WebCache) setImageWithURL:placeholderImage:options:progress:completed:]_block_invoke_3
00000d30 s ___block_descriptor_tmp
00000d50 s ___block_descriptor_tmp20
00000d70 s ___block_descriptor_tmp26
00000d90 s ___block_descriptor_tmp30
00000db0 s ___block_descriptor_tmp35
00000818 t ___copy_helper_block_
0000085c t ___copy_helper_block_17
0000099c t ___copy_helper_block_23
000009ec t ___copy_helper_block_27
00000a3c t ___copy_helper_block_31
0000083c t ___destroy_helper_block_
0000088c t ___destroy_helper_block_18
000009c8 t ___destroy_helper_block_24
00000a18 t ___destroy_helper_block_28
00000a78 t ___destroy_helper_block_32
         U ___objc_personality_v0
         U __dispatch_main_q
         U _dispatch_async
         U _dispatch_barrier_async
         U _dispatch_get_global_queue
         U _objc_autoreleaseReturnValue
         U _objc_copyWeak
         U _objc_destroyWeak
         U _objc_getAssociatedObject
         U _objc_initWeak
         U _objc_loadWeak
         U _objc_loadWeakRetained
         U _objc_msgSend
         U _objc_msgSend_stret
         U _objc_release
         U _objc_retain
         U _objc_retainAutoreleasedReturnValue
         U _objc_retainBlock
         U _objc_setAssociatedObject
00000f28 b _operationKey
00000e50 s l_OBJC_$_CATEGORY_INSTANCE_METHODS_UIImageView_$_WebCache
00000ec4 s l_OBJC_$_CATEGORY_UIImageView_$_WebCache

build/AppDeck/AppDeck.a(UIView+align.o) (for architecture armv7):
00000000 t -[UIView(align) align:]
         U _OBJC_CLASS_$_UIView
         U _objc_msgSend
         U _objc_msgSend_stret
         U _objc_release
         U _objc_retainAutoreleasedReturnValue
000001a4 s l_OBJC_$_CATEGORY_INSTANCE_METHODS_UIView_$_align
000001b8 s l_OBJC_$_CATEGORY_UIView_$_align

build/AppDeck/AppDeck.a(ImagePreload.o) (for architecture armv7):
00000310 t -[ImagePreload .cxx_destruct]
000002e8 t -[ImagePreload image]
00000000 t -[ImagePreload initWithURL:height:]
         U _OBJC_CLASS_$_AppDeck
00000564 S _OBJC_CLASS_$_ImagePreload
         U _OBJC_CLASS_$_NSObject
         U _OBJC_CLASS_$_NSURLConnection
         U _OBJC_CLASS_$_NSURLRequest
         U _OBJC_CLASS_$_UIImage
00000458 S _OBJC_IVAR_$_ImagePreload.image
00000550 S _OBJC_METACLASS_$_ImagePreload
         U _OBJC_METACLASS_$_NSObject
         U __NSConcreteStackBlock
00000100 t ___35-[ImagePreload initWithURL:height:]_block_invoke
00000490 s ___block_descriptor_tmp
000002b0 t ___copy_helper_block_
000002cc t ___destroy_helper_block_
         U __objc_empty_cache
         U __objc_empty_vtable
         U _dispatch_async
         U _objc_msgSend
         U _objc_release
         U _objc_retain
         U _objc_retainAutoreleaseReturnValue
         U _objc_retainAutoreleasedReturnValue
         U _objc_storeStrong
         U _usleep
000004d0 s l_OBJC_$_INSTANCE_METHODS_ImagePreload
000004fc s l_OBJC_$_INSTANCE_VARIABLES_ImagePreload
00000518 s l_OBJC_$_PROP_LIST_ImagePreload
00000528 s l_OBJC_CLASS_RO_$_ImagePreload
000004a8 s l_OBJC_METACLASS_RO_$_ImagePreload

build/AppDeck/AppDeck.a(UIScrollView+zoomToPoint.o) (for architecture armv7):
00000000 t -[UIScrollView(zoomToPoint) zoomToPoint:withScale:animated:]
         U _OBJC_CLASS_$_UIScrollView
         U _objc_msgSend
         U _objc_msgSend_stret
00000234 s l_OBJC_$_CATEGORY_INSTANCE_METHODS_UIScrollView_$_zoomToPoint
00000248 s l_OBJC_$_CATEGORY_UIScrollView_$_zoomToPoint

build/AppDeck/AppDeck.a(GAI.o) (for architecture armv7):
         U _GAIInstallUncaughtExceptionHandler
00002790 S _GAILogDebug
         U _GAIUninstallUncaughtExceptionHandler
         U _NSLog
         U _NSSearchPathForDirectoriesInDomains
000025f4 S _OBJC_CLASS_$_GAI
         U _OBJC_CLASS_$_GAIDispatcher
         U _OBJC_CLASS_$_GAIStringUtil
         U _OBJC_CLASS_$_GAITrackerImpl
         U _OBJC_CLASS_$_NSBundle
         U _OBJC_CLASS_$_NSMutableDictionary
         U _OBJC_CLASS_$_NSObject
00002784 S _OBJC_IVAR_$_GAI.adMobInfo_
00002774 S _OBJC_IVAR_$_GAI.defaultTracker_
00002778 S _OBJC_IVAR_$_GAI.dispatcher_
0000278c S _OBJC_IVAR_$_GAI.optOut_
0000277c S _OBJC_IVAR_$_GAI.trackUncaughtExceptions_
00002788 S _OBJC_IVAR_$_GAI.trackerImplClass_
00002780 S _OBJC_IVAR_$_GAI.trackers_
00002608 S _OBJC_METACLASS_$_GAI
         U _OBJC_METACLASS_$_NSObject
         U __Unwind_SjLj_Register
         U __Unwind_SjLj_Resume
         U __Unwind_SjLj_Unregister
         U ___CFConstantStringClassReference
         U ___objc_personality_v0
         U __objc_empty_cache
         U __objc_empty_vtable
         U _kCFBundleIdentifierKey
         U _kCFBundleNameKey
0000275c S _kGAIAdClientId
00002760 S _kGAIAdHitId
00002764 S _kGAIAdPropertyId
00002770 S _kGAIErrorDomain
00002768 S _kGAIProduct
0000276c S _kGAIVersion
         U _objc_msgSend
         U _objc_msgSendSuper2
         U _objc_setProperty
         U _objc_sync_enter
         U _objc_sync_exit
00000000 t l001
00000024 t l002
00000048 t l003
000001a4 t l004
000002fc t l005
00000458 t l006
000005c8 t l007
0000072c t l008
00000750 t l009
00000818 t l010
00000878 t l011
00000910 t l012
00000a2c t l013
00000b10 t l014
00000bf8 t l015
00000bfc t l016
00000c04 t l017
00000c08 t l018
00000c0c t l019
00000c10 t l020
00000fa4 t l021
00000fb4 t l022
00000fc4 t l023
00001118 t l024
0000113c t l025
0000129c t l026
000013d4 t l027
00001500 t l028
000015e4 t l029
00001608 t l030
00001618 t l031
0000163c t l032
0000164c t l033
00001670 t l034
00001680 t l035
00001690 s l036
0000169c s l037
000016a8 s l038
000016b4 s l039
000016c0 s l040
000016cc s l041
000016d4 s l042
000016dc s l043
000016e4 s l044
0000170c s l045
00001718 s l046
00001728 s l047
00001734 s l048
00001740 s l049
00002250 s l050
0000227c s l051
000022a4 s l052
0000242c s l053
000024c0 s l054
00002510 s l055
00002794 b l056

build/AppDeck/AppDeck.a(GAITransaction.o) (for architecture armv7):
         U _NSLog
00000b98 S _OBJC_CLASS_$_GAITransaction
         U _OBJC_CLASS_$_GAITransactionItem
         U _OBJC_CLASS_$_NSMutableDictionary
         U _OBJC_CLASS_$_NSObject
00000bc4 S _OBJC_IVAR_$_GAITransaction.affiliation_
00000bc8 S _OBJC_IVAR_$_GAITransaction.currencyCode_
00000bd8 S _OBJC_IVAR_$_GAITransaction.mutableItems_
00000bcc S _OBJC_IVAR_$_GAITransaction.revenueMicros_
00000bd4 S _OBJC_IVAR_$_GAITransaction.shippingMicros_
00000bd0 S _OBJC_IVAR_$_GAITransaction.taxMicros_
00000bc0 S _OBJC_IVAR_$_GAITransaction.transactionId_
00000bac S _OBJC_METACLASS_$_GAITransaction
         U _OBJC_METACLASS_$_NSObject
         U ___CFConstantStringClassReference
         U __objc_empty_cache
         U __objc_empty_vtable
         U _kGAIProduct
         U _kGAIVersion
         U _objc_getProperty
         U _objc_msgSend
         U _objc_msgSendSuper2
         U _objc_setProperty
00000000 t l001
0000005c t l002
00000150 t l003
000001dc t l004
00000228 t l005
000002d0 t l006
00000328 t l007
0000034c t l008
00000364 t l009
0000037c t l010
00000394 t l011
000003a8 t l012
000003c0 t l013
000003d4 t l014
000003ec t l015
00000400 t l016
00000418 t l017
0000043c t l018
0000044c t l019
00000930 s l020
00000944 s l021
0000096c s l022
00000a4c s l023
00000ae0 s l024
00000b28 s l025

build/AppDeck/AppDeck.a(GAITransactionItem.o) (for architecture armv7):
         U _NSLog
00000998 S _OBJC_CLASS_$_GAITransactionItem
         U _OBJC_CLASS_$_NSObject
000009cc S _OBJC_IVAR_$_GAITransactionItem.priceMicros_
000009c8 S _OBJC_IVAR_$_GAITransactionItem.productCategory_
000009c0 S _OBJC_IVAR_$_GAITransactionItem.productCode_
000009c4 S _OBJC_IVAR_$_GAITransactionItem.productName_
000009d0 S _OBJC_IVAR_$_GAITransactionItem.quantity_
000009ac S _OBJC_METACLASS_$_GAITransactionItem
         U _OBJC_METACLASS_$_NSObject
         U ___CFConstantStringClassReference
         U __objc_empty_cache
         U __objc_empty_vtable
         U _kGAIProduct
         U _kGAIVersion
         U _objc_getProperty
         U _objc_msgSend
         U _objc_msgSendSuper2
         U _objc_setProperty
00000000 t l001
00000078 t l002
000000d4 t l003
00000190 t l004
000002cc t l005
000002e4 t l006
000002fc t l007
00000320 t l008
00000338 t l009
0000035c t l010
00000374 t l011
00000388 t l012
00000398 t l013
000007d0 s l014
000007e4 s l015
0000080c s l016
000008a4 s l017
00000910 s l018
00000940 s l019

build/AppDeck/AppDeck.a(GAITrackerImpl.o) (for architecture armv7):
         U _GAILogDebug
         U _NSLog
         U _OBJC_CLASS_$_GAI
         U _OBJC_CLASS_$_GAIExceptionParser
         U _OBJC_CLASS_$_GAIHitBuilder
         U _OBJC_CLASS_$_GAIStringUtil
00006af4 S _OBJC_CLASS_$_GAITrackerImpl
         U _OBJC_CLASS_$_GAITrackerState
         U _OBJC_CLASS_$_NSDate
         U _OBJC_CLASS_$_NSMutableArray
         U _OBJC_CLASS_$_NSNotificationCenter
         U _OBJC_CLASS_$_NSNumber
         U _OBJC_CLASS_$_NSObject
         U _OBJC_CLASS_$_NSString
         U _OBJC_CLASS_$_UIApplication
00006b2c S _OBJC_IVAR_$_GAITrackerImpl.adSdkPresent_
00006b28 S _OBJC_IVAR_$_GAITrackerImpl.dispatcher_
00006b20 S _OBJC_IVAR_$_GAITrackerImpl.hitCount_
00006b34 S _OBJC_IVAR_$_GAITrackerImpl.lastActiveTime_
00006b3c S _OBJC_IVAR_$_GAITrackerImpl.lastTrackTime_
00006b24 S _OBJC_IVAR_$_GAITrackerImpl.sessionTimeout_
00006b30 S _OBJC_IVAR_$_GAITrackerImpl.trackCount_
00006b1c S _OBJC_IVAR_$_GAITrackerImpl.trackerState_
00006b38 S _OBJC_IVAR_$_GAITrackerImpl.trackingCredits_
00006b08 S _OBJC_METACLASS_$_GAITrackerImpl
         U _OBJC_METACLASS_$_NSObject
         U _UIApplicationDidBecomeActiveNotification
         U _UIApplicationWillResignActiveNotification
         U __Unwind_SjLj_Register
         U __Unwind_SjLj_Resume
         U __Unwind_SjLj_Unregister
         U ___CFConstantStringClassReference
         U ___objc_personality_v0
         U ___stack_chk_fail
         U ___stack_chk_guard
         U __objc_empty_cache
         U __objc_empty_vtable
         U _arc4random
         U _kGAIHitFormatEventHitType
         U _kGAIHitFormatExceptionHitType
         U _kGAIHitFormatItemHitType
         U _kGAIHitFormatSessionStart
         U _kGAIHitFormatSocialHitType
         U _kGAIHitFormatTimingHitType
         U _kGAIHitFormatTransactionHitType
         U _kGAIHitFormatViewHitType
         U _kGAIProduct
         U _kGAIVersion
         U _objc_enumerationMutation
         U _objc_getClass
         U _objc_msgSend
         U _objc_msgSendSuper2
         U _objc_setProperty
         U _objc_sync_enter
         U _objc_sync_exit
00000000 t l001
000000c8 t l002
00000190 t l003
00000258 t l004
00000320 t l005
000003e8 t l006
000004b0 t l007
00000578 t l008
00000640 t l009
0000070c t l010
000007d8 t l011
000008a0 t l012
00000968 t l013
00000b1c t l014
00000be4 t l015
00000cac t l016
00000d74 t l017
00000eb4 t l018
00000ed8 t l019
00000fa0 t l020
000010cc t l021
00001194 t l022
0000125c t l023
00001324 t l024
000013ec t l025
000014d8 t l026
000015b4 t l027
000015e4 t l028
0000160c t l029
00001668 t l030
000019a0 t l031
00001a30 t l032
00001a88 t l033
00001af0 t l034
00001b14 t l035
00001bb0 t l036
00001c80 t l037
00001c98 t l038
00001fa8 t l039
00001fc0 t l040
000020f8 t l041
0000211c t l042
000023cc t l043
000023e4 t l044
000028fc t l045
00002974 t l046
00002c58 t l047
00002c70 t l048
00002cb0 t l049
00002cc8 t l050
00002d64 t l051
00002d98 t l052
00003040 t l053
00003064 t l054
00003424 t l055
0000357c t l056
000036d0 t l057
000039d8 t l058
00003c70 t l059
00003f6c t l060
00004120 t l061
00004250 t l062
00004328 t l063
00004338 t l064
0000435c t l065
0000436c t l066
00004390 t l067
000043a0 t l068
000043b0 t l069
000043c8 t l070
000043dc t l071
000043f4 t l072
00004408 t l073
00004420 t l074
00004434 t l075
0000444c t l076
00004460 t l077
00004478 t l078
0000448c s l079
00004494 s l080
0000449c s l081
000044a4 s l082
000044ac s l083
000044b4 s l084
000044bc s l085
000044c4 s l086
000044cc s l087
000044d4 s l088
000044dc s l089
000044e4 s l090
000044ec s l091
000044f8 s l092
00004500 s l093
00004508 s l094
00004510 s l095
0000451c s l096
00004524 s l097
0000452c s l098
00004534 s l099
0000453c s l100
00004544 s l101
0000454c s l102
00004554 s l103
0000455c s l104
0000457c s l105
00004584 s l106
000045a0 s l107
000045d8 s l108
000045f8 s l109
00004610 s l110
00004628 s l111
00004634 s l112
00004640 s l113
0000465c s l114
00004668 s l115
00004674 s l116
00004688 s l117
00004690 s l118
00005ee0 s l119
00005ef4 s l120
00005fe0 s l121
00005ff8 s l122
00006048 s l123
00006054 s l124
000062a0 s l125
00006310 s l126
000063d0 s l127
000063dc s l128
00006404 s l129
000067a8 s l130
00006868 s l131
00006918 s l132
00005ed0 S l_OBJC_LABEL_PROTOCOL_$_GAITracker
00005ecc S l_OBJC_LABEL_PROTOCOL_$_NSObject
00006cfc S l_OBJC_PROTOCOL_$_GAITracker
00006cd0 S l_OBJC_PROTOCOL_$_NSObject

build/AppDeck/AppDeck.a(GAIDataStore.o) (for architecture armv7):
         U _GAILogDebug
         U _NSInMemoryStoreType
         U _NSLog
         U _NSSQLiteErrorDomain
         U _NSSQLiteStoreType
00003980 S _OBJC_CLASS_$_GAIDataStore
         U _OBJC_CLASS_$_GAIHit
         U _OBJC_CLASS_$_GAIProperty
         U _OBJC_CLASS_$_NSArray
         U _OBJC_CLASS_$_NSError
         U _OBJC_CLASS_$_NSFetchRequest
         U _OBJC_CLASS_$_NSManagedObjectContext
         U _OBJC_CLASS_$_NSManagedObjectModel
         U _OBJC_CLASS_$_NSMutableDictionary
         U _OBJC_CLASS_$_NSObject
         U _OBJC_CLASS_$_NSPersistentStoreCoordinator
         U _OBJC_CLASS_$_NSPredicate
         U _OBJC_CLASS_$_NSSortDescriptor
         U _OBJC_CLASS_$_NSThread
         U _OBJC_CLASS_$_NSURL
         U _OBJC_CLASS_$_NSValue
         U _OBJC_EHTYPE_$_NSException
00003b18 S _OBJC_IVAR_$_GAIDataStore.contexts_
00003b1c S _OBJC_IVAR_$_GAIDataStore.coordinator_
00003b28 S _OBJC_IVAR_$_GAIDataStore.hitEntity_
00003b20 S _OBJC_IVAR_$_GAIDataStore.model_
00003b2c S _OBJC_IVAR_$_GAIDataStore.path_
00003b24 S _OBJC_IVAR_$_GAIDataStore.propertyEntity_
00003994 S _OBJC_METACLASS_$_GAIDataStore
         U _OBJC_METACLASS_$_NSObject
         U __Unwind_SjLj_Register
         U __Unwind_SjLj_Resume
         U __Unwind_SjLj_Unregister
         U ___CFConstantStringClassReference
         U ___objc_personality_v0
         U ___stack_chk_fail
         U ___stack_chk_guard
         U __objc_empty_cache
         U __objc_empty_vtable
         U _kGAIProduct
         U _kGAIVersion
         U _objc_begin_catch
         U _objc_end_catch
         U _objc_enumerationMutation
         U _objc_getProperty
         U _objc_msgSend
         U _objc_msgSendSuper2
         U _objc_setProperty
00000000 t l001
0000005c t l002
00000110 t l003
000004a0 t l004
0000061c t l005
00000778 t l006
00000954 t l007
00000bf8 t l008
00000c5c t l009
00000cbc t l010
00000ce4 t l011
00000ff0 t l012
00001210 t l013
00001238 t l014
00001760 t l015
000019f0 t l016
00001b2c t l017
00001d48 t l018
0000219c t l019
000021c4 t l020
000021ec t l021
00002330 t l022
000024fc t l023
00002514 t l024
00002538 t l025
00002548 t l026
0000256c t l027
0000257c t l028
000025a0 t l029
000025b0 t l030
000025d4 t l031
000025e4 t l032
00002608 t l033
00002618 t l034
0000263c s l035
00002664 s l036
00002684 s l037
0000269c s l038
000026bc s l039
000026e8 s l040
00002700 s l041
00002714 s l042
00002728 s l043
00002758 s l044
0000276c s l045
000035d0 s l046
000035f0 s l047
00003618 s l048
000037a0 s l049
00003820 s l050
00003858 s l051

build/AppDeck/AppDeck.a(GAIHit.o) (for architecture armv7):
         U _NSLog
         U _OBJC_CLASS_$_GAICoreDataUtil
00000854 S _OBJC_CLASS_$_GAIHit
         U _OBJC_CLASS_$_NSArray
         U _OBJC_CLASS_$_NSEntityDescription
         U _OBJC_CLASS_$_NSKeyedArchiver
         U _OBJC_CLASS_$_NSKeyedUnarchiver
         U _OBJC_CLASS_$_NSManagedObject
         U _OBJC_EHTYPE_$_NSException
00000840 S _OBJC_METACLASS_$_GAIHit
         U _OBJC_METACLASS_$_NSManagedObject
         U _OBJC_METACLASS_$_NSObject
         U __Unwind_SjLj_Register
         U __Unwind_SjLj_Resume
         U __Unwind_SjLj_Unregister
         U ___CFConstantStringClassReference
         U ___objc_personality_v0
         U __objc_empty_cache
         U __objc_empty_vtable
         U _kGAIProduct
         U _kGAIVersion
         U _objc_begin_catch
         U _objc_end_catch
         U _objc_msgSend
00000000 t l001
00000164 t l002
000002c8 t l003
00000448 s l004
0000045c s l005
00000740 s l006
00000754 s l007
0000077c s l008
000007a0 s l009
000007d0 s l010

build/AppDeck/AppDeck.a(GAIError.o) (for architecture armv7):
         U _NSFilePathErrorKey
         U _NSLocalizedDescriptionKey
         U _NSUnderlyingErrorKey
00000670 S _OBJC_CLASS_$_GAIError
         U _OBJC_CLASS_$_NSDictionary
         U _OBJC_CLASS_$_NSError
         U _OBJC_CLASS_$_NSObject
         U _OBJC_CLASS_$_NSString
00000684 S _OBJC_METACLASS_$_GAIError
         U _OBJC_METACLASS_$_NSObject
         U __objc_empty_cache
         U __objc_empty_vtable
         U _kGAIErrorDomain
         U _objc_msgSend
         U _objc_msgSendSuper2
00000000 t l001
0000005c t l002
00000098 t l003
00000108 t l004
0000017c t l005
00000208 t l006
00000280 t l007
0000030c t l008
00000570 s l009
000005cc s l010
000005f4 s l011
00000608 s l012

build/AppDeck/AppDeck.a(GAIProperty.o) (for architecture armv7):
         U _OBJC_CLASS_$_GAICoreDataUtil
00000340 S _OBJC_CLASS_$_GAIProperty
         U _OBJC_CLASS_$_NSArray
         U _OBJC_CLASS_$_NSEntityDescription
         U _OBJC_CLASS_$_NSManagedObject
0000032c S _OBJC_METACLASS_$_GAIProperty
         U _OBJC_METACLASS_$_NSManagedObject
         U _OBJC_METACLASS_$_NSObject
         U ___CFConstantStringClassReference
         U __objc_empty_cache
         U __objc_empty_vtable
         U _objc_msgSend
00000000 t l001
00000270 s l002
00000284 s l003
000002b0 s l004
000002d8 s l005

build/AppDeck/AppDeck.a(GAIHitFormat.o) (for architecture armv7):
00000fc0 S _OBJC_CLASS_$_GAIHitFormat
         U _OBJC_CLASS_$_GAIMetaInfo
         U _OBJC_CLASS_$_NSMutableDictionary
         U _OBJC_CLASS_$_NSObject
00000fac S _OBJC_METACLASS_$_GAIHitFormat
         U _OBJC_METACLASS_$_NSObject
         U __NSConcreteGlobalBlock
         U ___CFConstantStringClassReference
         U ___stack_chk_fail
         U ___stack_chk_guard
         U __objc_empty_cache
         U __objc_empty_vtable
         U _dispatch_once
00001840 S _kGAIHitFormatAdSenseAdMobHitId
00001808 S _kGAIHitFormatAnonymizeIp
00001850 S _kGAIHitFormatAppId
00001854 S _kGAIHitFormatAppInstallerId
00001848 S _kGAIHitFormatAppName
0000184c S _kGAIHitFormatAppVersion
00001810 S _kGAIHitFormatCacheBuster
00001884 S _kGAIHitFormatCampaignContent
00001888 S _kGAIHitFormatCampaignId
00001880 S _kGAIHitFormatCampaignKeyword
00001878 S _kGAIHitFormatCampaignMedium
0000187c S _kGAIHitFormatCampaignName
00001874 S _kGAIHitFormatCampaignSource
000017fc S _kGAIHitFormatClientId
00001800 S _kGAIHitFormatClientVersion
000018e0 S _kGAIHitFormatClientVersionString
000018e4 S _kGAIHitFormatContentType
00001890 S _kGAIHitFormatDclid
00001824 S _kGAIHitFormatEncoding
0000185c S _kGAIHitFormatEventAction
00001858 S _kGAIHitFormatEventCategory
00001900 S _kGAIHitFormatEventHitType
00001860 S _kGAIHitFormatEventLabel
00001864 S _kGAIHitFormatEventValue
000018c4 S _kGAIHitFormatExceptionDescription
000018c8 S _kGAIHitFormatExceptionFatal
00001910 S _kGAIHitFormatExceptionHitType
000018ec S _kGAIHitFormatFalse
0000188c S _kGAIHitFormatGclid
00001894 S _kGAIHitFormatGmob_t
00001814 S _kGAIHitFormatHitTime
00001834 S _kGAIHitFormatHitType
0000191c S _kGAIHitFormatHttpUrl
00001918 S _kGAIHitFormatHttpsUrl
000018c0 S _kGAIHitFormatItemCategory
000018b4 S _kGAIHitFormatItemCode
0000190c S _kGAIHitFormatItemHitType
000018b0 S _kGAIHitFormatItemName
000018b8 S _kGAIHitFormatItemPrice
000018bc S _kGAIHitFormatItemQuantity
00001828 S _kGAIHitFormatLanguage
00001844 S _kGAIHitFormatNonInteraction
0000180c S _kGAIHitFormatQueueTime
0000183c S _kGAIHitFormatReferrer
00001804 S _kGAIHitFormatReserved
00001820 S _kGAIHitFormatSampleRate
00001838 S _kGAIHitFormatScreen
00001830 S _kGAIHitFormatScreenColors
0000182c S _kGAIHitFormatScreenResolution
0000181c S _kGAIHitFormatSessionControl
000018f4 S _kGAIHitFormatSessionStart
000018f8 S _kGAIHitFormatSessionStop
00001868 S _kGAIHitFormatSocialAction
00001904 S _kGAIHitFormatSocialHitType
0000186c S _kGAIHitFormatSocialNetwork
00001870 S _kGAIHitFormatSocialTarget
000018d0 S _kGAIHitFormatTimingCategory
00001914 S _kGAIHitFormatTimingHitType
000018d4 S _kGAIHitFormatTimingLabel
000018d8 S _kGAIHitFormatTimingValue
000018cc S _kGAIHitFormatTimingVariable
000017f8 S _kGAIHitFormatTrackingId
0000189c S _kGAIHitFormatTransactionAffiliation
000018ac S _kGAIHitFormatTransactionCurrencyCode
00001908 S _kGAIHitFormatTransactionHitType
00001898 S _kGAIHitFormatTransactionId
000018a0 S _kGAIHitFormatTransactionRevenue
000018a4 S _kGAIHitFormatTransactionShipping
000018a8 S _kGAIHitFormatTransactionTax
000018f0 S _kGAIHitFormatTrue
000018e8 S _kGAIHitFormatUTF8CharSet
000017f4 S _kGAIHitFormatVersion
000018dc S _kGAIHitFormatVersionString
000018fc S _kGAIHitFormatViewHitType
00001818 S _kGAIHitFormatX10Data
         U _objc_msgSend
00000000 t l001
00000034 t l002
00000980 t l003
000009a8 t l004
00000f04 s l005
00000f30 s l006
00000f58 s l007
00001920 s l008
00001930 s l009
00001944 b l010

build/AppDeck/AppDeck.a(GAIClientId.o) (for architecture armv7):
         U _CFRelease
         U _CFUUIDCreate
         U _CFUUIDCreateString
0000018c S _OBJC_CLASS_$_GAIClientId
         U _OBJC_CLASS_$_NSObject
000001a0 S _OBJC_METACLASS_$_GAIClientId
         U _OBJC_METACLASS_$_NSObject
         U __objc_empty_cache
         U __objc_empty_vtable
         U _objc_msgSend
         U _objc_msgSendSuper2
00000000 t l001
0000005c t l002
00000100 s l003
00000114 s l004
0000013c s l005
00000150 s l006

build/AppDeck/AppDeck.a(GAICoreDataUtil.o) (for architecture armv7):
00000270 S _OBJC_CLASS_$_GAICoreDataUtil
         U _OBJC_CLASS_$_NSAttributeDescription
         U _OBJC_CLASS_$_NSObject
00000284 S _OBJC_METACLASS_$_GAICoreDataUtil
         U _OBJC_METACLASS_$_NSObject
         U __objc_empty_cache
         U __objc_empty_vtable
         U _objc_msgSend
         U _objc_msgSendSuper2
00000000 t l001
0000005c t l002
000001cc s l003
000001e0 s l004
00000208 s l005
0000021c s l006

build/AppDeck/AppDeck.a(GAIHitBuilder.o) (for architecture armv7):
         U _GAILogDebug
         U _NSLog
000008a8 S _OBJC_CLASS_$_GAIHitBuilder
         U _OBJC_CLASS_$_GAIHitUtil
         U _OBJC_CLASS_$_NSMutableArray
         U _OBJC_CLASS_$_NSObject
00000894 S _OBJC_METACLASS_$_GAIHitBuilder
         U _OBJC_METACLASS_$_NSObject
         U ___CFConstantStringClassReference
         U __objc_empty_cache
         U __objc_empty_vtable
         U _kGAIHitFormatAppName
         U _kGAIHitFormatClientId
         U _kGAIHitFormatEventHitType
         U _kGAIHitFormatExceptionHitType
         U _kGAIHitFormatHitType
         U _kGAIHitFormatItemHitType
         U _kGAIHitFormatItemName
         U _kGAIHitFormatLanguage
         U _kGAIHitFormatScreen
         U _kGAIHitFormatScreenResolution
         U _kGAIHitFormatSocialAction
         U _kGAIHitFormatSocialHitType
         U _kGAIHitFormatSocialNetwork
         U _kGAIHitFormatTimingHitType
         U _kGAIHitFormatTrackingId
         U _kGAIHitFormatTransactionHitType
         U _kGAIHitFormatTransactionId
         U _kGAIHitFormatVersion
         U _kGAIHitFormatViewHitType
         U _kGAIProduct
         U _kGAIVersion
         U _objc_msgSend
00000000 t l001
000000f8 t l002
00000374 t l003
000007c8 s l004
000007f4 s l005
0000081c s l006

build/AppDeck/AppDeck.a(GAIHitUtil.o) (for architecture armv7):
         U _NSLocaleCountryCode
0000077c S _OBJC_CLASS_$_GAIHitUtil
         U _OBJC_CLASS_$_NSLocale
         U _OBJC_CLASS_$_NSObject
         U _OBJC_CLASS_$_NSString
         U _OBJC_CLASS_$_UIDevice
         U _OBJC_CLASS_$_UIScreen
00000790 S _OBJC_METACLASS_$_GAIHitUtil
         U _OBJC_METACLASS_$_NSObject
         U ___CFConstantStringClassReference
         U ___fixdfdi
         U __objc_empty_cache
         U __objc_empty_vtable
         U _kGAIProduct
         U _kGAIVersion
         U _objc_msgSend
         U _objc_msgSendSuper2
         U _objc_msgSend_stret
00000000 t l001
0000005c t l002
000000c4 t l003
000000fc t l004
00000150 t l005
00000228 t l006
0000026c t l007
000002b0 t l008
00000340 t l009
00000350 t l010
00000630 s l011
000006a4 s l012
000006cc s l013
000006e0 s l014

build/AppDeck/AppDeck.a(GAIRequestBuilder.o) (for architecture armv7):
         U _OBJC_CLASS_$_GAIHitFormat
         U _OBJC_CLASS_$_GAIHitUtil
00000bc4 S _OBJC_CLASS_$_GAIRequestBuilder
         U _OBJC_CLASS_$_GAIStringUtil
         U _OBJC_CLASS_$_NSDate
         U _OBJC_CLASS_$_NSMutableArray
         U _OBJC_CLASS_$_NSMutableURLRequest
         U _OBJC_CLASS_$_NSObject
         U _OBJC_CLASS_$_NSString
         U _OBJC_CLASS_$_NSURL
00000c7c S _OBJC_IVAR_$_GAIRequestBuilder.userAgent_
00000bd8 S _OBJC_METACLASS_$_GAIRequestBuilder
         U _OBJC_METACLASS_$_NSObject
         U ___CFConstantStringClassReference
         U ___fixdfdi
         U ___stack_chk_fail
         U ___stack_chk_guard
         U __objc_empty_cache
         U __objc_empty_vtable
         U _kGAIHitFormatCacheBuster
         U _kGAIHitFormatContentType
         U _kGAIHitFormatHitTime
         U _kGAIHitFormatQueueTime
         U _kGAIHitFormatUTF8CharSet
         U _objc_enumerationMutation
         U _objc_getProperty
         U _objc_msgSend
         U _objc_msgSendSuper2
         U _objc_setProperty
00000000 t l001
0000006c t l002
000000b8 t l003
00000128 t l004
000002c0 t l005
000006d0 t l006
000006e8 t l007
00000a38 s l008
00000a60 s l009
00000abc s l010
00000ad8 s l011
00000ae8 s l012

build/AppDeck/AppDeck.a(GAITrackerState.o) (for architecture armv7):
         U _NSLog
         U _OBJC_CLASS_$_GAIHitMetaModel
         U _OBJC_CLASS_$_GAIHitUtil
         U _OBJC_CLASS_$_GAIModel
         U _OBJC_CLASS_$_GAIStringUtil
00002768 S _OBJC_CLASS_$_GAITrackerState
         U _OBJC_CLASS_$_NSObject
         U _OBJC_CLASS_$_NSString
         U _OBJC_CLASS_$_NSURL
000027ac S _OBJC_IVAR_$_GAITrackerState.campaignUrl_
0000279c S _OBJC_IVAR_$_GAITrackerState.httpDispatchUrl_
000027a0 S _OBJC_IVAR_$_GAITrackerState.httpsDispatchUrl_
00002790 S _OBJC_IVAR_$_GAITrackerState.model_
000027a8 S _OBJC_IVAR_$_GAITrackerState.referrerUrl_
00002794 S _OBJC_IVAR_$_GAITrackerState.sampleRate_
00002798 S _OBJC_IVAR_$_GAITrackerState.sampled_
000027a4 S _OBJC_IVAR_$_GAITrackerState.useHttps_
0000277c S _OBJC_METACLASS_$_GAITrackerState
         U _OBJC_METACLASS_$_NSObject
         U ___CFConstantStringClassReference
         U ___fixdfdi
         U __objc_empty_cache
         U __objc_empty_vtable
         U _kGAICampaignAdmobTicketId
         U _kGAICampaignContent
         U _kGAICampaignDfaClickId
         U _kGAICampaignGoogleClickId
         U _kGAICampaignMedium
         U _kGAICampaignName
         U _kGAICampaignSource
         U _kGAICampaignTerm
         U _kGAIHitFormatAdSenseAdMobHitId
         U _kGAIHitFormatAnonymizeIp
         U _kGAIHitFormatAppId
         U _kGAIHitFormatAppName
         U _kGAIHitFormatAppVersion
         U _kGAIHitFormatCampaignContent
         U _kGAIHitFormatCampaignKeyword
         U _kGAIHitFormatCampaignMedium
         U _kGAIHitFormatCampaignName
         U _kGAIHitFormatCampaignSource
         U _kGAIHitFormatClientId
         U _kGAIHitFormatClientVersion
         U _kGAIHitFormatClientVersionString
         U _kGAIHitFormatDclid
         U _kGAIHitFormatEventAction
         U _kGAIHitFormatEventCategory
         U _kGAIHitFormatEventLabel
         U _kGAIHitFormatEventValue
         U _kGAIHitFormatExceptionDescription
         U _kGAIHitFormatExceptionFatal
         U _kGAIHitFormatGclid
         U _kGAIHitFormatGmob_t
         U _kGAIHitFormatHttpUrl
         U _kGAIHitFormatHttpsUrl
         U _kGAIHitFormatItemCategory
         U _kGAIHitFormatItemCode
         U _kGAIHitFormatItemName
         U _kGAIHitFormatItemPrice
         U _kGAIHitFormatItemQuantity
         U _kGAIHitFormatReferrer
         U _kGAIHitFormatSampleRate
         U _kGAIHitFormatScreen
         U _kGAIHitFormatScreenColors
         U _kGAIHitFormatSessionControl
         U _kGAIHitFormatSocialAction
         U _kGAIHitFormatSocialNetwork
         U _kGAIHitFormatSocialTarget
         U _kGAIHitFormatTimingCategory
         U _kGAIHitFormatTimingLabel
         U _kGAIHitFormatTimingValue
         U _kGAIHitFormatTimingVariable
         U _kGAIHitFormatTrackingId
         U _kGAIHitFormatTransactionAffiliation
         U _kGAIHitFormatTransactionId
         U _kGAIHitFormatTransactionRevenue
         U _kGAIHitFormatTransactionShipping
         U _kGAIHitFormatTransactionTax
         U _kGAIHitFormatVersion
         U _kGAIHitFormatVersionString
         U _kGAIProduct
         U _kGAIVersion
         U _objc_getProperty
         U _objc_msgSend
         U _objc_msgSendSuper2
         U _objc_setProperty
00000000 t l001
00000044 t l002
0000009c t l003
000000d0 t l004
00000104 t l005
00000138 t l006
00000170 t l007
000001a4 t l008
000001dc t l009
00000210 t l010
00000248 t l011
0000027c t l012
000002b4 t l013
000002e8 t l014
00000320 t l015
00000354 t l016
0000038c t l017
000003a8 t l018
00000580 t l019
000006b8 t l020
000007f0 t l021
00000820 t l022
00000830 t l023
000008a4 t l024
000008b4 t l025
00000ae4 t l026
00000b40 t l027
00000d88 t l028
00000f1c t l029
00000fa8 t l030
0000107c t l031
0000122c t l032
0000140c t l033
000014a0 t l034
000015c0 t l035
0000165c t l036
0000166c t l037
00001690 t l038
000016a0 t l039
000016b0 t l040
000016c8 t l041
000016e0 t l042
000016f0 t l043
000022f0 s l044
00002304 s l045
0000232c s l046
0000252c s l047
000025d8 s l048
00002670 s l049

build/AppDeck/AppDeck.a(GAIStringUtil.o) (for architecture armv7):
         U _CFRelease
         U _CFURLCreateStringByAddingPercentEscapes
00000af0 S _OBJC_CLASS_$_GAIStringUtil
         U _OBJC_CLASS_$_NSCharacterSet
         U _OBJC_CLASS_$_NSDictionary
         U _OBJC_CLASS_$_NSMutableDictionary
         U _OBJC_CLASS_$_NSObject
         U _OBJC_CLASS_$_NSString
         U _OBJC_CLASS_$_NSURL
00000b04 S _OBJC_METACLASS_$_GAIStringUtil
         U _OBJC_METACLASS_$_NSObject
         U ___CFConstantStringClassReference
         U ___divdi3
         U ___moddi3
         U ___stack_chk_fail
         U ___stack_chk_guard
         U __objc_empty_cache
         U __objc_empty_vtable
         U _kCFAllocatorSystemDefault
         U _objc_enumerationMutation
         U _objc_msgSend
         U _objc_msgSendSuper2
         U _objc_msgSend_stret
00000000 t l001
0000005c t l002
00000094 t l003
000000cc t l004
00000104 t l005
000001d4 t l006
00000374 t l007
000003dc t l008
0000041c t l009
000005e0 t l010
000006b0 s l011
000009a0 s l012
00000a14 s l013
00000a3c s l014
00000a50 s l015

build/AppDeck/AppDeck.a(GAICampaign.o) (for architecture armv7):
         U ___CFConstantStringClassReference
000000f0 S _kGAICampaignAdmobTicketId
000000e4 S _kGAICampaignContent
000000ec S _kGAICampaignDfaClickId
000000e8 S _kGAICampaignGoogleClickId
000000d8 S _kGAICampaignMedium
000000dc S _kGAICampaignName
000000d4 S _kGAICampaignSource
000000e0 S _kGAICampaignTerm

build/AppDeck/AppDeck.a(GAIURLConnection.o) (for architecture armv7):
         U _NSDefaultRunLoopMode
00000d14 S _OBJC_CLASS_$_GAIURLConnection
         U _OBJC_CLASS_$_NSObject
         U _OBJC_CLASS_$_NSRunLoop
         U _OBJC_CLASS_$_NSURLConnection
00000d50 S _OBJC_IVAR_$_GAIURLConnection.completionHandler_
00000d4c S _OBJC_IVAR_$_GAIURLConnection.completionQueue_
00000d40 S _OBJC_IVAR_$_GAIURLConnection.connection_
00000d48 S _OBJC_IVAR_$_GAIURLConnection.data_
00000d3c S _OBJC_IVAR_$_GAIURLConnection.request_
00000d44 S _OBJC_IVAR_$_GAIURLConnection.response_
00000d28 S _OBJC_METACLASS_$_GAIURLConnection
         U _OBJC_METACLASS_$_NSObject
         U __Block_copy
         U __Block_object_assign
         U __Block_object_dispose
         U __Block_release
         U __NSConcreteStackBlock
         U __objc_empty_cache
         U __objc_empty_vtable
         U _dispatch_async
         U _dispatch_release
         U _dispatch_retain
         U _objc_msgSend
         U _objc_msgSendSuper2
         U _objc_setProperty
00000000 t l001
000000b0 t l002
0000010c t l003
0000022c t l004
00000268 t l005
000002e0 t l006
0000031c t l007
00000340 t l008
00000358 t l009
0000035c t l010
00000360 t l011
000003a0 t l012
000003ec t l013
00000460 t l014
0000049c t l015
000004ac t l016
000004bc t l017
000004cc t l018
000004f0 t l019
00000500 t l020
00000524 t l021
00000534 t l022
00000558 t l023
00000568 t l024
0000058c t l025
0000059c t l026
000005ac t l027
000005bc t l028
00000ab8 s l029
00000ae0 s l030
00000bf0 s l031
00000c70 s l032
00000ca8 s l033
00000d60 s l034
00000d80 s l035

build/AppDeck/AppDeck.a(GAIAdMobInfo.o) (for architecture armv7):
         U _OBJC_CLASS_$_GAI
00000100 S _OBJC_CLASS_$_GAIAdMobInfo
         U _OBJC_CLASS_$_NSObject
000000ec S _OBJC_METACLASS_$_GAIAdMobInfo
         U _OBJC_METACLASS_$_NSObject
         U __objc_empty_cache
         U __objc_empty_vtable
         U _objc_msgSend
00000000 t l001
0000007c s l002
00000090 s l003
000000b8 s l004

build/AppDeck/AppDeck.a(GAITrackedViewController.o) (for architecture armv7):
         U _GAILogDebug
         U _NSLog
         U _OBJC_CLASS_$_GAI
0000057c S _OBJC_CLASS_$_GAITrackedViewController
         U _OBJC_CLASS_$_UIViewController
000005a4 S _OBJC_IVAR_$_GAITrackedViewController.trackedViewName_
000005a8 S _OBJC_IVAR_$_GAITrackedViewController.tracker_
00000590 S _OBJC_METACLASS_$_GAITrackedViewController
         U _OBJC_METACLASS_$_NSObject
         U _OBJC_METACLASS_$_UIViewController
         U ___CFConstantStringClassReference
         U __objc_empty_cache
         U __objc_empty_vtable
         U _kGAIProduct
         U _kGAIVersion
         U _objc_getProperty
         U _objc_msgSend
         U _objc_msgSendSuper2
         U _objc_setProperty
00000000 t l001
0000014c t l002
00000198 t l003
000001a8 t l004
000001b8 t l005
000001d0 t l006
00000470 s l007
00000498 s l008
000004e8 s l009
00000518 s l010
00000530 s l011

build/AppDeck/AppDeck.a(GAIReachabilityChecker.o) (for architecture armv7):
         U _CFRelease
         U _CFRunLoopGetMain
         U _GAILogDebug
00000610 T _GAIReachabilityStatusString
         U _NSLog
00000ff8 S _OBJC_CLASS_$_GAIReachabilityChecker
         U _OBJC_CLASS_$_NSObject
         U _OBJC_CLASS_$_NSString
00001028 S _OBJC_IVAR_$_GAIReachabilityChecker.delegate_
00001030 S _OBJC_IVAR_$_GAIReachabilityChecker.host_
00001020 S _OBJC_IVAR_$_GAIReachabilityChecker.reachabilityApi_
0000102c S _OBJC_IVAR_$_GAIReachabilityChecker.reachabilityStatus_
00001024 S _OBJC_IVAR_$_GAIReachabilityChecker.reachability_
0000100c S _OBJC_METACLASS_$_GAIReachabilityChecker
         U _OBJC_METACLASS_$_NSObject
         U _SCNetworkReachabilityCreateWithName
         U _SCNetworkReachabilityScheduleWithRunLoop
         U _SCNetworkReachabilitySetCallback
         U _SCNetworkReachabilityUnscheduleFromRunLoop
         U ___CFConstantStringClassReference
         U __objc_empty_cache
         U __objc_empty_vtable
         U _kCFAllocatorDefault
         U _kCFRunLoopCommonModes
         U _kGAIProduct
         U _kGAIVersion
         U _objc_getProperty
         U _objc_msgSend
         U _objc_msgSendSuper2
         U _objc_setProperty
00000000 t l001
00000010 t l002
00000090 t l003
000000a8 t l004
00000144 t l005
000001a0 t l006
000002cc t l007
0000032c t l008
00000408 t l009
00000424 t l010
00000494 t l011
000004c0 t l012
00000584 t l013
00000594 t l014
000005a4 t l015
000005b4 t l016
000005c4 t l017
000005dc t l018
00000600 t l019
00000dc0 s l020
00000dd8 s l021
00000ddc s l022
00000e04 s l023
00000ee4 s l024
00000f50 s l025
00000f88 s l026
00001100 s l027
00000db4 S l_OBJC_LABEL_PROTOCOL_$_GAIReachabilityDelegate
000010d4 S l_OBJC_PROTOCOL_$_GAIReachabilityDelegate
00000fec S l_OBJC_PROTOCOL_REFERENCE_$_GAIReachabilityDelegate

build/AppDeck/AppDeck.a(GAIUncaughtExceptionHandler.o) (for architecture armv7):
         U _CFRelease
         U _CFRunLoopCopyAllModes
         U _CFRunLoopGetCurrent
         U _CFRunLoopRunInMode
00000000 T _GAIInstallUncaughtExceptionHandler
00000038 T _GAIUncaughtExceptionHandler
00000270 T _GAIUninstallUncaughtExceptionHandler
         U _NSGetUncaughtExceptionHandler
         U _NSLog
         U _NSSetUncaughtExceptionHandler
         U _OBJC_CLASS_$_GAI
         U _OBJC_CLASS_$_NSDate
         U _OSAtomicCompareAndSwap32Barrier
         U ___CFConstantStringClassReference
         U ___stack_chk_fail
         U ___stack_chk_guard
         U _kGAIProduct
         U _kGAIVersion
         U _objc_enumerationMutation
         U _objc_msgSend
00000494 b l001

build/AppDeck/AppDeck.a(GAIMetaModel.o) (for architecture armv7):
         U _NSLog
000010c8 S _OBJC_CLASS_$_GAIMetaInfo
000010a0 S _OBJC_CLASS_$_GAIMetaModel
0000108c S _OBJC_CLASS_$_GAIReadOnlySetter
         U _OBJC_CLASS_$_NSMutableDictionary
         U _OBJC_CLASS_$_NSObject
00001184 S _OBJC_IVAR_$_GAIMetaInfo.assumedValue_
00001188 S _OBJC_IVAR_$_GAIMetaInfo.getter_
00001180 S _OBJC_IVAR_$_GAIMetaInfo.isTemporary_
0000118c S _OBJC_IVAR_$_GAIMetaInfo.setter_
0000117c S _OBJC_IVAR_$_GAIMetaInfo.urlParameter_
00001178 S _OBJC_IVAR_$_GAIMetaModel.metaInfos_
000010dc S _OBJC_METACLASS_$_GAIMetaInfo
000010b4 S _OBJC_METACLASS_$_GAIMetaModel
00001078 S _OBJC_METACLASS_$_GAIReadOnlySetter
         U _OBJC_METACLASS_$_NSObject
         U ___CFConstantStringClassReference
         U __objc_empty_cache
         U __objc_empty_vtable
         U _kGAIProduct
         U _kGAIVersion
         U _objc_msgSend
         U _objc_msgSendSuper2
00000000 t l001
00000068 t l002
000000cc t l003
00000118 t l004
0000013c t l005
00000160 t l006
00000184 t l007
000001d8 t l008
00000328 t l009
00000490 t l010
0000051c t l011
0000052c t l012
0000053c t l013
0000054c t l014
0000055c t l015
00000c40 s l016
00000d2c s l017
00000d40 s l018
00000d90 s l019
00000d9c s l020
00000db0 s l021
00000db4 s l022
00000dc0 s l023
00000de8 s l024
00000dfc s l025
00000e24 s l026
00000e4c s l027
00000e9c s l028
00000eb8 s l029
00000ee0 s l030
00000f08 s l031
00000f70 s l032
00000fe0 s l033
00001010 s l034
00000c30 S l_OBJC_LABEL_PROTOCOL_$_GAISetter
00000c2c S l_OBJC_LABEL_PROTOCOL_$_NSObject
0000114c S l_OBJC_PROTOCOL_$_GAISetter
00001120 S l_OBJC_PROTOCOL_$_NSObject

build/AppDeck/AppDeck.a(GAIModel.o) (for architecture armv7):
         U _NSLog
00001480 S _OBJC_CLASS_$_GAIModel
         U _OBJC_CLASS_$_NSMutableDictionary
         U _OBJC_CLASS_$_NSMutableSet
         U _OBJC_CLASS_$_NSNull
         U _OBJC_CLASS_$_NSNumber
         U _OBJC_CLASS_$_NSObject
         U _OBJC_CLASS_$_NSSet
         U _OBJC_CLASS_$_NSString
000014e8 S _OBJC_IVAR_$_GAIModel.metaModel_
000014f0 S _OBJC_IVAR_$_GAIModel.temporaryValues_
000014ec S _OBJC_IVAR_$_GAIModel.values_
00001494 S _OBJC_METACLASS_$_GAIModel
         U _OBJC_METACLASS_$_NSObject
         U __Block_object_assign
         U __Block_object_dispose
         U __NSConcreteStackBlock
         U __Unwind_SjLj_Register
         U __Unwind_SjLj_Resume
         U __Unwind_SjLj_Unregister
         U ___CFConstantStringClassReference
         U ___objc_personality_v0
         U ___stack_chk_fail
         U ___stack_chk_guard
         U __objc_empty_cache
         U __objc_empty_vtable
         U _kGAIProduct
         U _kGAIVersion
         U _objc_enumerationMutation
         U _objc_msgSend
         U _objc_msgSendSuper2
         U _objc_setProperty
00000000 t l001
0000005c t l002
0000010c t l003
00000184 t l004
0000058c t l005
000005b0 t l006
000005d8 t l007
000005fc t l008
00000710 t l009
00000748 t l010
0000076c t l011
00000784 t l012
000009cc t l013
000009f0 t l014
00000c5c t l015
00000c6c t l016
00000c7c t l017
00000ca0 t l018
00000cb0 t l019
00000cd4 s l020
00001250 s l021
00001278 s l022
00001340 s l023
00001388 s l024
000013a8 s l025
00001500 s l026

build/AppDeck/AppDeck.a(GAIExceptionParser.o) (for architecture armv7):
000005bc S _OBJC_CLASS_$_GAIExceptionParser
         U _OBJC_CLASS_$_NSCharacterSet
         U _OBJC_CLASS_$_NSObject
         U _OBJC_CLASS_$_NSPredicate
000005d0 S _OBJC_METACLASS_$_GAIExceptionParser
         U _OBJC_METACLASS_$_NSObject
         U ___CFConstantStringClassReference
         U __objc_empty_cache
         U __objc_empty_vtable
         U _objc_msgSend
         U _objc_msgSendSuper2
00000000 t l001
0000005c t l002
00000180 t l003
000004dc s l004
000004fc s l005
00000524 s l006
00000538 s l007

build/AppDeck/AppDeck.a(GAIHitMetaModel.o) (for architecture armv7):
         U _OBJC_CLASS_$_GAIHitFormat
000004f8 S _OBJC_CLASS_$_GAIHitMetaModel
         U _OBJC_CLASS_$_GAIMetaModel
0000050c S _OBJC_METACLASS_$_GAIHitMetaModel
         U _OBJC_METACLASS_$_GAIMetaModel
         U _OBJC_METACLASS_$_NSObject
         U __Unwind_SjLj_Register
         U __Unwind_SjLj_Resume
         U __Unwind_SjLj_Unregister
         U ___objc_personality_v0
         U ___stack_chk_fail
         U ___stack_chk_guard
         U __objc_empty_cache
         U __objc_empty_vtable
         U _objc_enumerationMutation
         U _objc_msgSend
         U _objc_msgSendSuper2
         U _objc_sync_enter
         U _objc_sync_exit
00000000 t l001
0000011c t l002
00000200 t l003
000002e8 t l004
000002ec t l005
000002f4 t l006
000002f8 t l007
000002fc t l008
00000300 s l009
00000308 s l010
00000410 s l011
00000430 s l012
00000458 s l013
000004a8 s l014
00000520 b l015

build/AppDeck/AppDeck.a(GAIDispatcher.o) (for architecture armv7):
         U _GAILogDebug
         U _NSDefaultRunLoopMode
         U _NSLog
         U _NSURLErrorDomain
         U _OBJC_CLASS_$_GAIClientId
         U _OBJC_CLASS_$_GAIDataStore
00004aec S _OBJC_CLASS_$_GAIDispatcher
         U _OBJC_CLASS_$_GAIError
         U _OBJC_CLASS_$_GAIHitFormat
         U _OBJC_CLASS_$_GAIReachabilityChecker
         U _OBJC_CLASS_$_GAIRequestBuilder
         U _OBJC_CLASS_$_GAIStringUtil
         U _OBJC_CLASS_$_GAIURLConnection
         U _OBJC_CLASS_$_NSDate
         U _OBJC_CLASS_$_NSHTTPURLResponse
         U _OBJC_CLASS_$_NSNumber
         U _OBJC_CLASS_$_NSObject
         U _OBJC_CLASS_$_NSRunLoop
         U _OBJC_CLASS_$_NSThread
         U _OBJC_CLASS_$_NSTimer
00004d4c S _OBJC_IVAR_$_GAIDispatcher.cacheBuster_
00004d54 S _OBJC_IVAR_$_GAIDispatcher.clientId_
00004d38 S _OBJC_IVAR_$_GAIDispatcher.dataStore_
00004d3c S _OBJC_IVAR_$_GAIDispatcher.dispatchInterval_
00004d40 S _OBJC_IVAR_$_GAIDispatcher.dispatchTimer_
00004d34 S _OBJC_IVAR_$_GAIDispatcher.optOut_
00004d44 S _OBJC_IVAR_$_GAIDispatcher.pendingDispatch_
00004d58 S _OBJC_IVAR_$_GAIDispatcher.reachability_
00004d48 S _OBJC_IVAR_$_GAIDispatcher.requestBuilder_
00004d50 S _OBJC_IVAR_$_GAIDispatcher.urlConnectionClass_
00004b00 S _OBJC_METACLASS_$_GAIDispatcher
         U _OBJC_METACLASS_$_NSObject
         U __Block_object_assign
         U __Block_object_dispose
         U __NSConcreteStackBlock
         U __Unwind_SjLj_Register
         U __Unwind_SjLj_Resume
         U __Unwind_SjLj_Unregister
         U ___CFConstantStringClassReference
         U ___fixdfdi
         U ___objc_personality_v0
         U __dispatch_main_q
         U __objc_empty_cache
         U __objc_empty_vtable
         U _arc4random
         U _dispatch_async
         U _dispatch_get_global_queue
         U _kGAIHitFormatCacheBuster
         U _kGAIProduct
         U _kGAIVersion
         U _objc_getProperty
         U _objc_msgSend
         U _objc_msgSendSuper2
         U _objc_setProperty
         U _objc_sync_enter
         U _objc_sync_exit
00000000 t l001
00000024 t l002
00000324 t l003
00000398 t l004
000003b0 t l005
000003c0 t l006
000003d0 t l007
00000400 t l008
0000054c t l009
00000684 t l010
000006d8 t l011
000006f4 t l012
00000704 t l013
00000714 t l014
0000092c t l015
00000a80 t l016
00000a98 t l017
00000aa8 t l018
00000ab8 t l019
00000d30 t l020
00000e88 t l021
00000ee4 t l022
00001060 t l023
00001110 t l024
0000117c t l025
00001234 t l026
000013c4 t l027
00001598 t l028
00001d70 t l029
00001ff0 t l030
00002354 t l031
00002398 t l032
000023bc t l033
000023d4 t l034
0000275c t l035
00002ab8 t l036
00002b44 t l037
00002b70 t l038
00002ba0 t l039
00002bc0 t l040
00002c94 t l041
00002cc0 t l042
00002cf0 t l043
00002d10 t l044
00002dd8 t l045
00002df0 t l046
00002e14 t l047
00002e24 t l048
00002e48 t l049
00002e58 t l050
00002e7c t l051
00002e8c t l052
00002eb0 t l053
00002ec0 t l054
00002ee4 t l055
00002efc t l056
00002f10 t l057
00002f20 t l058
00002f44 t l059
00002f54 t l060
00002f64 s l061
00002f80 s l062
00002f8c s l063
00002f98 s l064
00002fac s l065
00002fb4 s l066
00002fcc s l067
00002fd8 s l068
00002fe0 s l069
00002fec s l070
00003000 s l071
00003064 s l072
00003084 s l073
000045b8 s l074
000045cc s l075
000045e0 s l076
000045e4 s l077
000045f0 s l078
00004618 s l079
0000480c s l080
000048e0 s l081
00004938 s l082
00004d60 s l083
00004d80 s l084
00004da0 s l085
00004dc0 s l086
00004de0 s l087
00004e00 s l088
000045ac S l_OBJC_LABEL_PROTOCOL_$_GAIReachabilityDelegate
00004e18 S l_OBJC_PROTOCOL_$_GAIReachabilityDelegate

build/AppDeck/AppDeck.a(GoogleAnalytics_vers.o) (for architecture armv7):
00000040 S _GoogleAnalyticsVersionNumber
00000000 S _GoogleAnalyticsVersionString

build/AppDeck/AppDeck.a(MobclixDemographics.o) (for architecture armv7):
00000018 t +[MobclixDemographics birthday]
00000000 t +[MobclixDemographics demographics]
00000028 t +[MobclixDemographics updateDemographics:birthday:]
         U _OBJC_CLASS_$_ASIdentifierManager
         U _OBJC_CLASS_$_MCEnvironment
         U _OBJC_CLASS_$_MCHTTPFormRequest
         U _OBJC_CLASS_$_MobclixController
000023dc S _OBJC_CLASS_$_MobclixDemographics
         U _OBJC_CLASS_$_NSAttributedString
         U _OBJC_CLASS_$_NSBlockOperation
         U _OBJC_CLASS_$_NSByteCountFormatter
         U _OBJC_CLASS_$_NSCache
         U _OBJC_CLASS_$_NSDataDetector
         U _OBJC_CLASS_$_NSDateFormatter
         U _OBJC_CLASS_$_NSFileCoordinator
         U _OBJC_CLASS_$_NSFileVersion
         U _OBJC_CLASS_$_NSFileWrapper
         U _OBJC_CLASS_$_NSHashTable
         U _OBJC_CLASS_$_NSJSONSerialization
         U _OBJC_CLASS_$_NSLayoutConstraint
         U _OBJC_CLASS_$_NSLinguisticTagger
         U _OBJC_CLASS_$_NSMapTable
         U _OBJC_CLASS_$_NSMetadataItem
         U _OBJC_CLASS_$_NSMetadataQuery
         U _OBJC_CLASS_$_NSMetadataQueryAttributeValueTuple
         U _OBJC_CLASS_$_NSMetadataQueryResultGroup
         U _OBJC_CLASS_$_NSMutableAttributedString
         U _OBJC_CLASS_$_NSMutableOrderedSet
         U _OBJC_CLASS_$_NSMutableParagraphStyle
         U _OBJC_CLASS_$_NSNumber
         U _OBJC_CLASS_$_NSObject
         U _OBJC_CLASS_$_NSOrderedSet
         U _OBJC_CLASS_$_NSOrthography
         U _OBJC_CLASS_$_NSParagraphStyle
         U _OBJC_CLASS_$_NSPointerArray
         U _OBJC_CLASS_$_NSPointerFunctions
         U _OBJC_CLASS_$_NSPurgeableData
         U _OBJC_CLASS_$_NSRegularExpression
         U _OBJC_CLASS_$_NSShadow
         U _OBJC_CLASS_$_NSString
         U _OBJC_CLASS_$_NSStringDrawingContext
         U _OBJC_CLASS_$_NSTextCheckingResult
         U _OBJC_CLASS_$_NSUUID
         U _OBJC_CLASS_$_NSUbiquitousKeyValueStore
         U _OBJC_CLASS_$_UIActivity
         U _OBJC_CLASS_$_UIActivityItemProvider
         U _OBJC_CLASS_$_UIActivityViewController
         U _OBJC_CLASS_$_UIBezierPath
         U _OBJC_CLASS_$_UICollectionReusableView
         U _OBJC_CLASS_$_UICollectionView
         U _OBJC_CLASS_$_UICollectionViewCell
         U _OBJC_CLASS_$_UICollectionViewController
         U _OBJC_CLASS_$_UICollectionViewFlowLayout
         U _OBJC_CLASS_$_UICollectionViewLayout
         U _OBJC_CLASS_$_UICollectionViewLayoutAttributes
         U _OBJC_CLASS_$_UICollectionViewUpdateItem
         U _OBJC_CLASS_$_UIDevice
         U _OBJC_CLASS_$_UIDictationPhrase
         U _OBJC_CLASS_$_UIDocument
         U _OBJC_CLASS_$_UIDocumentInteractionController
         U _OBJC_CLASS_$_UIGestureRecognizer
         U _OBJC_CLASS_$_UILocalNotification
         U _OBJC_CLASS_$_UILongPressGestureRecognizer
         U _OBJC_CLASS_$_UIManagedDocument
         U _OBJC_CLASS_$_UIMarkupTextPrintFormatter
         U _OBJC_CLASS_$_UIMenuItem
         U _OBJC_CLASS_$_UINib
         U _OBJC_CLASS_$_UIPageViewController
         U _OBJC_CLASS_$_UIPanGestureRecognizer
         U _OBJC_CLASS_$_UIPinchGestureRecognizer
         U _OBJC_CLASS_$_UIPopoverBackgroundView
         U _OBJC_CLASS_$_UIPopoverController
         U _OBJC_CLASS_$_UIPrintFormatter
         U _OBJC_CLASS_$_UIPrintInfo
         U _OBJC_CLASS_$_UIPrintInteractionController
         U _OBJC_CLASS_$_UIPrintPageRenderer
         U _OBJC_CLASS_$_UIPrintPaper
         U _OBJC_CLASS_$_UIReferenceLibraryViewController
         U _OBJC_CLASS_$_UIRefreshControl
         U _OBJC_CLASS_$_UIRotationGestureRecognizer
         U _OBJC_CLASS_$_UIScreenMode
         U _OBJC_CLASS_$_UISimpleTextPrintFormatter
         U _OBJC_CLASS_$_UISplitViewController
         U _OBJC_CLASS_$_UIStepper
         U _OBJC_CLASS_$_UIStoryboard
         U _OBJC_CLASS_$_UIStoryboardPopoverSegue
         U _OBJC_CLASS_$_UIStoryboardSegue
         U _OBJC_CLASS_$_UISwipeGestureRecognizer
         U _OBJC_CLASS_$_UITableViewHeaderFooterView
         U _OBJC_CLASS_$_UITapGestureRecognizer
         U _OBJC_CLASS_$_UITextChecker
         U _OBJC_CLASS_$_UITextInputMode
         U _OBJC_CLASS_$_UITextInputStringTokenizer
         U _OBJC_CLASS_$_UITextPosition
         U _OBJC_CLASS_$_UITextRange
         U _OBJC_CLASS_$_UITextSelectionRect
         U _OBJC_CLASS_$_UIViewPrintFormatter
         U _OBJC_METACLASS_$_ASIdentifierManager
000023c8 S _OBJC_METACLASS_$_MobclixDemographics
         U _OBJC_METACLASS_$_NSAttributedString
         U _OBJC_METACLASS_$_NSBlockOperation
         U _OBJC_METACLASS_$_NSByteCountFormatter
         U _OBJC_METACLASS_$_NSCache
         U _OBJC_METACLASS_$_NSDataDetector
         U _OBJC_METACLASS_$_NSFileCoordinator
         U _OBJC_METACLASS_$_NSFileVersion
         U _OBJC_METACLASS_$_NSFileWrapper
         U _OBJC_METACLASS_$_NSHashTable
         U _OBJC_METACLASS_$_NSJSONSerialization
         U _OBJC_METACLASS_$_NSLayoutConstraint
         U _OBJC_METACLASS_$_NSLinguisticTagger
         U _OBJC_METACLASS_$_NSMapTable
         U _OBJC_METACLASS_$_NSMetadataItem
         U _OBJC_METACLASS_$_NSMetadataQuery
         U _OBJC_METACLASS_$_NSMetadataQueryAttributeValueTuple
         U _OBJC_METACLASS_$_NSMetadataQueryResultGroup
         U _OBJC_METACLASS_$_NSMutableAttributedString
         U _OBJC_METACLASS_$_NSMutableOrderedSet
         U _OBJC_METACLASS_$_NSMutableParagraphStyle
         U _OBJC_METACLASS_$_NSObject
         U _OBJC_METACLASS_$_NSOrderedSet
         U _OBJC_METACLASS_$_NSOrthography
         U _OBJC_METACLASS_$_NSParagraphStyle
         U _OBJC_METACLASS_$_NSPointerArray
         U _OBJC_METACLASS_$_NSPointerFunctions
         U _OBJC_METACLASS_$_NSPurgeableData
         U _OBJC_METACLASS_$_NSRegularExpression
         U _OBJC_METACLASS_$_NSShadow
         U _OBJC_METACLASS_$_NSStringDrawingContext
         U _OBJC_METACLASS_$_NSTextCheckingResult
         U _OBJC_METACLASS_$_NSUUID
         U _OBJC_METACLASS_$_NSUbiquitousKeyValueStore
         U _OBJC_METACLASS_$_UIActivity
         U _OBJC_METACLASS_$_UIActivityItemProvider
         U _OBJC_METACLASS_$_UIActivityViewController
         U _OBJC_METACLASS_$_UIBezierPath
         U _OBJC_METACLASS_$_UICollectionReusableView
         U _OBJC_METACLASS_$_UICollectionView
         U _OBJC_METACLASS_$_UICollectionViewCell
         U _OBJC_METACLASS_$_UICollectionViewController
         U _OBJC_METACLASS_$_UICollectionViewFlowLayout
         U _OBJC_METACLASS_$_UICollectionViewLayout
         U _OBJC_METACLASS_$_UICollectionViewLayoutAttributes
         U _OBJC_METACLASS_$_UICollectionViewUpdateItem
         U _OBJC_METACLASS_$_UIDictationPhrase
         U _OBJC_METACLASS_$_UIDocument
         U _OBJC_METACLASS_$_UIDocumentInteractionController
         U _OBJC_METACLASS_$_UIGestureRecognizer
         U _OBJC_METACLASS_$_UILocalNotification
         U _OBJC_METACLASS_$_UILongPressGestureRecognizer
         U _OBJC_METACLASS_$_UIManagedDocument
         U _OBJC_METACLASS_$_UIMarkupTextPrintFormatter
         U _OBJC_METACLASS_$_UIMenuItem
         U _OBJC_METACLASS_$_UINib
         U _OBJC_METACLASS_$_UIPageViewController
         U _OBJC_METACLASS_$_UIPanGestureRecognizer
         U _OBJC_METACLASS_$_UIPinchGestureRecognizer
         U _OBJC_METACLASS_$_UIPopoverBackgroundView
         U _OBJC_METACLASS_$_UIPopoverController
         U _OBJC_METACLASS_$_UIPrintFormatter
         U _OBJC_METACLASS_$_UIPrintInfo
         U _OBJC_METACLASS_$_UIPrintInteractionController
         U _OBJC_METACLASS_$_UIPrintPageRenderer
         U _OBJC_METACLASS_$_UIPrintPaper
         U _OBJC_METACLASS_$_UIReferenceLibraryViewController
         U _OBJC_METACLASS_$_UIRefreshControl
         U _OBJC_METACLASS_$_UIRotationGestureRecognizer
         U _OBJC_METACLASS_$_UIScreenMode
         U _OBJC_METACLASS_$_UISimpleTextPrintFormatter
         U _OBJC_METACLASS_$_UISplitViewController
         U _OBJC_METACLASS_$_UIStepper
         U _OBJC_METACLASS_$_UIStoryboard
         U _OBJC_METACLASS_$_UIStoryboardPopoverSegue
         U _OBJC_METACLASS_$_UIStoryboardSegue
         U _OBJC_METACLASS_$_UISwipeGestureRecognizer
         U _OBJC_METACLASS_$_UITableViewHeaderFooterView
         U _OBJC_METACLASS_$_UITapGestureRecognizer
         U _OBJC_METACLASS_$_UITextChecker
         U _OBJC_METACLASS_$_UITextInputMode
         U _OBJC_METACLASS_$_UITextInputStringTokenizer
         U _OBJC_METACLASS_$_UITextPosition
         U _OBJC_METACLASS_$_UITextRange
         U _OBJC_METACLASS_$_UITextSelectionRect
         U _OBJC_METACLASS_$_UIViewPrintFormatter
         U ___CFConstantStringClassReference
00002440 b ___birthday
000023f8 b ___demographics
         U __objc_empty_cache
         U __objc_empty_vtable
         U _memcpy
         U _objc_msgSend
00002338 s l_OBJC_$_CLASS_METHODS_MobclixDemographics
0000238c s l_OBJC_CLASS_RO_$_MobclixDemographics
00002364 s l_OBJC_METACLASS_RO_$_MobclixDemographics

build/AppDeck/AppDeck.a(MobclixFeedback.o) (for architecture armv7):
000007b8 t +[MobclixFeedback sendComment:]
000007f0 t +[MobclixFeedback sendRatings:]
00000840 t +[MobclixFeedback sharedInstance]
00000150 t -[MobclixFeedback commentRequestDidFail:error:]
00000060 t -[MobclixFeedback commentRequestDidFinish:]
0000092c t -[MobclixFeedback dealloc]
00000040 t -[MobclixFeedback delegate]
00000648 t -[MobclixFeedback failedToSendComment:]
00000700 t -[MobclixFeedback failedToSendRatings:]
00000020 t -[MobclixFeedback isSendingComment]
00000000 t -[MobclixFeedback isSendingRatings]
00000630 t -[MobclixFeedback ratingsRequestDidFail:error:]
00000540 t -[MobclixFeedback ratingsRequestDidFinish:]
00000978 t -[MobclixFeedback sendComment:]
00000168 t -[MobclixFeedback sendRatings:]
00000050 t -[MobclixFeedback setDelegate:]
00000030 t -[MobclixFeedback setSendingComment:]
00000010 t -[MobclixFeedback setSendingRatings:]
0000376c s GCC_except_table15
00003774 s GCC_except_table17
         U _OBJC_CLASS_$_ASIdentifierManager
         U _OBJC_CLASS_$_MCEGOHTTPRequest
         U _OBJC_CLASS_$_MCEnvironment
         U _OBJC_CLASS_$_MCHTTPFormRequest
         U _OBJC_CLASS_$_MobclixController
00004160 S _OBJC_CLASS_$_MobclixFeedback
         U _OBJC_CLASS_$_NSAttributedString
         U _OBJC_CLASS_$_NSBlockOperation
         U _OBJC_CLASS_$_NSByteCountFormatter
         U _OBJC_CLASS_$_NSCache
         U _OBJC_CLASS_$_NSDataDetector
         U _OBJC_CLASS_$_NSError
         U _OBJC_CLASS_$_NSException
         U _OBJC_CLASS_$_NSFileCoordinator
         U _OBJC_CLASS_$_NSFileVersion
         U _OBJC_CLASS_$_NSFileWrapper
         U _OBJC_CLASS_$_NSHashTable
         U _OBJC_CLASS_$_NSJSONSerialization
         U _OBJC_CLASS_$_NSLayoutConstraint
         U _OBJC_CLASS_$_NSLinguisticTagger
         U _OBJC_CLASS_$_NSMapTable
         U _OBJC_CLASS_$_NSMetadataItem
         U _OBJC_CLASS_$_NSMetadataQuery
         U _OBJC_CLASS_$_NSMetadataQueryAttributeValueTuple
         U _OBJC_CLASS_$_NSMetadataQueryResultGroup
         U _OBJC_CLASS_$_NSMutableAttributedString
         U _OBJC_CLASS_$_NSMutableOrderedSet
         U _OBJC_CLASS_$_NSMutableParagraphStyle
         U _OBJC_CLASS_$_NSNumber
         U _OBJC_CLASS_$_NSObject
         U _OBJC_CLASS_$_NSOrderedSet
         U _OBJC_CLASS_$_NSOrthography
         U _OBJC_CLASS_$_NSParagraphStyle
         U _OBJC_CLASS_$_NSPointerArray
         U _OBJC_CLASS_$_NSPointerFunctions
         U _OBJC_CLASS_$_NSPurgeableData
         U _OBJC_CLASS_$_NSRegularExpression
         U _OBJC_CLASS_$_NSShadow
         U _OBJC_CLASS_$_NSStringDrawingContext
         U _OBJC_CLASS_$_NSTextCheckingResult
         U _OBJC_CLASS_$_NSThread
         U _OBJC_CLASS_$_NSUUID
         U _OBJC_CLASS_$_NSUbiquitousKeyValueStore
         U _OBJC_CLASS_$_UIActivity
         U _OBJC_CLASS_$_UIActivityItemProvider
         U _OBJC_CLASS_$_UIActivityViewController
         U _OBJC_CLASS_$_UIBezierPath
         U _OBJC_CLASS_$_UICollectionReusableView
         U _OBJC_CLASS_$_UICollectionView
         U _OBJC_CLASS_$_UICollectionViewCell
         U _OBJC_CLASS_$_UICollectionViewController
         U _OBJC_CLASS_$_UICollectionViewFlowLayout
         U _OBJC_CLASS_$_UICollectionViewLayout
         U _OBJC_CLASS_$_UICollectionViewLayoutAttributes
         U _OBJC_CLASS_$_UICollectionViewUpdateItem
         U _OBJC_CLASS_$_UIDevice
         U _OBJC_CLASS_$_UIDictationPhrase
         U _OBJC_CLASS_$_UIDocument
         U _OBJC_CLASS_$_UIDocumentInteractionController
         U _OBJC_CLASS_$_UIGestureRecognizer
         U _OBJC_CLASS_$_UILocalNotification
         U _OBJC_CLASS_$_UILongPressGestureRecognizer
         U _OBJC_CLASS_$_UIManagedDocument
         U _OBJC_CLASS_$_UIMarkupTextPrintFormatter
         U _OBJC_CLASS_$_UIMenuItem
         U _OBJC_CLASS_$_UINib
         U _OBJC_CLASS_$_UIPageViewController
         U _OBJC_CLASS_$_UIPanGestureRecognizer
         U _OBJC_CLASS_$_UIPinchGestureRecognizer
         U _OBJC_CLASS_$_UIPopoverBackgroundView
         U _OBJC_CLASS_$_UIPopoverController
         U _OBJC_CLASS_$_UIPrintFormatter
         U _OBJC_CLASS_$_UIPrintInfo
         U _OBJC_CLASS_$_UIPrintInteractionController
         U _OBJC_CLASS_$_UIPrintPageRenderer
         U _OBJC_CLASS_$_UIPrintPaper
         U _OBJC_CLASS_$_UIReferenceLibraryViewController
         U _OBJC_CLASS_$_UIRefreshControl
         U _OBJC_CLASS_$_UIRotationGestureRecognizer
         U _OBJC_CLASS_$_UIScreenMode
         U _OBJC_CLASS_$_UISimpleTextPrintFormatter
         U _OBJC_CLASS_$_UISplitViewController
         U _OBJC_CLASS_$_UIStepper
         U _OBJC_CLASS_$_UIStoryboard
         U _OBJC_CLASS_$_UIStoryboardPopoverSegue
         U _OBJC_CLASS_$_UIStoryboardSegue
         U _OBJC_CLASS_$_UISwipeGestureRecognizer
         U _OBJC_CLASS_$_UITableViewHeaderFooterView
         U _OBJC_CLASS_$_UITapGestureRecognizer
         U _OBJC_CLASS_$_UITextChecker
         U _OBJC_CLASS_$_UITextInputMode
         U _OBJC_CLASS_$_UITextInputStringTokenizer
         U _OBJC_CLASS_$_UITextPosition
         U _OBJC_CLASS_$_UITextRange
         U _OBJC_CLASS_$_UITextSelectionRect
         U _OBJC_CLASS_$_UIViewPrintFormatter
         U _OBJC_EHTYPE_$_NSException
00003c54 S _OBJC_IVAR_$_MobclixFeedback.delegate
00003c50 S _OBJC_IVAR_$_MobclixFeedback.isSendingComment
00003c4c S _OBJC_IVAR_$_MobclixFeedback.isSendingRatings
         U _OBJC_METACLASS_$_ASIdentifierManager
0000414c S _OBJC_METACLASS_$_MobclixFeedback
         U _OBJC_METACLASS_$_NSAttributedString
         U _OBJC_METACLASS_$_NSBlockOperation
         U _OBJC_METACLASS_$_NSByteCountFormatter
         U _OBJC_METACLASS_$_NSCache
         U _OBJC_METACLASS_$_NSDataDetector
         U _OBJC_METACLASS_$_NSFileCoordinator
         U _OBJC_METACLASS_$_NSFileVersion
         U _OBJC_METACLASS_$_NSFileWrapper
         U _OBJC_METACLASS_$_NSHashTable
         U _OBJC_METACLASS_$_NSJSONSerialization
         U _OBJC_METACLASS_$_NSLayoutConstraint
         U _OBJC_METACLASS_$_NSLinguisticTagger
         U _OBJC_METACLASS_$_NSMapTable
         U _OBJC_METACLASS_$_NSMetadataItem
         U _OBJC_METACLASS_$_NSMetadataQuery
         U _OBJC_METACLASS_$_NSMetadataQueryAttributeValueTuple
         U _OBJC_METACLASS_$_NSMetadataQueryResultGroup
         U _OBJC_METACLASS_$_NSMutableAttributedString
         U _OBJC_METACLASS_$_NSMutableOrderedSet
         U _OBJC_METACLASS_$_NSMutableParagraphStyle
         U _OBJC_METACLASS_$_NSObject
         U _OBJC_METACLASS_$_NSOrderedSet
         U _OBJC_METACLASS_$_NSOrthography
         U _OBJC_METACLASS_$_NSParagraphStyle
         U _OBJC_METACLASS_$_NSPointerArray
         U _OBJC_METACLASS_$_NSPointerFunctions
         U _OBJC_METACLASS_$_NSPurgeableData
         U _OBJC_METACLASS_$_NSRegularExpression
         U _OBJC_METACLASS_$_NSShadow
         U _OBJC_METACLASS_$_NSStringDrawingContext
         U _OBJC_METACLASS_$_NSTextCheckingResult
         U _OBJC_METACLASS_$_NSUUID
         U _OBJC_METACLASS_$_NSUbiquitousKeyValueStore
         U _OBJC_METACLASS_$_UIActivity
         U _OBJC_METACLASS_$_UIActivityItemProvider
         U _OBJC_METACLASS_$_UIActivityViewController
         U _OBJC_METACLASS_$_UIBezierPath
         U _OBJC_METACLASS_$_UICollectionReusableView
         U _OBJC_METACLASS_$_UICollectionView
         U _OBJC_METACLASS_$_UICollectionViewCell
         U _OBJC_METACLASS_$_UICollectionViewController
         U _OBJC_METACLASS_$_UICollectionViewFlowLayout
         U _OBJC_METACLASS_$_UICollectionViewLayout
         U _OBJC_METACLASS_$_UICollectionViewLayoutAttributes
         U _OBJC_METACLASS_$_UICollectionViewUpdateItem
         U _OBJC_METACLASS_$_UIDictationPhrase
         U _OBJC_METACLASS_$_UIDocument
         U _OBJC_METACLASS_$_UIDocumentInteractionController
         U _OBJC_METACLASS_$_UIGestureRecognizer
         U _OBJC_METACLASS_$_UILocalNotification
         U _OBJC_METACLASS_$_UILongPressGestureRecognizer
         U _OBJC_METACLASS_$_UIManagedDocument
         U _OBJC_METACLASS_$_UIMarkupTextPrintFormatter
         U _OBJC_METACLASS_$_UIMenuItem
         U _OBJC_METACLASS_$_UINib
         U _OBJC_METACLASS_$_UIPageViewController
         U _OBJC_METACLASS_$_UIPanGestureRecognizer
         U _OBJC_METACLASS_$_UIPinchGestureRecognizer
         U _OBJC_METACLASS_$_UIPopoverBackgroundView
         U _OBJC_METACLASS_$_UIPopoverController
         U _OBJC_METACLASS_$_UIPrintFormatter
         U _OBJC_METACLASS_$_UIPrintInfo
         U _OBJC_METACLASS_$_UIPrintInteractionController
         U _OBJC_METACLASS_$_UIPrintPageRenderer
         U _OBJC_METACLASS_$_UIPrintPaper
         U _OBJC_METACLASS_$_UIReferenceLibraryViewController
         U _OBJC_METACLASS_$_UIRefreshControl
         U _OBJC_METACLASS_$_UIRotationGestureRecognizer
         U _OBJC_METACLASS_$_UIScreenMode
         U _OBJC_METACLASS_$_UISimpleTextPrintFormatter
         U _OBJC_METACLASS_$_UISplitViewController
         U _OBJC_METACLASS_$_UIStepper
         U _OBJC_METACLASS_$_UIStoryboard
         U _OBJC_METACLASS_$_UIStoryboardPopoverSegue
         U _OBJC_METACLASS_$_UIStoryboardSegue
         U _OBJC_METACLASS_$_UISwipeGestureRecognizer
         U _OBJC_METACLASS_$_UITableViewHeaderFooterView
         U _OBJC_METACLASS_$_UITapGestureRecognizer
         U _OBJC_METACLASS_$_UITextChecker
         U _OBJC_METACLASS_$_UITextInputMode
         U _OBJC_METACLASS_$_UITextInputStringTokenizer
         U _OBJC_METACLASS_$_UITextPosition
         U _OBJC_METACLASS_$_UITextRange
         U _OBJC_METACLASS_$_UITextSelectionRect
         U _OBJC_METACLASS_$_UIViewPrintFormatter
         U __Unwind_SjLj_Register
         U __Unwind_SjLj_Resume
         U __Unwind_SjLj_Unregister
         U ___CFConstantStringClassReference
00004184 b ___feedbackInstance
         U ___objc_personality_v0
         U __objc_empty_cache
         U __objc_empty_vtable
         U _llvm.eh.catch.all.value
         U _objc_begin_catch
         U _objc_end_catch
         U _objc_exception_throw
         U _objc_msgSend
         U _objc_msgSendSuper2
         U _objc_sync_enter
         U _objc_sync_exit
00003f54 s l_OBJC_$_CLASS_METHODS_MobclixFeedback
00003fa8 s l_OBJC_$_INSTANCE_METHODS_MobclixFeedback
00004064 s l_OBJC_$_INSTANCE_VARIABLES_MobclixFeedback
000040a8 s l_OBJC_$_PROP_LIST_MobclixFeedback
00003f80 s l_OBJC_CLASS_RO_$_MobclixFeedback
00003f2c s l_OBJC_METACLASS_RO_$_MobclixFeedback

build/AppDeck/AppDeck.a(MobclixAdViewInternal.o) (for architecture armv7):
000009d4 t -[MobclixAdViewInternal _adDidFinishTouchThrough:]
00000a90 t -[MobclixAdViewInternal _adShouldTouchThrough:]
00000100 t -[MobclixAdViewInternal _developerHandled]
000011a8 t -[MobclixAdViewInternal _touchThroughFinished:]
0000129c t -[MobclixAdViewInternal _willTouchThroughWithObject:didHideKey:]
00001360 t -[MobclixAdViewInternal actionPreloaded:]
000001d8 t -[MobclixAdViewInternal adSize]
00000140 t -[MobclixAdViewInternal adSpaceName]
00000c8c t -[MobclixAdViewInternal adsViewFailedToLoad:ad:error:]
00000f28 t -[MobclixAdViewInternal adsViewFinishedLoading:ad:]
00000000 t -[MobclixAdViewInternal applicationDidBecomeActive:]
00000014 t -[MobclixAdViewInternal applicationWillResignActive:]
00004058 t -[MobclixAdViewInternal buildAdRequestParams:additionalParameters:shouldIncludePII:]
00002d8c t -[MobclixAdViewInternal cancelAd]
00001144 t -[MobclixAdViewInternal cancelScheduledGetAd]
00000080 t -[MobclixAdViewInternal currentAdView]
00000180 t -[MobclixAdViewInternal currentAd]
00000160 t -[MobclixAdViewInternal currentAds]
00000060 t -[MobclixAdViewInternal currentOACandidate]
000006e0 t -[MobclixAdViewInternal dealloc]
000001c8 t -[MobclixAdViewInternal delegate]
0000197c t -[MobclixAdViewInternal dequeueReusableAdViewWithClass:]
000000f0 t -[MobclixAdViewInternal deviceModel]
000000e0 t -[MobclixAdViewInternal deviceSystemVersion]
00001738 t -[MobclixAdViewInternal didReceiveMemoryWarning]
00002de4 t -[MobclixAdViewInternal displayAd]
00000190 t -[MobclixAdViewInternal externalAdView]
00002ba4 t -[MobclixAdViewInternal failWithErrorCode:]
00002b4c t -[MobclixAdViewInternal failWithErrorCode:description:]
00002ac4 t -[MobclixAdViewInternal failWithErrorCode:userInfo:]
00001a54 t -[MobclixAdViewInternal finishExternalSuballocationRequest:suballocationType:]
00000048 t -[MobclixAdViewInternal finishInstrumentation]
00002494 t -[MobclixAdViewInternal finishLoadingAds:]
00005374 t -[MobclixAdViewInternal finishStarting]
00003180 t -[MobclixAdViewInternal getAdWithParameters:shouldAutoDisplayAd:]
00003164 t -[MobclixAdViewInternal getAd]
00003b4c t -[MobclixAdViewInternal getMobclixAdWithParameters:shouldAutoDisplayAd:]
00001c20 t -[MobclixAdViewInternal handleAdLoadFailWithError:]
00005324 t -[MobclixAdViewInternal handleMobclixNotStarting]
000001fc t -[MobclixAdViewInternal initWithFrame:]
00001fb8 t -[MobclixAdViewInternal loadAd:]
000000d0 t -[MobclixAdViewInternal locale]
00002bbc t -[MobclixAdViewInternal mobclixConfigurationUpdated:]
000000c0 t -[MobclixAdViewInternal mobclixController]
00000150 t -[MobclixAdViewInternal nextAdView]
00000070 t -[MobclixAdViewInternal oacandidates]
00001554 t -[MobclixAdViewInternal openActionForAd:]
000014f4 t -[MobclixAdViewInternal openActionURL:]
00001438 t -[MobclixAdViewInternal openActionURL:forAd:]
0000161c t -[MobclixAdViewInternal openBrowser:]
00001684 t -[MobclixAdViewInternal openURLInBrowser:browserStyle:]
00003114 t -[MobclixAdViewInternal prefetchAd]
0000004c t -[MobclixAdViewInternal prepareOpenAllocationSelections]
000017d0 t -[MobclixAdViewInternal queueReusableAdView:]
000001b0 t -[MobclixAdViewInternal refreshTime]
00003aa8 t -[MobclixAdViewInternal removeCandidateByKey:]
00001ed0 t -[MobclixAdViewInternal requestDidFail:withError:]
00002678 t -[MobclixAdViewInternal requestDidFinish:]
000000a0 t -[MobclixAdViewInternal richMediaRequiresUserInteraction]
00000170 t -[MobclixAdViewInternal savedCustomAdArray]
00001038 t -[MobclixAdViewInternal scheduleNextGetAdFromError]
000010a8 t -[MobclixAdViewInternal scheduleNextGetAd]
00000028 t -[MobclixAdViewInternal sessionRestarted]
000050a0 t -[MobclixAdViewInternal setAdParam:setObject:forKey:]
0000527c t -[MobclixAdViewInternal setAdSize:]
000005cc t -[MobclixAdViewInternal setAdSpaceName:]
0000052c t -[MobclixAdViewInternal setCurrentAd:]
00000090 t -[MobclixAdViewInternal setCurrentAdView:]
0000057c t -[MobclixAdViewInternal setCurrentAds:]
000006b8 t -[MobclixAdViewInternal setCurrentOACandidate:]
000051dc t -[MobclixAdViewInternal setDelegate:]
000005f0 t -[MobclixAdViewInternal setDeviceModel:]
00000618 t -[MobclixAdViewInternal setDeviceSystemVersion:]
000001a0 t -[MobclixAdViewInternal setExternalAdView:]
00000640 t -[MobclixAdViewInternal setLocale:]
00000668 t -[MobclixAdViewInternal setMobclixController:]
000005a4 t -[MobclixAdViewInternal setNextAdView:]
00000690 t -[MobclixAdViewInternal setOacandidates:]
00005184 t -[MobclixAdViewInternal setRefreshTime:]
00000554 t -[MobclixAdViewInternal setSavedCustomAdArray:]
00000130 t -[MobclixAdViewInternal setTestingMode:]
00000050 t -[MobclixAdViewInternal setViewController:]
00000110 t -[MobclixAdViewInternal set_developerHandled:]
000000b0 t -[MobclixAdViewInternal shouldAutoplay]
00001db4 t -[MobclixAdViewInternal shouldHandleOpenAllocationInternally:]
000015dc t -[MobclixAdViewInternal shouldTouchThrough]
00002c88 t -[MobclixAdViewInternal stopLoading]
00000120 t -[MobclixAdViewInternal testingMode]
000015b0 t -[MobclixAdViewInternal verifyViewController]
00000bac t -[MobclixAdViewInternal viewController]
0001b868 s GCC_except_table84
         U _MCAdsErrorDomain
         U _MCBrowserDidHideNotification
         U _MobclixAdActionPreloaded
         U _NSLocalizedDescriptionKey
         U _NSStringFromClass
         U _NSUnderlyingErrorKey
         U _OBJC_CLASS_$_ASIdentifierManager
         U _OBJC_CLASS_$_AVAsset
         U _OBJC_CLASS_$_AVAssetExportSession
         U _OBJC_CLASS_$_AVAssetImageGenerator
         U _OBJC_CLASS_$_AVAssetReader
         U _OBJC_CLASS_$_AVAssetReaderAudioMixOutput
         U _OBJC_CLASS_$_AVAssetReaderOutput
         U _OBJC_CLASS_$_AVAssetReaderTrackOutput
         U _OBJC_CLASS_$_AVAssetReaderVideoCompositionOutput
         U _OBJC_CLASS_$_AVAssetResourceLoader
         U _OBJC_CLASS_$_AVAssetResourceLoadingRequest
         U _OBJC_CLASS_$_AVAssetTrack
         U _OBJC_CLASS_$_AVAssetTrackSegment
         U _OBJC_CLASS_$_AVAssetWriter
         U _OBJC_CLASS_$_AVAssetWriterInput
         U _OBJC_CLASS_$_AVAssetWriterInputPixelBufferAdaptor
         U _OBJC_CLASS_$_AVAudioMix
         U _OBJC_CLASS_$_AVAudioMixInputParameters
         U _OBJC_CLASS_$_AVAudioSessionChannelDescription
         U _OBJC_CLASS_$_AVAudioSessionDataSourceDescription
         U _OBJC_CLASS_$_AVAudioSessionPortDescription
         U _OBJC_CLASS_$_AVAudioSessionRouteDescription
         U _OBJC_CLASS_$_AVCaptureAudioChannel
         U _OBJC_CLASS_$_AVCaptureAudioDataOutput
         U _OBJC_CLASS_$_AVCaptureConnection
         U _OBJC_CLASS_$_AVCaptureDevice
         U _OBJC_CLASS_$_AVCaptureDeviceInput
         U _OBJC_CLASS_$_AVCaptureFileOutput
         U _OBJC_CLASS_$_AVCaptureInput
         U _OBJC_CLASS_$_AVCaptureInputPort
         U _OBJC_CLASS_$_AVCaptureMetadataOutput
         U _OBJC_CLASS_$_AVCaptureMovieFileOutput
         U _OBJC_CLASS_$_AVCaptureOutput
         U _OBJC_CLASS_$_AVCaptureSession
         U _OBJC_CLASS_$_AVCaptureStillImageOutput
         U _OBJC_CLASS_$_AVCaptureVideoDataOutput
         U _OBJC_CLASS_$_AVCaptureVideoPreviewLayer
         U _OBJC_CLASS_$_AVComposition
         U _OBJC_CLASS_$_AVCompositionTrack
         U _OBJC_CLASS_$_AVCompositionTrackSegment
         U _OBJC_CLASS_$_AVMediaSelectionGroup
         U _OBJC_CLASS_$_AVMediaSelectionOption
         U _OBJC_CLASS_$_AVMetadataFaceObject
         U _OBJC_CLASS_$_AVMetadataItem
         U _OBJC_CLASS_$_AVMetadataObject
         U _OBJC_CLASS_$_AVMutableAudioMix
         U _OBJC_CLASS_$_AVMutableAudioMixInputParameters
         U _OBJC_CLASS_$_AVMutableComposition
         U _OBJC_CLASS_$_AVMutableCompositionTrack
         U _OBJC_CLASS_$_AVMutableMetadataItem
         U _OBJC_CLASS_$_AVMutableTimedMetadataGroup
         U _OBJC_CLASS_$_AVMutableVideoComposition
         U _OBJC_CLASS_$_AVMutableVideoCompositionInstruction
         U _OBJC_CLASS_$_AVMutableVideoCompositionLayerInstruction
         U _OBJC_CLASS_$_AVPlayer
         U _OBJC_CLASS_$_AVPlayerItem
         U _OBJC_CLASS_$_AVPlayerItemAccessLog
         U _OBJC_CLASS_$_AVPlayerItemAccessLogEvent
         U _OBJC_CLASS_$_AVPlayerItemErrorLog
         U _OBJC_CLASS_$_AVPlayerItemErrorLogEvent
         U _OBJC_CLASS_$_AVPlayerItemOutput
         U _OBJC_CLASS_$_AVPlayerItemTrack
         U _OBJC_CLASS_$_AVPlayerItemVideoOutput
         U _OBJC_CLASS_$_AVPlayerLayer
         U _OBJC_CLASS_$_AVQueuePlayer
         U _OBJC_CLASS_$_AVSynchronizedLayer
         U _OBJC_CLASS_$_AVTextStyleRule
         U _OBJC_CLASS_$_AVTimedMetadataGroup
         U _OBJC_CLASS_$_AVURLAsset
         U _OBJC_CLASS_$_AVVideoComposition
         U _OBJC_CLASS_$_AVVideoCompositionCoreAnimationTool
         U _OBJC_CLASS_$_AVVideoCompositionInstruction
         U _OBJC_CLASS_$_AVVideoCompositionLayerInstruction
         U _OBJC_CLASS_$_CLGeocoder
         U _OBJC_CLASS_$_CLPlacemark
         U _OBJC_CLASS_$_CLRegion
         U _OBJC_CLASS_$_CMAccelerometerData
         U _OBJC_CLASS_$_CMAttitude
         U _OBJC_CLASS_$_CMDeviceMotion
         U _OBJC_CLASS_$_CMGyroData
         U _OBJC_CLASS_$_CMLogItem
         U _OBJC_CLASS_$_CMMagnetometerData
         U _OBJC_CLASS_$_CMMotionManager
         U _OBJC_CLASS_$_EKAlarm
         U _OBJC_CLASS_$_EKCalendar
         U _OBJC_CLASS_$_EKCalendarItem
         U _OBJC_CLASS_$_EKEvent
         U _OBJC_CLASS_$_EKEventStore
         U _OBJC_CLASS_$_EKParticipant
         U _OBJC_CLASS_$_EKRecurrenceDayOfWeek
         U _OBJC_CLASS_$_EKRecurrenceEnd
         U _OBJC_CLASS_$_EKRecurrenceRule
         U _OBJC_CLASS_$_EKReminder
         U _OBJC_CLASS_$_EKSource
         U _OBJC_CLASS_$_EKStructuredLocation
         U _OBJC_CLASS_$_MCBrowserViewController
         U _OBJC_CLASS_$_MCEnvironment
         U _OBJC_CLASS_$_MCHTTPRequest
         U _OBJC_CLASS_$_MFMessageComposeViewController
         U _OBJC_CLASS_$_MPMediaEntity
         U _OBJC_CLASS_$_MPMediaQuerySection
         U _OBJC_CLASS_$_MPMovieAccessLog
         U _OBJC_CLASS_$_MPMovieAccessLogEvent
         U _OBJC_CLASS_$_MPMovieErrorLog
         U _OBJC_CLASS_$_MPMovieErrorLogEvent
         U _OBJC_CLASS_$_MPMoviePlayerViewController
         U _OBJC_CLASS_$_MPNowPlayingInfoCenter
         U _OBJC_CLASS_$_MPTimedMetadata
         U _OBJC_CLASS_$_MobclixAd
         U _OBJC_CLASS_$_MobclixAdActionController
         U _OBJC_CLASS_$_MobclixAdMobAdView
0001da10 S _OBJC_CLASS_$_MobclixAdViewInternal
         U _OBJC_CLASS_$_MobclixBannerAdView
         U _OBJC_CLASS_$_MobclixController
         U _OBJC_CLASS_$_MobclixDemographics
         U _OBJC_CLASS_$_MobclixFullScreenWebAdView
         U _OBJC_CLASS_$_MobclixGoogleAdMobAdView
         U _OBJC_CLASS_$_MobclixIAdAdView
         U _OBJC_CLASS_$_MobclixJSON
         U _OBJC_CLASS_$_MobclixMillennialAdView
         U _OBJC_CLASS_$_MobclixOpenAllocationAd
         U _OBJC_CLASS_$_MobclixRichMediaWebAdView
         U _OBJC_CLASS_$_MobclixTextAdView
         U _OBJC_CLASS_$_NSArray
         U _OBJC_CLASS_$_NSAttributedString
         U _OBJC_CLASS_$_NSBlockOperation
         U _OBJC_CLASS_$_NSByteCountFormatter
         U _OBJC_CLASS_$_NSCache
         U _OBJC_CLASS_$_NSDataDetector
         U _OBJC_CLASS_$_NSDate
         U _OBJC_CLASS_$_NSDateFormatter
         U _OBJC_CLASS_$_NSDictionary
         U _OBJC_CLASS_$_NSError
         U _OBJC_CLASS_$_NSFileCoordinator
         U _OBJC_CLASS_$_NSFileVersion
         U _OBJC_CLASS_$_NSFileWrapper
         U _OBJC_CLASS_$_NSHashTable
         U _OBJC_CLASS_$_NSJSONSerialization
         U _OBJC_CLASS_$_NSLayoutConstraint
         U _OBJC_CLASS_$_NSLinguisticTagger
         U _OBJC_CLASS_$_NSLock
         U _OBJC_CLASS_$_NSMapTable
         U _OBJC_CLASS_$_NSMetadataItem
         U _OBJC_CLASS_$_NSMetadataQuery
         U _OBJC_CLASS_$_NSMetadataQueryAttributeValueTuple
         U _OBJC_CLASS_$_NSMetadataQueryResultGroup
         U _OBJC_CLASS_$_NSMutableArray
         U _OBJC_CLASS_$_NSMutableAttributedString
         U _OBJC_CLASS_$_NSMutableDictionary
         U _OBJC_CLASS_$_NSMutableOrderedSet
         U _OBJC_CLASS_$_NSMutableParagraphStyle
         U _OBJC_CLASS_$_NSMutableString
         U _OBJC_CLASS_$_NSNotificationCenter
         U _OBJC_CLASS_$_NSNull
         U _OBJC_CLASS_$_NSObject
         U _OBJC_CLASS_$_NSOrderedSet
         U _OBJC_CLASS_$_NSOrthography
         U _OBJC_CLASS_$_NSParagraphStyle
         U _OBJC_CLASS_$_NSPointerArray
         U _OBJC_CLASS_$_NSPointerFunctions
         U _OBJC_CLASS_$_NSPurgeableData
         U _OBJC_CLASS_$_NSRegularExpression
         U _OBJC_CLASS_$_NSShadow
         U _OBJC_CLASS_$_NSString
         U _OBJC_CLASS_$_NSStringDrawingContext
         U _OBJC_CLASS_$_NSTextCheckingResult
         U _OBJC_CLASS_$_NSThread
         U _OBJC_CLASS_$_NSURL
         U _OBJC_CLASS_$_NSURLRequest
         U _OBJC_CLASS_$_NSUUID
         U _OBJC_CLASS_$_NSUbiquitousKeyValueStore
         U _OBJC_CLASS_$_UIActivity
         U _OBJC_CLASS_$_UIActivityItemProvider
         U _OBJC_CLASS_$_UIActivityViewController
         U _OBJC_CLASS_$_UIApplication
         U _OBJC_CLASS_$_UIBezierPath
         U _OBJC_CLASS_$_UICollectionReusableView
         U _OBJC_CLASS_$_UICollectionView
         U _OBJC_CLASS_$_UICollectionViewCell
         U _OBJC_CLASS_$_UICollectionViewController
         U _OBJC_CLASS_$_UICollectionViewFlowLayout
         U _OBJC_CLASS_$_UICollectionViewLayout
         U _OBJC_CLASS_$_UICollectionViewLayoutAttributes
         U _OBJC_CLASS_$_UICollectionViewUpdateItem
         U _OBJC_CLASS_$_UIColor
         U _OBJC_CLASS_$_UIDevice
         U _OBJC_CLASS_$_UIDictationPhrase
         U _OBJC_CLASS_$_UIDocument
         U _OBJC_CLASS_$_UIDocumentInteractionController
         U _OBJC_CLASS_$_UIGestureRecognizer
         U _OBJC_CLASS_$_UILocalNotification
         U _OBJC_CLASS_$_UILongPressGestureRecognizer
         U _OBJC_CLASS_$_UIManagedDocument
         U _OBJC_CLASS_$_UIMarkupTextPrintFormatter
         U _OBJC_CLASS_$_UIMenuItem
         U _OBJC_CLASS_$_UINib
         U _OBJC_CLASS_$_UIPageViewController
         U _OBJC_CLASS_$_UIPanGestureRecognizer
         U _OBJC_CLASS_$_UIPinchGestureRecognizer
         U _OBJC_CLASS_$_UIPopoverBackgroundView
         U _OBJC_CLASS_$_UIPopoverController
         U _OBJC_CLASS_$_UIPrintFormatter
         U _OBJC_CLASS_$_UIPrintInfo
         U _OBJC_CLASS_$_UIPrintInteractionController
         U _OBJC_CLASS_$_UIPrintPageRenderer
         U _OBJC_CLASS_$_UIPrintPaper
         U _OBJC_CLASS_$_UIReferenceLibraryViewController
         U _OBJC_CLASS_$_UIRefreshControl
         U _OBJC_CLASS_$_UIRotationGestureRecognizer
         U _OBJC_CLASS_$_UIScreen
         U _OBJC_CLASS_$_UIScreenMode
         U _OBJC_CLASS_$_UISimpleTextPrintFormatter
         U _OBJC_CLASS_$_UISplitViewController
         U _OBJC_CLASS_$_UIStepper
         U _OBJC_CLASS_$_UIStoryboard
         U _OBJC_CLASS_$_UIStoryboardPopoverSegue
         U _OBJC_CLASS_$_UIStoryboardSegue
         U _OBJC_CLASS_$_UISwipeGestureRecognizer
         U _OBJC_CLASS_$_UITableViewHeaderFooterView
         U _OBJC_CLASS_$_UITapGestureRecognizer
         U _OBJC_CLASS_$_UITextChecker
         U _OBJC_CLASS_$_UITextInputMode
         U _OBJC_CLASS_$_UITextInputStringTokenizer
         U _OBJC_CLASS_$_UITextPosition
         U _OBJC_CLASS_$_UITextRange
         U _OBJC_CLASS_$_UITextSelectionRect
         U _OBJC_CLASS_$_UIView
         U _OBJC_CLASS_$_UIViewController
         U _OBJC_CLASS_$_UIViewPrintFormatter
         U _OBJC_EHTYPE_$_NSException
0001d154 S _OBJC_IVAR_$_MobclixAdViewInternal._adSize
0001d144 S _OBJC_IVAR_$_MobclixAdViewInternal._currentAd
0001d13c S _OBJC_IVAR_$_MobclixAdViewInternal._currentAds
0001d150 S _OBJC_IVAR_$_MobclixAdViewInternal._delegate
0001d12c S _OBJC_IVAR_$_MobclixAdViewInternal._developerHandled
0001d16c S _OBJC_IVAR_$_MobclixAdViewInternal._isLoading
0001d100 S _OBJC_IVAR_$_MobclixAdViewInternal._ordinalNumber
0001d168 S _OBJC_IVAR_$_MobclixAdViewInternal._refreshChanged
0001d14c S _OBJC_IVAR_$_MobclixAdViewInternal._refreshTime
0001d158 S _OBJC_IVAR_$_MobclixAdViewInternal._reuseableAdViews
0001d15c S _OBJC_IVAR_$_MobclixAdViewInternal._reuseableAdViewsLock
0001d140 S _OBJC_IVAR_$_MobclixAdViewInternal._savedCustomAdArray
0001d160 S _OBJC_IVAR_$_MobclixAdViewInternal._shouldGetAdAfterConfig
0001d164 S _OBJC_IVAR_$_MobclixAdViewInternal._shouldGetAdAfterFinishedStarting
0001d134 S _OBJC_IVAR_$_MobclixAdViewInternal.adSpaceName
0001d0fc S _OBJC_IVAR_$_MobclixAdViewInternal.applicationInactive
0001d18c S _OBJC_IVAR_$_MobclixAdViewInternal.autoDisplayNextAdRequest
0001d110 S _OBJC_IVAR_$_MobclixAdViewInternal.currentAdView
0001d108 S _OBJC_IVAR_$_MobclixAdViewInternal.currentOACandidate
0001d128 S _OBJC_IVAR_$_MobclixAdViewInternal.deviceModel
0001d124 S _OBJC_IVAR_$_MobclixAdViewInternal.deviceSystemVersion
0001d148 S _OBJC_IVAR_$_MobclixAdViewInternal.externalAdView
0001d178 S _OBJC_IVAR_$_MobclixAdViewInternal.hasFinishedStarting
0001d190 S _OBJC_IVAR_$_MobclixAdViewInternal.hasPrefetchedAd
0001d180 S _OBJC_IVAR_$_MobclixAdViewInternal.hasRequestAdURLCallback
0001d184 S _OBJC_IVAR_$_MobclixAdViewInternal.hasRequestCreativeCallback
0001d188 S _OBJC_IVAR_$_MobclixAdViewInternal.hasRequestVeltiMediaCallback
0001d17c S _OBJC_IVAR_$_MobclixAdViewInternal.lastAutoplayTime
0001d120 S _OBJC_IVAR_$_MobclixAdViewInternal.locale
0001d11c S _OBJC_IVAR_$_MobclixAdViewInternal.mobclixController
0001d138 S _OBJC_IVAR_$_MobclixAdViewInternal.nextAdView
0001d10c S _OBJC_IVAR_$_MobclixAdViewInternal.oacandidates
0001d174 S _OBJC_IVAR_$_MobclixAdViewInternal.pausedSelf
0001d114 S _OBJC_IVAR_$_MobclixAdViewInternal.richMediaRequiresUserInteraction
0001d118 S _OBJC_IVAR_$_MobclixAdViewInternal.shouldAutoplay
0001d130 S _OBJC_IVAR_$_MobclixAdViewInternal.testingMode
0001d104 S _OBJC_IVAR_$_MobclixAdViewInternal.viewController
0001d170 S _OBJC_IVAR_$_MobclixAdViewInternal.wasPaused
         U _OBJC_METACLASS_$_ASIdentifierManager
         U _OBJC_METACLASS_$_AVAsset
         U _OBJC_METACLASS_$_AVAssetExportSession
         U _OBJC_METACLASS_$_AVAssetImageGenerator
         U _OBJC_METACLASS_$_AVAssetReader
         U _OBJC_METACLASS_$_AVAssetReaderAudioMixOutput
         U _OBJC_METACLASS_$_AVAssetReaderOutput
         U _OBJC_METACLASS_$_AVAssetReaderTrackOutput
         U _OBJC_METACLASS_$_AVAssetReaderVideoCompositionOutput
         U _OBJC_METACLASS_$_AVAssetResourceLoader
         U _OBJC_METACLASS_$_AVAssetResourceLoadingRequest
         U _OBJC_METACLASS_$_AVAssetTrack
         U _OBJC_METACLASS_$_AVAssetTrackSegment
         U _OBJC_METACLASS_$_AVAssetWriter
         U _OBJC_METACLASS_$_AVAssetWriterInput
         U _OBJC_METACLASS_$_AVAssetWriterInputPixelBufferAdaptor
         U _OBJC_METACLASS_$_AVAudioMix
         U _OBJC_METACLASS_$_AVAudioMixInputParameters
         U _OBJC_METACLASS_$_AVAudioSessionChannelDescription
         U _OBJC_METACLASS_$_AVAudioSessionDataSourceDescription
         U _OBJC_METACLASS_$_AVAudioSessionPortDescription
         U _OBJC_METACLASS_$_AVAudioSessionRouteDescription
         U _OBJC_METACLASS_$_AVCaptureAudioChannel
         U _OBJC_METACLASS_$_AVCaptureAudioDataOutput
         U _OBJC_METACLASS_$_AVCaptureConnection
         U _OBJC_METACLASS_$_AVCaptureDevice
         U _OBJC_METACLASS_$_AVCaptureDeviceInput
         U _OBJC_METACLASS_$_AVCaptureFileOutput
         U _OBJC_METACLASS_$_AVCaptureInput
         U _OBJC_METACLASS_$_AVCaptureInputPort
         U _OBJC_METACLASS_$_AVCaptureMetadataOutput
         U _OBJC_METACLASS_$_AVCaptureMovieFileOutput
         U _OBJC_METACLASS_$_AVCaptureOutput
         U _OBJC_METACLASS_$_AVCaptureSession
         U _OBJC_METACLASS_$_AVCaptureStillImageOutput
         U _OBJC_METACLASS_$_AVCaptureVideoDataOutput
         U _OBJC_METACLASS_$_AVCaptureVideoPreviewLayer
         U _OBJC_METACLASS_$_AVComposition
         U _OBJC_METACLASS_$_AVCompositionTrack
         U _OBJC_METACLASS_$_AVCompositionTrackSegment
         U _OBJC_METACLASS_$_AVMediaSelectionGroup
         U _OBJC_METACLASS_$_AVMediaSelectionOption
         U _OBJC_METACLASS_$_AVMetadataFaceObject
         U _OBJC_METACLASS_$_AVMetadataItem
         U _OBJC_METACLASS_$_AVMetadataObject
         U _OBJC_METACLASS_$_AVMutableAudioMix
         U _OBJC_METACLASS_$_AVMutableAudioMixInputParameters
         U _OBJC_METACLASS_$_AVMutableComposition
         U _OBJC_METACLASS_$_AVMutableCompositionTrack
         U _OBJC_METACLASS_$_AVMutableMetadataItem
         U _OBJC_METACLASS_$_AVMutableTimedMetadataGroup
         U _OBJC_METACLASS_$_AVMutableVideoComposition
         U _OBJC_METACLASS_$_AVMutableVideoCompositionInstruction
         U _OBJC_METACLASS_$_AVMutableVideoCompositionLayerInstruction
         U _OBJC_METACLASS_$_AVPlayer
         U _OBJC_METACLASS_$_AVPlayerItem
         U _OBJC_METACLASS_$_AVPlayerItemAccessLog
         U _OBJC_METACLASS_$_AVPlayerItemAccessLogEvent
         U _OBJC_METACLASS_$_AVPlayerItemErrorLog
         U _OBJC_METACLASS_$_AVPlayerItemErrorLogEvent
         U _OBJC_METACLASS_$_AVPlayerItemOutput
         U _OBJC_METACLASS_$_AVPlayerItemTrack
         U _OBJC_METACLASS_$_AVPlayerItemVideoOutput
         U _OBJC_METACLASS_$_AVPlayerLayer
         U _OBJC_METACLASS_$_AVQueuePlayer
         U _OBJC_METACLASS_$_AVSynchronizedLayer
         U _OBJC_METACLASS_$_AVTextStyleRule
         U _OBJC_METACLASS_$_AVTimedMetadataGroup
         U _OBJC_METACLASS_$_AVURLAsset
         U _OBJC_METACLASS_$_AVVideoComposition
         U _OBJC_METACLASS_$_AVVideoCompositionCoreAnimationTool
         U _OBJC_METACLASS_$_AVVideoCompositionInstruction
         U _OBJC_METACLASS_$_AVVideoCompositionLayerInstruction
         U _OBJC_METACLASS_$_CLGeocoder
         U _OBJC_METACLASS_$_CLPlacemark
         U _OBJC_METACLASS_$_CLRegion
         U _OBJC_METACLASS_$_CMAccelerometerData
         U _OBJC_METACLASS_$_CMAttitude
         U _OBJC_METACLASS_$_CMDeviceMotion
         U _OBJC_METACLASS_$_CMGyroData
         U _OBJC_METACLASS_$_CMLogItem
         U _OBJC_METACLASS_$_CMMagnetometerData
         U _OBJC_METACLASS_$_CMMotionManager
         U _OBJC_METACLASS_$_EKAlarm
         U _OBJC_METACLASS_$_EKCalendar
         U _OBJC_METACLASS_$_EKCalendarItem
         U _OBJC_METACLASS_$_EKEvent
         U _OBJC_METACLASS_$_EKEventStore
         U _OBJC_METACLASS_$_EKParticipant
         U _OBJC_METACLASS_$_EKRecurrenceDayOfWeek
         U _OBJC_METACLASS_$_EKRecurrenceEnd
         U _OBJC_METACLASS_$_EKRecurrenceRule
         U _OBJC_METACLASS_$_EKReminder
         U _OBJC_METACLASS_$_EKSource
         U _OBJC_METACLASS_$_EKStructuredLocation
         U _OBJC_METACLASS_$_MFMessageComposeViewController
         U _OBJC_METACLASS_$_MPMediaEntity
         U _OBJC_METACLASS_$_MPMediaQuerySection
         U _OBJC_METACLASS_$_MPMovieAccessLog
         U _OBJC_METACLASS_$_MPMovieAccessLogEvent
         U _OBJC_METACLASS_$_MPMovieErrorLog
         U _OBJC_METACLASS_$_MPMovieErrorLogEvent
         U _OBJC_METACLASS_$_MPMoviePlayerViewController
         U _OBJC_METACLASS_$_MPNowPlayingInfoCenter
         U _OBJC_METACLASS_$_MPTimedMetadata
0001d9fc S _OBJC_METACLASS_$_MobclixAdViewInternal
         U _OBJC_METACLASS_$_NSAttributedString
         U _OBJC_METACLASS_$_NSBlockOperation
         U _OBJC_METACLASS_$_NSByteCountFormatter
         U _OBJC_METACLASS_$_NSCache
         U _OBJC_METACLASS_$_NSDataDetector
         U _OBJC_METACLASS_$_NSFileCoordinator
         U _OBJC_METACLASS_$_NSFileVersion
         U _OBJC_METACLASS_$_NSFileWrapper
         U _OBJC_METACLASS_$_NSHashTable
         U _OBJC_METACLASS_$_NSJSONSerialization
         U _OBJC_METACLASS_$_NSLayoutConstraint
         U _OBJC_METACLASS_$_NSLinguisticTagger
         U _OBJC_METACLASS_$_NSMapTable
         U _OBJC_METACLASS_$_NSMetadataItem
         U _OBJC_METACLASS_$_NSMetadataQuery
         U _OBJC_METACLASS_$_NSMetadataQueryAttributeValueTuple
         U _OBJC_METACLASS_$_NSMetadataQueryResultGroup
         U _OBJC_METACLASS_$_NSMutableAttributedString
         U _OBJC_METACLASS_$_NSMutableOrderedSet
         U _OBJC_METACLASS_$_NSMutableParagraphStyle
         U _OBJC_METACLASS_$_NSObject
         U _OBJC_METACLASS_$_NSOrderedSet
         U _OBJC_METACLASS_$_NSOrthography
         U _OBJC_METACLASS_$_NSParagraphStyle
         U _OBJC_METACLASS_$_NSPointerArray
         U _OBJC_METACLASS_$_NSPointerFunctions
         U _OBJC_METACLASS_$_NSPurgeableData
         U _OBJC_METACLASS_$_NSRegularExpression
         U _OBJC_METACLASS_$_NSShadow
         U _OBJC_METACLASS_$_NSStringDrawingContext
         U _OBJC_METACLASS_$_NSTextCheckingResult
         U _OBJC_METACLASS_$_NSUUID
         U _OBJC_METACLASS_$_NSUbiquitousKeyValueStore
         U _OBJC_METACLASS_$_UIActivity
         U _OBJC_METACLASS_$_UIActivityItemProvider
         U _OBJC_METACLASS_$_UIActivityViewController
         U _OBJC_METACLASS_$_UIBezierPath
         U _OBJC_METACLASS_$_UICollectionReusableView
         U _OBJC_METACLASS_$_UICollectionView
         U _OBJC_METACLASS_$_UICollectionViewCell
         U _OBJC_METACLASS_$_UICollectionViewController
         U _OBJC_METACLASS_$_UICollectionViewFlowLayout
         U _OBJC_METACLASS_$_UICollectionViewLayout
         U _OBJC_METACLASS_$_UICollectionViewLayoutAttributes
         U _OBJC_METACLASS_$_UICollectionViewUpdateItem
         U _OBJC_METACLASS_$_UIDictationPhrase
         U _OBJC_METACLASS_$_UIDocument
         U _OBJC_METACLASS_$_UIDocumentInteractionController
         U _OBJC_METACLASS_$_UIGestureRecognizer
         U _OBJC_METACLASS_$_UILocalNotification
         U _OBJC_METACLASS_$_UILongPressGestureRecognizer
         U _OBJC_METACLASS_$_UIManagedDocument
         U _OBJC_METACLASS_$_UIMarkupTextPrintFormatter
         U _OBJC_METACLASS_$_UIMenuItem
         U _OBJC_METACLASS_$_UINib
         U _OBJC_METACLASS_$_UIPageViewController
         U _OBJC_METACLASS_$_UIPanGestureRecognizer
         U _OBJC_METACLASS_$_UIPinchGestureRecognizer
         U _OBJC_METACLASS_$_UIPopoverBackgroundView
         U _OBJC_METACLASS_$_UIPopoverController
         U _OBJC_METACLASS_$_UIPrintFormatter
         U _OBJC_METACLASS_$_UIPrintInfo
         U _OBJC_METACLASS_$_UIPrintInteractionController
         U _OBJC_METACLASS_$_UIPrintPageRenderer
         U _OBJC_METACLASS_$_UIPrintPaper
         U _OBJC_METACLASS_$_UIReferenceLibraryViewController
         U _OBJC_METACLASS_$_UIRefreshControl
         U _OBJC_METACLASS_$_UIRotationGestureRecognizer
         U _OBJC_METACLASS_$_UIScreenMode
         U _OBJC_METACLASS_$_UISimpleTextPrintFormatter
         U _OBJC_METACLASS_$_UISplitViewController
         U _OBJC_METACLASS_$_UIStepper
         U _OBJC_METACLASS_$_UIStoryboard
         U _OBJC_METACLASS_$_UIStoryboardPopoverSegue
         U _OBJC_METACLASS_$_UIStoryboardSegue
         U _OBJC_METACLASS_$_UISwipeGestureRecognizer
         U _OBJC_METACLASS_$_UITableViewHeaderFooterView
         U _OBJC_METACLASS_$_UITapGestureRecognizer
         U _OBJC_METACLASS_$_UITextChecker
         U _OBJC_METACLASS_$_UITextInputMode
         U _OBJC_METACLASS_$_UITextInputStringTokenizer
         U _OBJC_METACLASS_$_UITextPosition
         U _OBJC_METACLASS_$_UITextRange
         U _OBJC_METACLASS_$_UITextSelectionRect
         U _OBJC_METACLASS_$_UIView
         U _OBJC_METACLASS_$_UIViewPrintFormatter
         U _UIApplicationDidBecomeActiveNotification
         U _UIApplicationDidReceiveMemoryWarningNotification
         U _UIApplicationWillResignActiveNotification
0001b884 S __MCOverlayAdDidHide
0001b880 S __MCOverlayAdWillShow
         U __MCSessionRestarted
0001b87c S __MCVideoPlayerDidHide
0001b878 S __MCVideoPlayerWillShow
         U __MobclixDidFinishStarting
         U __Unwind_SjLj_Register
         U __Unwind_SjLj_Resume
         U __Unwind_SjLj_Unregister
         U ___CFConstantStringClassReference
0001ec8c b ___fullscreenOrdinalNumber
         U ___objc_personality_v0
         U __objc_empty_cache
         U __objc_empty_vtable
         U _llvm.eh.catch.all.value
         U _memset
         U _objc_begin_catch
         U _objc_end_catch
         U _objc_enumerationMutation
         U _objc_msgSend
         U _objc_msgSendSuper2
         U _objc_msgSend_stret
         U _objc_setProperty
         U _objc_sync_enter
         U _objc_sync_exit
         U _puts
0001d1e8 s l_OBJC_$_INSTANCE_METHODS_MobclixAdViewInternal
0001d628 s l_OBJC_$_INSTANCE_VARIABLES_MobclixAdViewInternal
0001d928 s l_OBJC_$_PROP_LIST_MobclixAdViewInternal
0001d1c0 s l_OBJC_CLASS_RO_$_MobclixAdViewInternal
0001d198 s l_OBJC_METACLASS_RO_$_MobclixAdViewInternal

build/AppDeck/AppDeck.a(MobclixInteractiveVideoController.o) (for architecture armv7):
00000674 t -[MobclixInteractiveVideoController close]
00000164 t -[MobclixInteractiveVideoController dealloc]
0000001c t -[MobclixInteractiveVideoController initWithAd:]
0000000c t -[MobclixInteractiveVideoController interactiveVideoView]
00000b74 t -[MobclixInteractiveVideoController loadView]
000001b0 t -[MobclixInteractiveVideoController moviePlayerPlaybackFinished:]
00000260 t -[MobclixInteractiveVideoController moviePlayerPreloadFinished:]
000002e8 t -[MobclixInteractiveVideoController openBrowserForURL:]
000003f0 t -[MobclixInteractiveVideoController play]
0000013c t -[MobclixInteractiveVideoController setInteractiveVideoView:]
00000000 t -[MobclixInteractiveVideoController shouldAutorotateToInterfaceOrientation:]
000005ec t -[MobclixInteractiveVideoController toolbarItemTapped:]
00000860 t -[MobclixInteractiveVideoController viewDidAppear:]
000006d0 t -[MobclixInteractiveVideoController viewDidDisappear:]
000008d8 t -[MobclixInteractiveVideoController viewWillAppear:]
00000778 t -[MobclixInteractiveVideoController viewWillDisappear:]
         U _MPMoviePlayerContentPreloadDidFinishNotification
         U _MPMoviePlayerPlaybackDidFinishNotification
         U _OBJC_CLASS_$_ASIdentifierManager
         U _OBJC_CLASS_$_MCBrowserViewController
         U _OBJC_CLASS_$_MPMediaEntity
         U _OBJC_CLASS_$_MPMediaQuerySection
         U _OBJC_CLASS_$_MPMovieAccessLog
         U _OBJC_CLASS_$_MPMovieAccessLogEvent
         U _OBJC_CLASS_$_MPMovieErrorLog
         U _OBJC_CLASS_$_MPMovieErrorLogEvent
         U _OBJC_CLASS_$_MPMoviePlayerController
         U _OBJC_CLASS_$_MPMoviePlayerViewController
         U _OBJC_CLASS_$_MPNowPlayingInfoCenter
         U _OBJC_CLASS_$_MPTimedMetadata
         U _OBJC_CLASS_$_MobclixController
0000c740 S _OBJC_CLASS_$_MobclixInteractiveVideoController
         U _OBJC_CLASS_$_MobclixInteractiveVideoView
         U _OBJC_CLASS_$_NSAttributedString
         U _OBJC_CLASS_$_NSBlockOperation
         U _OBJC_CLASS_$_NSByteCountFormatter
         U _OBJC_CLASS_$_NSCache
         U _OBJC_CLASS_$_NSDataDetector
         U _OBJC_CLASS_$_NSFileCoordinator
         U _OBJC_CLASS_$_NSFileVersion
         U _OBJC_CLASS_$_NSFileWrapper
         U _OBJC_CLASS_$_NSHashTable
         U _OBJC_CLASS_$_NSJSONSerialization
         U _OBJC_CLASS_$_NSLayoutConstraint
         U _OBJC_CLASS_$_NSLinguisticTagger
         U _OBJC_CLASS_$_NSMapTable
         U _OBJC_CLASS_$_NSMetadataItem
         U _OBJC_CLASS_$_NSMetadataQuery
         U _OBJC_CLASS_$_NSMetadataQueryAttributeValueTuple
         U _OBJC_CLASS_$_NSMetadataQueryResultGroup
         U _OBJC_CLASS_$_NSMutableAttributedString
         U _OBJC_CLASS_$_NSMutableOrderedSet
         U _OBJC_CLASS_$_NSMutableParagraphStyle
         U _OBJC_CLASS_$_NSNotificationCenter
         U _OBJC_CLASS_$_NSOrderedSet
         U _OBJC_CLASS_$_NSOrthography
         U _OBJC_CLASS_$_NSParagraphStyle
         U _OBJC_CLASS_$_NSPointerArray
         U _OBJC_CLASS_$_NSPointerFunctions
         U _OBJC_CLASS_$_NSPurgeableData
         U _OBJC_CLASS_$_NSRegularExpression
         U _OBJC_CLASS_$_NSShadow
         U _OBJC_CLASS_$_NSStringDrawingContext
         U _OBJC_CLASS_$_NSTextCheckingResult
         U _OBJC_CLASS_$_NSURLRequest
         U _OBJC_CLASS_$_NSUUID
         U _OBJC_CLASS_$_NSUbiquitousKeyValueStore
         U _OBJC_CLASS_$_UIActivity
